
stm-synthesizer.elf:     file format elf32-littlearm

Sections:
Idx Name          Size      VMA       LMA       File off  Algn
  0 .isr_vector   00000198  08000000  08000000  00001000  2**0
                  CONTENTS, ALLOC, LOAD, READONLY, DATA
  1 .text         00004f90  08000198  08000198  00001198  2**3
                  CONTENTS, ALLOC, LOAD, READONLY, CODE
  2 .rodata       000020b8  08005128  08005128  00006128  2**3
                  CONTENTS, ALLOC, LOAD, READONLY, DATA
  3 .ARM.extab    00000000  080071e0  080071e0  0000906c  2**0
                  CONTENTS
  4 .ARM          00000008  080071e0  080071e0  000081e0  2**2
                  CONTENTS, ALLOC, LOAD, READONLY, DATA
  5 .preinit_array 00000000  080071e8  080071e8  0000906c  2**0
                  CONTENTS, ALLOC, LOAD, DATA
  6 .init_array   00000004  080071e8  080071e8  000081e8  2**2
                  CONTENTS, ALLOC, LOAD, READONLY, DATA
  7 .fini_array   00000004  080071ec  080071ec  000081ec  2**2
                  CONTENTS, ALLOC, LOAD, READONLY, DATA
  8 .data         0000006c  20000000  080071f0  00009000  2**2
                  CONTENTS, ALLOC, LOAD, DATA
  9 .bss          00001df0  20000070  0800725c  00009070  2**3
                  ALLOC
 10 ._user_heap_stack 00000600  20001e60  0800725c  00009e60  2**0
                  ALLOC
 11 .ARM.attributes 00000030  00000000  00000000  0000906c  2**0
                  CONTENTS, READONLY
 12 .debug_info   0001781e  00000000  00000000  0000909c  2**0
                  CONTENTS, READONLY, DEBUGGING, OCTETS
 13 .debug_abbrev 00003238  00000000  00000000  000208ba  2**0
                  CONTENTS, READONLY, DEBUGGING, OCTETS
 14 .debug_aranges 00000bd0  00000000  00000000  00023af8  2**3
                  CONTENTS, READONLY, DEBUGGING, OCTETS
 15 .debug_rnglists 0000190c  00000000  00000000  000246c8  2**0
                  CONTENTS, READONLY, DEBUGGING, OCTETS
 16 .debug_macro  00016445  00000000  00000000  00025fd4  2**0
                  CONTENTS, READONLY, DEBUGGING, OCTETS
 17 .debug_line   0001b698  00000000  00000000  0003c419  2**0
                  CONTENTS, READONLY, DEBUGGING, OCTETS
 18 .debug_str    00096f32  00000000  00000000  00057ab1  2**0
                  CONTENTS, READONLY, DEBUGGING, OCTETS
 19 .comment      00000043  00000000  00000000  000ee9e3  2**0
                  CONTENTS, READONLY
 20 .debug_frame  00002ae4  00000000  00000000  000eea28  2**2
                  CONTENTS, READONLY, DEBUGGING, OCTETS
 21 .debug_loclists 0000a650  00000000  00000000  000f150c  2**0
                  CONTENTS, READONLY, DEBUGGING, OCTETS
 22 .debug_line_str 0000006e  00000000  00000000  000fbb5c  2**0
                  CONTENTS, READONLY, DEBUGGING, OCTETS

Disassembly of section .text:

08000198 <__do_global_dtors_aux>:
 8000198:	b510      	push	{r4, lr}
 800019a:	4c05      	ldr	r4, [pc, #20]	@ (80001b0 <__do_global_dtors_aux+0x18>)
 800019c:	7823      	ldrb	r3, [r4, #0]
 800019e:	b933      	cbnz	r3, 80001ae <__do_global_dtors_aux+0x16>
 80001a0:	4b04      	ldr	r3, [pc, #16]	@ (80001b4 <__do_global_dtors_aux+0x1c>)
 80001a2:	b113      	cbz	r3, 80001aa <__do_global_dtors_aux+0x12>
 80001a4:	4804      	ldr	r0, [pc, #16]	@ (80001b8 <__do_global_dtors_aux+0x20>)
 80001a6:	f3af 8000 	nop.w
 80001aa:	2301      	movs	r3, #1
 80001ac:	7023      	strb	r3, [r4, #0]
 80001ae:	bd10      	pop	{r4, pc}
 80001b0:	20000070 	.word	0x20000070
 80001b4:	00000000 	.word	0x00000000
 80001b8:	08005110 	.word	0x08005110

080001bc <frame_dummy>:
 80001bc:	b508      	push	{r3, lr}
 80001be:	4b03      	ldr	r3, [pc, #12]	@ (80001cc <frame_dummy+0x10>)
 80001c0:	b11b      	cbz	r3, 80001ca <frame_dummy+0xe>
 80001c2:	4903      	ldr	r1, [pc, #12]	@ (80001d0 <frame_dummy+0x14>)
 80001c4:	4803      	ldr	r0, [pc, #12]	@ (80001d4 <frame_dummy+0x18>)
 80001c6:	f3af 8000 	nop.w
 80001ca:	bd08      	pop	{r3, pc}
 80001cc:	00000000 	.word	0x00000000
 80001d0:	20000074 	.word	0x20000074
 80001d4:	08005110 	.word	0x08005110

080001d8 <__aeabi_drsub>:
 80001d8:	f081 4100 	eor.w	r1, r1, #2147483648	@ 0x80000000
 80001dc:	e002      	b.n	80001e4 <__adddf3>
 80001de:	bf00      	nop

080001e0 <__aeabi_dsub>:
 80001e0:	f083 4300 	eor.w	r3, r3, #2147483648	@ 0x80000000

080001e4 <__adddf3>:
 80001e4:	b530      	push	{r4, r5, lr}
 80001e6:	ea4f 0441 	mov.w	r4, r1, lsl #1
 80001ea:	ea4f 0543 	mov.w	r5, r3, lsl #1
 80001ee:	ea94 0f05 	teq	r4, r5
 80001f2:	bf08      	it	eq
 80001f4:	ea90 0f02 	teqeq	r0, r2
 80001f8:	bf1f      	itttt	ne
 80001fa:	ea54 0c00 	orrsne.w	ip, r4, r0
 80001fe:	ea55 0c02 	orrsne.w	ip, r5, r2
 8000202:	ea7f 5c64 	mvnsne.w	ip, r4, asr #21
 8000206:	ea7f 5c65 	mvnsne.w	ip, r5, asr #21
 800020a:	f000 80e2 	beq.w	80003d2 <__adddf3+0x1ee>
 800020e:	ea4f 5454 	mov.w	r4, r4, lsr #21
 8000212:	ebd4 5555 	rsbs	r5, r4, r5, lsr #21
 8000216:	bfb8      	it	lt
 8000218:	426d      	neglt	r5, r5
 800021a:	dd0c      	ble.n	8000236 <__adddf3+0x52>
 800021c:	442c      	add	r4, r5
 800021e:	ea80 0202 	eor.w	r2, r0, r2
 8000222:	ea81 0303 	eor.w	r3, r1, r3
 8000226:	ea82 0000 	eor.w	r0, r2, r0
 800022a:	ea83 0101 	eor.w	r1, r3, r1
 800022e:	ea80 0202 	eor.w	r2, r0, r2
 8000232:	ea81 0303 	eor.w	r3, r1, r3
 8000236:	2d36      	cmp	r5, #54	@ 0x36
 8000238:	bf88      	it	hi
 800023a:	bd30      	pophi	{r4, r5, pc}
 800023c:	f011 4f00 	tst.w	r1, #2147483648	@ 0x80000000
 8000240:	ea4f 3101 	mov.w	r1, r1, lsl #12
 8000244:	f44f 1c80 	mov.w	ip, #1048576	@ 0x100000
 8000248:	ea4c 3111 	orr.w	r1, ip, r1, lsr #12
 800024c:	d002      	beq.n	8000254 <__adddf3+0x70>
 800024e:	4240      	negs	r0, r0
 8000250:	eb61 0141 	sbc.w	r1, r1, r1, lsl #1
 8000254:	f013 4f00 	tst.w	r3, #2147483648	@ 0x80000000
 8000258:	ea4f 3303 	mov.w	r3, r3, lsl #12
 800025c:	ea4c 3313 	orr.w	r3, ip, r3, lsr #12
 8000260:	d002      	beq.n	8000268 <__adddf3+0x84>
 8000262:	4252      	negs	r2, r2
 8000264:	eb63 0343 	sbc.w	r3, r3, r3, lsl #1
 8000268:	ea94 0f05 	teq	r4, r5
 800026c:	f000 80a7 	beq.w	80003be <__adddf3+0x1da>
 8000270:	f1a4 0401 	sub.w	r4, r4, #1
 8000274:	f1d5 0e20 	rsbs	lr, r5, #32
 8000278:	db0d      	blt.n	8000296 <__adddf3+0xb2>
 800027a:	fa02 fc0e 	lsl.w	ip, r2, lr
 800027e:	fa22 f205 	lsr.w	r2, r2, r5
 8000282:	1880      	adds	r0, r0, r2
 8000284:	f141 0100 	adc.w	r1, r1, #0
 8000288:	fa03 f20e 	lsl.w	r2, r3, lr
 800028c:	1880      	adds	r0, r0, r2
 800028e:	fa43 f305 	asr.w	r3, r3, r5
 8000292:	4159      	adcs	r1, r3
 8000294:	e00e      	b.n	80002b4 <__adddf3+0xd0>
 8000296:	f1a5 0520 	sub.w	r5, r5, #32
 800029a:	f10e 0e20 	add.w	lr, lr, #32
 800029e:	2a01      	cmp	r2, #1
 80002a0:	fa03 fc0e 	lsl.w	ip, r3, lr
 80002a4:	bf28      	it	cs
 80002a6:	f04c 0c02 	orrcs.w	ip, ip, #2
 80002aa:	fa43 f305 	asr.w	r3, r3, r5
 80002ae:	18c0      	adds	r0, r0, r3
 80002b0:	eb51 71e3 	adcs.w	r1, r1, r3, asr #31
 80002b4:	f001 4500 	and.w	r5, r1, #2147483648	@ 0x80000000
 80002b8:	d507      	bpl.n	80002ca <__adddf3+0xe6>
 80002ba:	f04f 0e00 	mov.w	lr, #0
 80002be:	f1dc 0c00 	rsbs	ip, ip, #0
 80002c2:	eb7e 0000 	sbcs.w	r0, lr, r0
 80002c6:	eb6e 0101 	sbc.w	r1, lr, r1
 80002ca:	f5b1 1f80 	cmp.w	r1, #1048576	@ 0x100000
 80002ce:	d31b      	bcc.n	8000308 <__adddf3+0x124>
 80002d0:	f5b1 1f00 	cmp.w	r1, #2097152	@ 0x200000
 80002d4:	d30c      	bcc.n	80002f0 <__adddf3+0x10c>
 80002d6:	0849      	lsrs	r1, r1, #1
 80002d8:	ea5f 0030 	movs.w	r0, r0, rrx
 80002dc:	ea4f 0c3c 	mov.w	ip, ip, rrx
 80002e0:	f104 0401 	add.w	r4, r4, #1
 80002e4:	ea4f 5244 	mov.w	r2, r4, lsl #21
 80002e8:	f512 0f80 	cmn.w	r2, #4194304	@ 0x400000
 80002ec:	f080 809a 	bcs.w	8000424 <__adddf3+0x240>
 80002f0:	f1bc 4f00 	cmp.w	ip, #2147483648	@ 0x80000000
 80002f4:	bf08      	it	eq
 80002f6:	ea5f 0c50 	movseq.w	ip, r0, lsr #1
 80002fa:	f150 0000 	adcs.w	r0, r0, #0
 80002fe:	eb41 5104 	adc.w	r1, r1, r4, lsl #20
 8000302:	ea41 0105 	orr.w	r1, r1, r5
 8000306:	bd30      	pop	{r4, r5, pc}
 8000308:	ea5f 0c4c 	movs.w	ip, ip, lsl #1
 800030c:	4140      	adcs	r0, r0
 800030e:	eb41 0101 	adc.w	r1, r1, r1
 8000312:	3c01      	subs	r4, #1
 8000314:	bf28      	it	cs
 8000316:	f5b1 1f80 	cmpcs.w	r1, #1048576	@ 0x100000
 800031a:	d2e9      	bcs.n	80002f0 <__adddf3+0x10c>
 800031c:	f091 0f00 	teq	r1, #0
 8000320:	bf04      	itt	eq
 8000322:	4601      	moveq	r1, r0
 8000324:	2000      	moveq	r0, #0
 8000326:	fab1 f381 	clz	r3, r1
 800032a:	bf08      	it	eq
 800032c:	3320      	addeq	r3, #32
 800032e:	f1a3 030b 	sub.w	r3, r3, #11
 8000332:	f1b3 0220 	subs.w	r2, r3, #32
 8000336:	da0c      	bge.n	8000352 <__adddf3+0x16e>
 8000338:	320c      	adds	r2, #12
 800033a:	dd08      	ble.n	800034e <__adddf3+0x16a>
 800033c:	f102 0c14 	add.w	ip, r2, #20
 8000340:	f1c2 020c 	rsb	r2, r2, #12
 8000344:	fa01 f00c 	lsl.w	r0, r1, ip
 8000348:	fa21 f102 	lsr.w	r1, r1, r2
 800034c:	e00c      	b.n	8000368 <__adddf3+0x184>
 800034e:	f102 0214 	add.w	r2, r2, #20
 8000352:	bfd8      	it	le
 8000354:	f1c2 0c20 	rsble	ip, r2, #32
 8000358:	fa01 f102 	lsl.w	r1, r1, r2
 800035c:	fa20 fc0c 	lsr.w	ip, r0, ip
 8000360:	bfdc      	itt	le
 8000362:	ea41 010c 	orrle.w	r1, r1, ip
 8000366:	4090      	lslle	r0, r2
 8000368:	1ae4      	subs	r4, r4, r3
 800036a:	bfa2      	ittt	ge
 800036c:	eb01 5104 	addge.w	r1, r1, r4, lsl #20
 8000370:	4329      	orrge	r1, r5
 8000372:	bd30      	popge	{r4, r5, pc}
 8000374:	ea6f 0404 	mvn.w	r4, r4
 8000378:	3c1f      	subs	r4, #31
 800037a:	da1c      	bge.n	80003b6 <__adddf3+0x1d2>
 800037c:	340c      	adds	r4, #12
 800037e:	dc0e      	bgt.n	800039e <__adddf3+0x1ba>
 8000380:	f104 0414 	add.w	r4, r4, #20
 8000384:	f1c4 0220 	rsb	r2, r4, #32
 8000388:	fa20 f004 	lsr.w	r0, r0, r4
 800038c:	fa01 f302 	lsl.w	r3, r1, r2
 8000390:	ea40 0003 	orr.w	r0, r0, r3
 8000394:	fa21 f304 	lsr.w	r3, r1, r4
 8000398:	ea45 0103 	orr.w	r1, r5, r3
 800039c:	bd30      	pop	{r4, r5, pc}
 800039e:	f1c4 040c 	rsb	r4, r4, #12
 80003a2:	f1c4 0220 	rsb	r2, r4, #32
 80003a6:	fa20 f002 	lsr.w	r0, r0, r2
 80003aa:	fa01 f304 	lsl.w	r3, r1, r4
 80003ae:	ea40 0003 	orr.w	r0, r0, r3
 80003b2:	4629      	mov	r1, r5
 80003b4:	bd30      	pop	{r4, r5, pc}
 80003b6:	fa21 f004 	lsr.w	r0, r1, r4
 80003ba:	4629      	mov	r1, r5
 80003bc:	bd30      	pop	{r4, r5, pc}
 80003be:	f094 0f00 	teq	r4, #0
 80003c2:	f483 1380 	eor.w	r3, r3, #1048576	@ 0x100000
 80003c6:	bf06      	itte	eq
 80003c8:	f481 1180 	eoreq.w	r1, r1, #1048576	@ 0x100000
 80003cc:	3401      	addeq	r4, #1
 80003ce:	3d01      	subne	r5, #1
 80003d0:	e74e      	b.n	8000270 <__adddf3+0x8c>
 80003d2:	ea7f 5c64 	mvns.w	ip, r4, asr #21
 80003d6:	bf18      	it	ne
 80003d8:	ea7f 5c65 	mvnsne.w	ip, r5, asr #21
 80003dc:	d029      	beq.n	8000432 <__adddf3+0x24e>
 80003de:	ea94 0f05 	teq	r4, r5
 80003e2:	bf08      	it	eq
 80003e4:	ea90 0f02 	teqeq	r0, r2
 80003e8:	d005      	beq.n	80003f6 <__adddf3+0x212>
 80003ea:	ea54 0c00 	orrs.w	ip, r4, r0
 80003ee:	bf04      	itt	eq
 80003f0:	4619      	moveq	r1, r3
 80003f2:	4610      	moveq	r0, r2
 80003f4:	bd30      	pop	{r4, r5, pc}
 80003f6:	ea91 0f03 	teq	r1, r3
 80003fa:	bf1e      	ittt	ne
 80003fc:	2100      	movne	r1, #0
 80003fe:	2000      	movne	r0, #0
 8000400:	bd30      	popne	{r4, r5, pc}
 8000402:	ea5f 5c54 	movs.w	ip, r4, lsr #21
 8000406:	d105      	bne.n	8000414 <__adddf3+0x230>
 8000408:	0040      	lsls	r0, r0, #1
 800040a:	4149      	adcs	r1, r1
 800040c:	bf28      	it	cs
 800040e:	f041 4100 	orrcs.w	r1, r1, #2147483648	@ 0x80000000
 8000412:	bd30      	pop	{r4, r5, pc}
 8000414:	f514 0480 	adds.w	r4, r4, #4194304	@ 0x400000
 8000418:	bf3c      	itt	cc
 800041a:	f501 1180 	addcc.w	r1, r1, #1048576	@ 0x100000
 800041e:	bd30      	popcc	{r4, r5, pc}
 8000420:	f001 4500 	and.w	r5, r1, #2147483648	@ 0x80000000
 8000424:	f045 41fe 	orr.w	r1, r5, #2130706432	@ 0x7f000000
 8000428:	f441 0170 	orr.w	r1, r1, #15728640	@ 0xf00000
 800042c:	f04f 0000 	mov.w	r0, #0
 8000430:	bd30      	pop	{r4, r5, pc}
 8000432:	ea7f 5c64 	mvns.w	ip, r4, asr #21
 8000436:	bf1a      	itte	ne
 8000438:	4619      	movne	r1, r3
 800043a:	4610      	movne	r0, r2
 800043c:	ea7f 5c65 	mvnseq.w	ip, r5, asr #21
 8000440:	bf1c      	itt	ne
 8000442:	460b      	movne	r3, r1
 8000444:	4602      	movne	r2, r0
 8000446:	ea50 3401 	orrs.w	r4, r0, r1, lsl #12
 800044a:	bf06      	itte	eq
 800044c:	ea52 3503 	orrseq.w	r5, r2, r3, lsl #12
 8000450:	ea91 0f03 	teqeq	r1, r3
 8000454:	f441 2100 	orrne.w	r1, r1, #524288	@ 0x80000
 8000458:	bd30      	pop	{r4, r5, pc}
 800045a:	bf00      	nop

0800045c <__aeabi_ui2d>:
 800045c:	f090 0f00 	teq	r0, #0
 8000460:	bf04      	itt	eq
 8000462:	2100      	moveq	r1, #0
 8000464:	4770      	bxeq	lr
 8000466:	b530      	push	{r4, r5, lr}
 8000468:	f44f 6480 	mov.w	r4, #1024	@ 0x400
 800046c:	f104 0432 	add.w	r4, r4, #50	@ 0x32
 8000470:	f04f 0500 	mov.w	r5, #0
 8000474:	f04f 0100 	mov.w	r1, #0
 8000478:	e750      	b.n	800031c <__adddf3+0x138>
 800047a:	bf00      	nop

0800047c <__aeabi_i2d>:
 800047c:	f090 0f00 	teq	r0, #0
 8000480:	bf04      	itt	eq
 8000482:	2100      	moveq	r1, #0
 8000484:	4770      	bxeq	lr
 8000486:	b530      	push	{r4, r5, lr}
 8000488:	f44f 6480 	mov.w	r4, #1024	@ 0x400
 800048c:	f104 0432 	add.w	r4, r4, #50	@ 0x32
 8000490:	f010 4500 	ands.w	r5, r0, #2147483648	@ 0x80000000
 8000494:	bf48      	it	mi
 8000496:	4240      	negmi	r0, r0
 8000498:	f04f 0100 	mov.w	r1, #0
 800049c:	e73e      	b.n	800031c <__adddf3+0x138>
 800049e:	bf00      	nop

080004a0 <__aeabi_f2d>:
 80004a0:	0042      	lsls	r2, r0, #1
 80004a2:	ea4f 01e2 	mov.w	r1, r2, asr #3
 80004a6:	ea4f 0131 	mov.w	r1, r1, rrx
 80004aa:	ea4f 7002 	mov.w	r0, r2, lsl #28
 80004ae:	bf1f      	itttt	ne
 80004b0:	f012 437f 	andsne.w	r3, r2, #4278190080	@ 0xff000000
 80004b4:	f093 4f7f 	teqne	r3, #4278190080	@ 0xff000000
 80004b8:	f081 5160 	eorne.w	r1, r1, #939524096	@ 0x38000000
 80004bc:	4770      	bxne	lr
 80004be:	f032 427f 	bics.w	r2, r2, #4278190080	@ 0xff000000
 80004c2:	bf08      	it	eq
 80004c4:	4770      	bxeq	lr
 80004c6:	f093 4f7f 	teq	r3, #4278190080	@ 0xff000000
 80004ca:	bf04      	itt	eq
 80004cc:	f441 2100 	orreq.w	r1, r1, #524288	@ 0x80000
 80004d0:	4770      	bxeq	lr
 80004d2:	b530      	push	{r4, r5, lr}
 80004d4:	f44f 7460 	mov.w	r4, #896	@ 0x380
 80004d8:	f001 4500 	and.w	r5, r1, #2147483648	@ 0x80000000
 80004dc:	f021 4100 	bic.w	r1, r1, #2147483648	@ 0x80000000
 80004e0:	e71c      	b.n	800031c <__adddf3+0x138>
 80004e2:	bf00      	nop

080004e4 <__aeabi_ul2d>:
 80004e4:	ea50 0201 	orrs.w	r2, r0, r1
 80004e8:	bf08      	it	eq
 80004ea:	4770      	bxeq	lr
 80004ec:	b530      	push	{r4, r5, lr}
 80004ee:	f04f 0500 	mov.w	r5, #0
 80004f2:	e00a      	b.n	800050a <__aeabi_l2d+0x16>

080004f4 <__aeabi_l2d>:
 80004f4:	ea50 0201 	orrs.w	r2, r0, r1
 80004f8:	bf08      	it	eq
 80004fa:	4770      	bxeq	lr
 80004fc:	b530      	push	{r4, r5, lr}
 80004fe:	f011 4500 	ands.w	r5, r1, #2147483648	@ 0x80000000
 8000502:	d502      	bpl.n	800050a <__aeabi_l2d+0x16>
 8000504:	4240      	negs	r0, r0
 8000506:	eb61 0141 	sbc.w	r1, r1, r1, lsl #1
 800050a:	f44f 6480 	mov.w	r4, #1024	@ 0x400
 800050e:	f104 0432 	add.w	r4, r4, #50	@ 0x32
 8000512:	ea5f 5c91 	movs.w	ip, r1, lsr #22
 8000516:	f43f aed8 	beq.w	80002ca <__adddf3+0xe6>
 800051a:	f04f 0203 	mov.w	r2, #3
 800051e:	ea5f 0cdc 	movs.w	ip, ip, lsr #3
 8000522:	bf18      	it	ne
 8000524:	3203      	addne	r2, #3
 8000526:	ea5f 0cdc 	movs.w	ip, ip, lsr #3
 800052a:	bf18      	it	ne
 800052c:	3203      	addne	r2, #3
 800052e:	eb02 02dc 	add.w	r2, r2, ip, lsr #3
 8000532:	f1c2 0320 	rsb	r3, r2, #32
 8000536:	fa00 fc03 	lsl.w	ip, r0, r3
 800053a:	fa20 f002 	lsr.w	r0, r0, r2
 800053e:	fa01 fe03 	lsl.w	lr, r1, r3
 8000542:	ea40 000e 	orr.w	r0, r0, lr
 8000546:	fa21 f102 	lsr.w	r1, r1, r2
 800054a:	4414      	add	r4, r2
 800054c:	e6bd      	b.n	80002ca <__adddf3+0xe6>
 800054e:	bf00      	nop

08000550 <__aeabi_dmul>:
 8000550:	b570      	push	{r4, r5, r6, lr}
 8000552:	f04f 0cff 	mov.w	ip, #255	@ 0xff
 8000556:	f44c 6ce0 	orr.w	ip, ip, #1792	@ 0x700
 800055a:	ea1c 5411 	ands.w	r4, ip, r1, lsr #20
 800055e:	bf1d      	ittte	ne
 8000560:	ea1c 5513 	andsne.w	r5, ip, r3, lsr #20
 8000564:	ea94 0f0c 	teqne	r4, ip
 8000568:	ea95 0f0c 	teqne	r5, ip
 800056c:	f000 f8de 	bleq	800072c <__aeabi_dmul+0x1dc>
 8000570:	442c      	add	r4, r5
 8000572:	ea81 0603 	eor.w	r6, r1, r3
 8000576:	ea21 514c 	bic.w	r1, r1, ip, lsl #21
 800057a:	ea23 534c 	bic.w	r3, r3, ip, lsl #21
 800057e:	ea50 3501 	orrs.w	r5, r0, r1, lsl #12
 8000582:	bf18      	it	ne
 8000584:	ea52 3503 	orrsne.w	r5, r2, r3, lsl #12
 8000588:	f441 1180 	orr.w	r1, r1, #1048576	@ 0x100000
 800058c:	f443 1380 	orr.w	r3, r3, #1048576	@ 0x100000
 8000590:	d038      	beq.n	8000604 <__aeabi_dmul+0xb4>
 8000592:	fba0 ce02 	umull	ip, lr, r0, r2
 8000596:	f04f 0500 	mov.w	r5, #0
 800059a:	fbe1 e502 	umlal	lr, r5, r1, r2
 800059e:	f006 4200 	and.w	r2, r6, #2147483648	@ 0x80000000
 80005a2:	fbe0 e503 	umlal	lr, r5, r0, r3
 80005a6:	f04f 0600 	mov.w	r6, #0
 80005aa:	fbe1 5603 	umlal	r5, r6, r1, r3
 80005ae:	f09c 0f00 	teq	ip, #0
 80005b2:	bf18      	it	ne
 80005b4:	f04e 0e01 	orrne.w	lr, lr, #1
 80005b8:	f1a4 04ff 	sub.w	r4, r4, #255	@ 0xff
 80005bc:	f5b6 7f00 	cmp.w	r6, #512	@ 0x200
 80005c0:	f564 7440 	sbc.w	r4, r4, #768	@ 0x300
 80005c4:	d204      	bcs.n	80005d0 <__aeabi_dmul+0x80>
 80005c6:	ea5f 0e4e 	movs.w	lr, lr, lsl #1
 80005ca:	416d      	adcs	r5, r5
 80005cc:	eb46 0606 	adc.w	r6, r6, r6
 80005d0:	ea42 21c6 	orr.w	r1, r2, r6, lsl #11
 80005d4:	ea41 5155 	orr.w	r1, r1, r5, lsr #21
 80005d8:	ea4f 20c5 	mov.w	r0, r5, lsl #11
 80005dc:	ea40 505e 	orr.w	r0, r0, lr, lsr #21
 80005e0:	ea4f 2ece 	mov.w	lr, lr, lsl #11
 80005e4:	f1b4 0cfd 	subs.w	ip, r4, #253	@ 0xfd
 80005e8:	bf88      	it	hi
 80005ea:	f5bc 6fe0 	cmphi.w	ip, #1792	@ 0x700
 80005ee:	d81e      	bhi.n	800062e <__aeabi_dmul+0xde>
 80005f0:	f1be 4f00 	cmp.w	lr, #2147483648	@ 0x80000000
 80005f4:	bf08      	it	eq
 80005f6:	ea5f 0e50 	movseq.w	lr, r0, lsr #1
 80005fa:	f150 0000 	adcs.w	r0, r0, #0
 80005fe:	eb41 5104 	adc.w	r1, r1, r4, lsl #20
 8000602:	bd70      	pop	{r4, r5, r6, pc}
 8000604:	f006 4600 	and.w	r6, r6, #2147483648	@ 0x80000000
 8000608:	ea46 0101 	orr.w	r1, r6, r1
 800060c:	ea40 0002 	orr.w	r0, r0, r2
 8000610:	ea81 0103 	eor.w	r1, r1, r3
 8000614:	ebb4 045c 	subs.w	r4, r4, ip, lsr #1
 8000618:	bfc2      	ittt	gt
 800061a:	ebd4 050c 	rsbsgt	r5, r4, ip
 800061e:	ea41 5104 	orrgt.w	r1, r1, r4, lsl #20
 8000622:	bd70      	popgt	{r4, r5, r6, pc}
 8000624:	f441 1180 	orr.w	r1, r1, #1048576	@ 0x100000
 8000628:	f04f 0e00 	mov.w	lr, #0
 800062c:	3c01      	subs	r4, #1
 800062e:	f300 80ab 	bgt.w	8000788 <__aeabi_dmul+0x238>
 8000632:	f114 0f36 	cmn.w	r4, #54	@ 0x36
 8000636:	bfde      	ittt	le
 8000638:	2000      	movle	r0, #0
 800063a:	f001 4100 	andle.w	r1, r1, #2147483648	@ 0x80000000
 800063e:	bd70      	pople	{r4, r5, r6, pc}
 8000640:	f1c4 0400 	rsb	r4, r4, #0
 8000644:	3c20      	subs	r4, #32
 8000646:	da35      	bge.n	80006b4 <__aeabi_dmul+0x164>
 8000648:	340c      	adds	r4, #12
 800064a:	dc1b      	bgt.n	8000684 <__aeabi_dmul+0x134>
 800064c:	f104 0414 	add.w	r4, r4, #20
 8000650:	f1c4 0520 	rsb	r5, r4, #32
 8000654:	fa00 f305 	lsl.w	r3, r0, r5
 8000658:	fa20 f004 	lsr.w	r0, r0, r4
 800065c:	fa01 f205 	lsl.w	r2, r1, r5
 8000660:	ea40 0002 	orr.w	r0, r0, r2
 8000664:	f001 4200 	and.w	r2, r1, #2147483648	@ 0x80000000
 8000668:	f021 4100 	bic.w	r1, r1, #2147483648	@ 0x80000000
 800066c:	eb10 70d3 	adds.w	r0, r0, r3, lsr #31
 8000670:	fa21 f604 	lsr.w	r6, r1, r4
 8000674:	eb42 0106 	adc.w	r1, r2, r6
 8000678:	ea5e 0e43 	orrs.w	lr, lr, r3, lsl #1
 800067c:	bf08      	it	eq
 800067e:	ea20 70d3 	biceq.w	r0, r0, r3, lsr #31
 8000682:	bd70      	pop	{r4, r5, r6, pc}
 8000684:	f1c4 040c 	rsb	r4, r4, #12
 8000688:	f1c4 0520 	rsb	r5, r4, #32
 800068c:	fa00 f304 	lsl.w	r3, r0, r4
 8000690:	fa20 f005 	lsr.w	r0, r0, r5
 8000694:	fa01 f204 	lsl.w	r2, r1, r4
 8000698:	ea40 0002 	orr.w	r0, r0, r2
 800069c:	f001 4100 	and.w	r1, r1, #2147483648	@ 0x80000000
 80006a0:	eb10 70d3 	adds.w	r0, r0, r3, lsr #31
 80006a4:	f141 0100 	adc.w	r1, r1, #0
 80006a8:	ea5e 0e43 	orrs.w	lr, lr, r3, lsl #1
 80006ac:	bf08      	it	eq
 80006ae:	ea20 70d3 	biceq.w	r0, r0, r3, lsr #31
 80006b2:	bd70      	pop	{r4, r5, r6, pc}
 80006b4:	f1c4 0520 	rsb	r5, r4, #32
 80006b8:	fa00 f205 	lsl.w	r2, r0, r5
 80006bc:	ea4e 0e02 	orr.w	lr, lr, r2
 80006c0:	fa20 f304 	lsr.w	r3, r0, r4
 80006c4:	fa01 f205 	lsl.w	r2, r1, r5
 80006c8:	ea43 0302 	orr.w	r3, r3, r2
 80006cc:	fa21 f004 	lsr.w	r0, r1, r4
 80006d0:	f001 4100 	and.w	r1, r1, #2147483648	@ 0x80000000
 80006d4:	fa21 f204 	lsr.w	r2, r1, r4
 80006d8:	ea20 0002 	bic.w	r0, r0, r2
 80006dc:	eb00 70d3 	add.w	r0, r0, r3, lsr #31
 80006e0:	ea5e 0e43 	orrs.w	lr, lr, r3, lsl #1
 80006e4:	bf08      	it	eq
 80006e6:	ea20 70d3 	biceq.w	r0, r0, r3, lsr #31
 80006ea:	bd70      	pop	{r4, r5, r6, pc}
 80006ec:	f094 0f00 	teq	r4, #0
 80006f0:	d10f      	bne.n	8000712 <__aeabi_dmul+0x1c2>
 80006f2:	f001 4600 	and.w	r6, r1, #2147483648	@ 0x80000000
 80006f6:	0040      	lsls	r0, r0, #1
 80006f8:	eb41 0101 	adc.w	r1, r1, r1
 80006fc:	f411 1f80 	tst.w	r1, #1048576	@ 0x100000
 8000700:	bf08      	it	eq
 8000702:	3c01      	subeq	r4, #1
 8000704:	d0f7      	beq.n	80006f6 <__aeabi_dmul+0x1a6>
 8000706:	ea41 0106 	orr.w	r1, r1, r6
 800070a:	f095 0f00 	teq	r5, #0
 800070e:	bf18      	it	ne
 8000710:	4770      	bxne	lr
 8000712:	f003 4600 	and.w	r6, r3, #2147483648	@ 0x80000000
 8000716:	0052      	lsls	r2, r2, #1
 8000718:	eb43 0303 	adc.w	r3, r3, r3
 800071c:	f413 1f80 	tst.w	r3, #1048576	@ 0x100000
 8000720:	bf08      	it	eq
 8000722:	3d01      	subeq	r5, #1
 8000724:	d0f7      	beq.n	8000716 <__aeabi_dmul+0x1c6>
 8000726:	ea43 0306 	orr.w	r3, r3, r6
 800072a:	4770      	bx	lr
 800072c:	ea94 0f0c 	teq	r4, ip
 8000730:	ea0c 5513 	and.w	r5, ip, r3, lsr #20
 8000734:	bf18      	it	ne
 8000736:	ea95 0f0c 	teqne	r5, ip
 800073a:	d00c      	beq.n	8000756 <__aeabi_dmul+0x206>
 800073c:	ea50 0641 	orrs.w	r6, r0, r1, lsl #1
 8000740:	bf18      	it	ne
 8000742:	ea52 0643 	orrsne.w	r6, r2, r3, lsl #1
 8000746:	d1d1      	bne.n	80006ec <__aeabi_dmul+0x19c>
 8000748:	ea81 0103 	eor.w	r1, r1, r3
 800074c:	f001 4100 	and.w	r1, r1, #2147483648	@ 0x80000000
 8000750:	f04f 0000 	mov.w	r0, #0
 8000754:	bd70      	pop	{r4, r5, r6, pc}
 8000756:	ea50 0641 	orrs.w	r6, r0, r1, lsl #1
 800075a:	bf06      	itte	eq
 800075c:	4610      	moveq	r0, r2
 800075e:	4619      	moveq	r1, r3
 8000760:	ea52 0643 	orrsne.w	r6, r2, r3, lsl #1
 8000764:	d019      	beq.n	800079a <__aeabi_dmul+0x24a>
 8000766:	ea94 0f0c 	teq	r4, ip
 800076a:	d102      	bne.n	8000772 <__aeabi_dmul+0x222>
 800076c:	ea50 3601 	orrs.w	r6, r0, r1, lsl #12
 8000770:	d113      	bne.n	800079a <__aeabi_dmul+0x24a>
 8000772:	ea95 0f0c 	teq	r5, ip
 8000776:	d105      	bne.n	8000784 <__aeabi_dmul+0x234>
 8000778:	ea52 3603 	orrs.w	r6, r2, r3, lsl #12
 800077c:	bf1c      	itt	ne
 800077e:	4610      	movne	r0, r2
 8000780:	4619      	movne	r1, r3
 8000782:	d10a      	bne.n	800079a <__aeabi_dmul+0x24a>
 8000784:	ea81 0103 	eor.w	r1, r1, r3
 8000788:	f001 4100 	and.w	r1, r1, #2147483648	@ 0x80000000
 800078c:	f041 41fe 	orr.w	r1, r1, #2130706432	@ 0x7f000000
 8000790:	f441 0170 	orr.w	r1, r1, #15728640	@ 0xf00000
 8000794:	f04f 0000 	mov.w	r0, #0
 8000798:	bd70      	pop	{r4, r5, r6, pc}
 800079a:	f041 41fe 	orr.w	r1, r1, #2130706432	@ 0x7f000000
 800079e:	f441 0178 	orr.w	r1, r1, #16252928	@ 0xf80000
 80007a2:	bd70      	pop	{r4, r5, r6, pc}

080007a4 <__aeabi_ddiv>:
 80007a4:	b570      	push	{r4, r5, r6, lr}
 80007a6:	f04f 0cff 	mov.w	ip, #255	@ 0xff
 80007aa:	f44c 6ce0 	orr.w	ip, ip, #1792	@ 0x700
 80007ae:	ea1c 5411 	ands.w	r4, ip, r1, lsr #20
 80007b2:	bf1d      	ittte	ne
 80007b4:	ea1c 5513 	andsne.w	r5, ip, r3, lsr #20
 80007b8:	ea94 0f0c 	teqne	r4, ip
 80007bc:	ea95 0f0c 	teqne	r5, ip
 80007c0:	f000 f8a7 	bleq	8000912 <__aeabi_ddiv+0x16e>
 80007c4:	eba4 0405 	sub.w	r4, r4, r5
 80007c8:	ea81 0e03 	eor.w	lr, r1, r3
 80007cc:	ea52 3503 	orrs.w	r5, r2, r3, lsl #12
 80007d0:	ea4f 3101 	mov.w	r1, r1, lsl #12
 80007d4:	f000 8088 	beq.w	80008e8 <__aeabi_ddiv+0x144>
 80007d8:	ea4f 3303 	mov.w	r3, r3, lsl #12
 80007dc:	f04f 5580 	mov.w	r5, #268435456	@ 0x10000000
 80007e0:	ea45 1313 	orr.w	r3, r5, r3, lsr #4
 80007e4:	ea43 6312 	orr.w	r3, r3, r2, lsr #24
 80007e8:	ea4f 2202 	mov.w	r2, r2, lsl #8
 80007ec:	ea45 1511 	orr.w	r5, r5, r1, lsr #4
 80007f0:	ea45 6510 	orr.w	r5, r5, r0, lsr #24
 80007f4:	ea4f 2600 	mov.w	r6, r0, lsl #8
 80007f8:	f00e 4100 	and.w	r1, lr, #2147483648	@ 0x80000000
 80007fc:	429d      	cmp	r5, r3
 80007fe:	bf08      	it	eq
 8000800:	4296      	cmpeq	r6, r2
 8000802:	f144 04fd 	adc.w	r4, r4, #253	@ 0xfd
 8000806:	f504 7440 	add.w	r4, r4, #768	@ 0x300
 800080a:	d202      	bcs.n	8000812 <__aeabi_ddiv+0x6e>
 800080c:	085b      	lsrs	r3, r3, #1
 800080e:	ea4f 0232 	mov.w	r2, r2, rrx
 8000812:	1ab6      	subs	r6, r6, r2
 8000814:	eb65 0503 	sbc.w	r5, r5, r3
 8000818:	085b      	lsrs	r3, r3, #1
 800081a:	ea4f 0232 	mov.w	r2, r2, rrx
 800081e:	f44f 1080 	mov.w	r0, #1048576	@ 0x100000
 8000822:	f44f 2c00 	mov.w	ip, #524288	@ 0x80000
 8000826:	ebb6 0e02 	subs.w	lr, r6, r2
 800082a:	eb75 0e03 	sbcs.w	lr, r5, r3
 800082e:	bf22      	ittt	cs
 8000830:	1ab6      	subcs	r6, r6, r2
 8000832:	4675      	movcs	r5, lr
 8000834:	ea40 000c 	orrcs.w	r0, r0, ip
 8000838:	085b      	lsrs	r3, r3, #1
 800083a:	ea4f 0232 	mov.w	r2, r2, rrx
 800083e:	ebb6 0e02 	subs.w	lr, r6, r2
 8000842:	eb75 0e03 	sbcs.w	lr, r5, r3
 8000846:	bf22      	ittt	cs
 8000848:	1ab6      	subcs	r6, r6, r2
 800084a:	4675      	movcs	r5, lr
 800084c:	ea40 005c 	orrcs.w	r0, r0, ip, lsr #1
 8000850:	085b      	lsrs	r3, r3, #1
 8000852:	ea4f 0232 	mov.w	r2, r2, rrx
 8000856:	ebb6 0e02 	subs.w	lr, r6, r2
 800085a:	eb75 0e03 	sbcs.w	lr, r5, r3
 800085e:	bf22      	ittt	cs
 8000860:	1ab6      	subcs	r6, r6, r2
 8000862:	4675      	movcs	r5, lr
 8000864:	ea40 009c 	orrcs.w	r0, r0, ip, lsr #2
 8000868:	085b      	lsrs	r3, r3, #1
 800086a:	ea4f 0232 	mov.w	r2, r2, rrx
 800086e:	ebb6 0e02 	subs.w	lr, r6, r2
 8000872:	eb75 0e03 	sbcs.w	lr, r5, r3
 8000876:	bf22      	ittt	cs
 8000878:	1ab6      	subcs	r6, r6, r2
 800087a:	4675      	movcs	r5, lr
 800087c:	ea40 00dc 	orrcs.w	r0, r0, ip, lsr #3
 8000880:	ea55 0e06 	orrs.w	lr, r5, r6
 8000884:	d018      	beq.n	80008b8 <__aeabi_ddiv+0x114>
 8000886:	ea4f 1505 	mov.w	r5, r5, lsl #4
 800088a:	ea45 7516 	orr.w	r5, r5, r6, lsr #28
 800088e:	ea4f 1606 	mov.w	r6, r6, lsl #4
 8000892:	ea4f 03c3 	mov.w	r3, r3, lsl #3
 8000896:	ea43 7352 	orr.w	r3, r3, r2, lsr #29
 800089a:	ea4f 02c2 	mov.w	r2, r2, lsl #3
 800089e:	ea5f 1c1c 	movs.w	ip, ip, lsr #4
 80008a2:	d1c0      	bne.n	8000826 <__aeabi_ddiv+0x82>
 80008a4:	f411 1f80 	tst.w	r1, #1048576	@ 0x100000
 80008a8:	d10b      	bne.n	80008c2 <__aeabi_ddiv+0x11e>
 80008aa:	ea41 0100 	orr.w	r1, r1, r0
 80008ae:	f04f 0000 	mov.w	r0, #0
 80008b2:	f04f 4c00 	mov.w	ip, #2147483648	@ 0x80000000
 80008b6:	e7b6      	b.n	8000826 <__aeabi_ddiv+0x82>
 80008b8:	f411 1f80 	tst.w	r1, #1048576	@ 0x100000
 80008bc:	bf04      	itt	eq
 80008be:	4301      	orreq	r1, r0
 80008c0:	2000      	moveq	r0, #0
 80008c2:	f1b4 0cfd 	subs.w	ip, r4, #253	@ 0xfd
 80008c6:	bf88      	it	hi
 80008c8:	f5bc 6fe0 	cmphi.w	ip, #1792	@ 0x700
 80008cc:	f63f aeaf 	bhi.w	800062e <__aeabi_dmul+0xde>
 80008d0:	ebb5 0c03 	subs.w	ip, r5, r3
 80008d4:	bf04      	itt	eq
 80008d6:	ebb6 0c02 	subseq.w	ip, r6, r2
 80008da:	ea5f 0c50 	movseq.w	ip, r0, lsr #1
 80008de:	f150 0000 	adcs.w	r0, r0, #0
 80008e2:	eb41 5104 	adc.w	r1, r1, r4, lsl #20
 80008e6:	bd70      	pop	{r4, r5, r6, pc}
 80008e8:	f00e 4e00 	and.w	lr, lr, #2147483648	@ 0x80000000
 80008ec:	ea4e 3111 	orr.w	r1, lr, r1, lsr #12
 80008f0:	eb14 045c 	adds.w	r4, r4, ip, lsr #1
 80008f4:	bfc2      	ittt	gt
 80008f6:	ebd4 050c 	rsbsgt	r5, r4, ip
 80008fa:	ea41 5104 	orrgt.w	r1, r1, r4, lsl #20
 80008fe:	bd70      	popgt	{r4, r5, r6, pc}
 8000900:	f441 1180 	orr.w	r1, r1, #1048576	@ 0x100000
 8000904:	f04f 0e00 	mov.w	lr, #0
 8000908:	3c01      	subs	r4, #1
 800090a:	e690      	b.n	800062e <__aeabi_dmul+0xde>
 800090c:	ea45 0e06 	orr.w	lr, r5, r6
 8000910:	e68d      	b.n	800062e <__aeabi_dmul+0xde>
 8000912:	ea0c 5513 	and.w	r5, ip, r3, lsr #20
 8000916:	ea94 0f0c 	teq	r4, ip
 800091a:	bf08      	it	eq
 800091c:	ea95 0f0c 	teqeq	r5, ip
 8000920:	f43f af3b 	beq.w	800079a <__aeabi_dmul+0x24a>
 8000924:	ea94 0f0c 	teq	r4, ip
 8000928:	d10a      	bne.n	8000940 <__aeabi_ddiv+0x19c>
 800092a:	ea50 3401 	orrs.w	r4, r0, r1, lsl #12
 800092e:	f47f af34 	bne.w	800079a <__aeabi_dmul+0x24a>
 8000932:	ea95 0f0c 	teq	r5, ip
 8000936:	f47f af25 	bne.w	8000784 <__aeabi_dmul+0x234>
 800093a:	4610      	mov	r0, r2
 800093c:	4619      	mov	r1, r3
 800093e:	e72c      	b.n	800079a <__aeabi_dmul+0x24a>
 8000940:	ea95 0f0c 	teq	r5, ip
 8000944:	d106      	bne.n	8000954 <__aeabi_ddiv+0x1b0>
 8000946:	ea52 3503 	orrs.w	r5, r2, r3, lsl #12
 800094a:	f43f aefd 	beq.w	8000748 <__aeabi_dmul+0x1f8>
 800094e:	4610      	mov	r0, r2
 8000950:	4619      	mov	r1, r3
 8000952:	e722      	b.n	800079a <__aeabi_dmul+0x24a>
 8000954:	ea50 0641 	orrs.w	r6, r0, r1, lsl #1
 8000958:	bf18      	it	ne
 800095a:	ea52 0643 	orrsne.w	r6, r2, r3, lsl #1
 800095e:	f47f aec5 	bne.w	80006ec <__aeabi_dmul+0x19c>
 8000962:	ea50 0441 	orrs.w	r4, r0, r1, lsl #1
 8000966:	f47f af0d 	bne.w	8000784 <__aeabi_dmul+0x234>
 800096a:	ea52 0543 	orrs.w	r5, r2, r3, lsl #1
 800096e:	f47f aeeb 	bne.w	8000748 <__aeabi_dmul+0x1f8>
 8000972:	e712      	b.n	800079a <__aeabi_dmul+0x24a>

08000974 <__gedf2>:
 8000974:	f04f 3cff 	mov.w	ip, #4294967295
 8000978:	e006      	b.n	8000988 <__cmpdf2+0x4>
 800097a:	bf00      	nop

0800097c <__ledf2>:
 800097c:	f04f 0c01 	mov.w	ip, #1
 8000980:	e002      	b.n	8000988 <__cmpdf2+0x4>
 8000982:	bf00      	nop

08000984 <__cmpdf2>:
 8000984:	f04f 0c01 	mov.w	ip, #1
 8000988:	f84d cd04 	str.w	ip, [sp, #-4]!
 800098c:	ea4f 0c41 	mov.w	ip, r1, lsl #1
 8000990:	ea7f 5c6c 	mvns.w	ip, ip, asr #21
 8000994:	ea4f 0c43 	mov.w	ip, r3, lsl #1
 8000998:	bf18      	it	ne
 800099a:	ea7f 5c6c 	mvnsne.w	ip, ip, asr #21
 800099e:	d01b      	beq.n	80009d8 <__cmpdf2+0x54>
 80009a0:	b001      	add	sp, #4
 80009a2:	ea50 0c41 	orrs.w	ip, r0, r1, lsl #1
 80009a6:	bf0c      	ite	eq
 80009a8:	ea52 0c43 	orrseq.w	ip, r2, r3, lsl #1
 80009ac:	ea91 0f03 	teqne	r1, r3
 80009b0:	bf02      	ittt	eq
 80009b2:	ea90 0f02 	teqeq	r0, r2
 80009b6:	2000      	moveq	r0, #0
 80009b8:	4770      	bxeq	lr
 80009ba:	f110 0f00 	cmn.w	r0, #0
 80009be:	ea91 0f03 	teq	r1, r3
 80009c2:	bf58      	it	pl
 80009c4:	4299      	cmppl	r1, r3
 80009c6:	bf08      	it	eq
 80009c8:	4290      	cmpeq	r0, r2
 80009ca:	bf2c      	ite	cs
 80009cc:	17d8      	asrcs	r0, r3, #31
 80009ce:	ea6f 70e3 	mvncc.w	r0, r3, asr #31
 80009d2:	f040 0001 	orr.w	r0, r0, #1
 80009d6:	4770      	bx	lr
 80009d8:	ea4f 0c41 	mov.w	ip, r1, lsl #1
 80009dc:	ea7f 5c6c 	mvns.w	ip, ip, asr #21
 80009e0:	d102      	bne.n	80009e8 <__cmpdf2+0x64>
 80009e2:	ea50 3c01 	orrs.w	ip, r0, r1, lsl #12
 80009e6:	d107      	bne.n	80009f8 <__cmpdf2+0x74>
 80009e8:	ea4f 0c43 	mov.w	ip, r3, lsl #1
 80009ec:	ea7f 5c6c 	mvns.w	ip, ip, asr #21
 80009f0:	d1d6      	bne.n	80009a0 <__cmpdf2+0x1c>
 80009f2:	ea52 3c03 	orrs.w	ip, r2, r3, lsl #12
 80009f6:	d0d3      	beq.n	80009a0 <__cmpdf2+0x1c>
 80009f8:	f85d 0b04 	ldr.w	r0, [sp], #4
 80009fc:	4770      	bx	lr
 80009fe:	bf00      	nop

08000a00 <__aeabi_cdrcmple>:
 8000a00:	4684      	mov	ip, r0
 8000a02:	4610      	mov	r0, r2
 8000a04:	4662      	mov	r2, ip
 8000a06:	468c      	mov	ip, r1
 8000a08:	4619      	mov	r1, r3
 8000a0a:	4663      	mov	r3, ip
 8000a0c:	e000      	b.n	8000a10 <__aeabi_cdcmpeq>
 8000a0e:	bf00      	nop

08000a10 <__aeabi_cdcmpeq>:
 8000a10:	b501      	push	{r0, lr}
 8000a12:	f7ff ffb7 	bl	8000984 <__cmpdf2>
 8000a16:	2800      	cmp	r0, #0
 8000a18:	bf48      	it	mi
 8000a1a:	f110 0f00 	cmnmi.w	r0, #0
 8000a1e:	bd01      	pop	{r0, pc}

08000a20 <__aeabi_dcmpeq>:
 8000a20:	f84d ed08 	str.w	lr, [sp, #-8]!
 8000a24:	f7ff fff4 	bl	8000a10 <__aeabi_cdcmpeq>
 8000a28:	bf0c      	ite	eq
 8000a2a:	2001      	moveq	r0, #1
 8000a2c:	2000      	movne	r0, #0
 8000a2e:	f85d fb08 	ldr.w	pc, [sp], #8
 8000a32:	bf00      	nop

08000a34 <__aeabi_dcmplt>:
 8000a34:	f84d ed08 	str.w	lr, [sp, #-8]!
 8000a38:	f7ff ffea 	bl	8000a10 <__aeabi_cdcmpeq>
 8000a3c:	bf34      	ite	cc
 8000a3e:	2001      	movcc	r0, #1
 8000a40:	2000      	movcs	r0, #0
 8000a42:	f85d fb08 	ldr.w	pc, [sp], #8
 8000a46:	bf00      	nop

08000a48 <__aeabi_dcmple>:
 8000a48:	f84d ed08 	str.w	lr, [sp, #-8]!
 8000a4c:	f7ff ffe0 	bl	8000a10 <__aeabi_cdcmpeq>
 8000a50:	bf94      	ite	ls
 8000a52:	2001      	movls	r0, #1
 8000a54:	2000      	movhi	r0, #0
 8000a56:	f85d fb08 	ldr.w	pc, [sp], #8
 8000a5a:	bf00      	nop

08000a5c <__aeabi_dcmpge>:
 8000a5c:	f84d ed08 	str.w	lr, [sp, #-8]!
 8000a60:	f7ff ffce 	bl	8000a00 <__aeabi_cdrcmple>
 8000a64:	bf94      	ite	ls
 8000a66:	2001      	movls	r0, #1
 8000a68:	2000      	movhi	r0, #0
 8000a6a:	f85d fb08 	ldr.w	pc, [sp], #8
 8000a6e:	bf00      	nop

08000a70 <__aeabi_dcmpgt>:
 8000a70:	f84d ed08 	str.w	lr, [sp, #-8]!
 8000a74:	f7ff ffc4 	bl	8000a00 <__aeabi_cdrcmple>
 8000a78:	bf34      	ite	cc
 8000a7a:	2001      	movcc	r0, #1
 8000a7c:	2000      	movcs	r0, #0
 8000a7e:	f85d fb08 	ldr.w	pc, [sp], #8
 8000a82:	bf00      	nop

08000a84 <__aeabi_d2iz>:
 8000a84:	ea4f 0241 	mov.w	r2, r1, lsl #1
 8000a88:	f512 1200 	adds.w	r2, r2, #2097152	@ 0x200000
 8000a8c:	d215      	bcs.n	8000aba <__aeabi_d2iz+0x36>
 8000a8e:	d511      	bpl.n	8000ab4 <__aeabi_d2iz+0x30>
 8000a90:	f46f 7378 	mvn.w	r3, #992	@ 0x3e0
 8000a94:	ebb3 5262 	subs.w	r2, r3, r2, asr #21
 8000a98:	d912      	bls.n	8000ac0 <__aeabi_d2iz+0x3c>
 8000a9a:	ea4f 23c1 	mov.w	r3, r1, lsl #11
 8000a9e:	f043 4300 	orr.w	r3, r3, #2147483648	@ 0x80000000
 8000aa2:	ea43 5350 	orr.w	r3, r3, r0, lsr #21
 8000aa6:	f011 4f00 	tst.w	r1, #2147483648	@ 0x80000000
 8000aaa:	fa23 f002 	lsr.w	r0, r3, r2
 8000aae:	bf18      	it	ne
 8000ab0:	4240      	negne	r0, r0
 8000ab2:	4770      	bx	lr
 8000ab4:	f04f 0000 	mov.w	r0, #0
 8000ab8:	4770      	bx	lr
 8000aba:	ea50 3001 	orrs.w	r0, r0, r1, lsl #12
 8000abe:	d105      	bne.n	8000acc <__aeabi_d2iz+0x48>
 8000ac0:	f011 4000 	ands.w	r0, r1, #2147483648	@ 0x80000000
 8000ac4:	bf08      	it	eq
 8000ac6:	f06f 4000 	mvneq.w	r0, #2147483648	@ 0x80000000
 8000aca:	4770      	bx	lr
 8000acc:	f04f 0000 	mov.w	r0, #0
 8000ad0:	4770      	bx	lr
 8000ad2:	bf00      	nop

08000ad4 <__aeabi_d2uiz>:
 8000ad4:	004a      	lsls	r2, r1, #1
 8000ad6:	d211      	bcs.n	8000afc <__aeabi_d2uiz+0x28>
 8000ad8:	f512 1200 	adds.w	r2, r2, #2097152	@ 0x200000
 8000adc:	d211      	bcs.n	8000b02 <__aeabi_d2uiz+0x2e>
 8000ade:	d50d      	bpl.n	8000afc <__aeabi_d2uiz+0x28>
 8000ae0:	f46f 7378 	mvn.w	r3, #992	@ 0x3e0
 8000ae4:	ebb3 5262 	subs.w	r2, r3, r2, asr #21
 8000ae8:	d40e      	bmi.n	8000b08 <__aeabi_d2uiz+0x34>
 8000aea:	ea4f 23c1 	mov.w	r3, r1, lsl #11
 8000aee:	f043 4300 	orr.w	r3, r3, #2147483648	@ 0x80000000
 8000af2:	ea43 5350 	orr.w	r3, r3, r0, lsr #21
 8000af6:	fa23 f002 	lsr.w	r0, r3, r2
 8000afa:	4770      	bx	lr
 8000afc:	f04f 0000 	mov.w	r0, #0
 8000b00:	4770      	bx	lr
 8000b02:	ea50 3001 	orrs.w	r0, r0, r1, lsl #12
 8000b06:	d102      	bne.n	8000b0e <__aeabi_d2uiz+0x3a>
 8000b08:	f04f 30ff 	mov.w	r0, #4294967295
 8000b0c:	4770      	bx	lr
 8000b0e:	f04f 0000 	mov.w	r0, #0
 8000b12:	4770      	bx	lr

08000b14 <__aeabi_d2f>:
 8000b14:	ea4f 0241 	mov.w	r2, r1, lsl #1
 8000b18:	f1b2 43e0 	subs.w	r3, r2, #1879048192	@ 0x70000000
 8000b1c:	bf24      	itt	cs
 8000b1e:	f5b3 1c00 	subscs.w	ip, r3, #2097152	@ 0x200000
 8000b22:	f1dc 5cfe 	rsbscs	ip, ip, #532676608	@ 0x1fc00000
 8000b26:	d90d      	bls.n	8000b44 <__aeabi_d2f+0x30>
 8000b28:	f001 4c00 	and.w	ip, r1, #2147483648	@ 0x80000000
 8000b2c:	ea4f 02c0 	mov.w	r2, r0, lsl #3
 8000b30:	ea4c 7050 	orr.w	r0, ip, r0, lsr #29
 8000b34:	f1b2 4f00 	cmp.w	r2, #2147483648	@ 0x80000000
 8000b38:	eb40 0083 	adc.w	r0, r0, r3, lsl #2
 8000b3c:	bf08      	it	eq
 8000b3e:	f020 0001 	biceq.w	r0, r0, #1
 8000b42:	4770      	bx	lr
 8000b44:	f011 4f80 	tst.w	r1, #1073741824	@ 0x40000000
 8000b48:	d121      	bne.n	8000b8e <__aeabi_d2f+0x7a>
 8000b4a:	f113 7238 	adds.w	r2, r3, #48234496	@ 0x2e00000
 8000b4e:	bfbc      	itt	lt
 8000b50:	f001 4000 	andlt.w	r0, r1, #2147483648	@ 0x80000000
 8000b54:	4770      	bxlt	lr
 8000b56:	f441 1180 	orr.w	r1, r1, #1048576	@ 0x100000
 8000b5a:	ea4f 5252 	mov.w	r2, r2, lsr #21
 8000b5e:	f1c2 0218 	rsb	r2, r2, #24
 8000b62:	f1c2 0c20 	rsb	ip, r2, #32
 8000b66:	fa10 f30c 	lsls.w	r3, r0, ip
 8000b6a:	fa20 f002 	lsr.w	r0, r0, r2
 8000b6e:	bf18      	it	ne
 8000b70:	f040 0001 	orrne.w	r0, r0, #1
 8000b74:	ea4f 23c1 	mov.w	r3, r1, lsl #11
 8000b78:	ea4f 23d3 	mov.w	r3, r3, lsr #11
 8000b7c:	fa03 fc0c 	lsl.w	ip, r3, ip
 8000b80:	ea40 000c 	orr.w	r0, r0, ip
 8000b84:	fa23 f302 	lsr.w	r3, r3, r2
 8000b88:	ea4f 0343 	mov.w	r3, r3, lsl #1
 8000b8c:	e7cc      	b.n	8000b28 <__aeabi_d2f+0x14>
 8000b8e:	ea7f 5362 	mvns.w	r3, r2, asr #21
 8000b92:	d107      	bne.n	8000ba4 <__aeabi_d2f+0x90>
 8000b94:	ea50 3301 	orrs.w	r3, r0, r1, lsl #12
 8000b98:	bf1e      	ittt	ne
 8000b9a:	f04f 40fe 	movne.w	r0, #2130706432	@ 0x7f000000
 8000b9e:	f440 0040 	orrne.w	r0, r0, #12582912	@ 0xc00000
 8000ba2:	4770      	bxne	lr
 8000ba4:	f001 4000 	and.w	r0, r1, #2147483648	@ 0x80000000
 8000ba8:	f040 40fe 	orr.w	r0, r0, #2130706432	@ 0x7f000000
 8000bac:	f440 0000 	orr.w	r0, r0, #8388608	@ 0x800000
 8000bb0:	4770      	bx	lr
 8000bb2:	bf00      	nop

08000bb4 <__aeabi_uldivmod>:
 8000bb4:	b953      	cbnz	r3, 8000bcc <__aeabi_uldivmod+0x18>
 8000bb6:	b94a      	cbnz	r2, 8000bcc <__aeabi_uldivmod+0x18>
 8000bb8:	2900      	cmp	r1, #0
 8000bba:	bf08      	it	eq
 8000bbc:	2800      	cmpeq	r0, #0
 8000bbe:	bf1c      	itt	ne
 8000bc0:	f04f 31ff 	movne.w	r1, #4294967295
 8000bc4:	f04f 30ff 	movne.w	r0, #4294967295
 8000bc8:	f000 b96a 	b.w	8000ea0 <__aeabi_idiv0>
 8000bcc:	f1ad 0c08 	sub.w	ip, sp, #8
 8000bd0:	e96d ce04 	strd	ip, lr, [sp, #-16]!
 8000bd4:	f000 f806 	bl	8000be4 <__udivmoddi4>
 8000bd8:	f8dd e004 	ldr.w	lr, [sp, #4]
 8000bdc:	e9dd 2302 	ldrd	r2, r3, [sp, #8]
 8000be0:	b004      	add	sp, #16
 8000be2:	4770      	bx	lr

08000be4 <__udivmoddi4>:
 8000be4:	e92d 47f0 	stmdb	sp!, {r4, r5, r6, r7, r8, r9, sl, lr}
 8000be8:	9d08      	ldr	r5, [sp, #32]
 8000bea:	460c      	mov	r4, r1
 8000bec:	2b00      	cmp	r3, #0
 8000bee:	d14e      	bne.n	8000c8e <__udivmoddi4+0xaa>
 8000bf0:	4694      	mov	ip, r2
 8000bf2:	458c      	cmp	ip, r1
 8000bf4:	4686      	mov	lr, r0
 8000bf6:	fab2 f282 	clz	r2, r2
 8000bfa:	d962      	bls.n	8000cc2 <__udivmoddi4+0xde>
 8000bfc:	b14a      	cbz	r2, 8000c12 <__udivmoddi4+0x2e>
 8000bfe:	f1c2 0320 	rsb	r3, r2, #32
 8000c02:	4091      	lsls	r1, r2
 8000c04:	fa20 f303 	lsr.w	r3, r0, r3
 8000c08:	fa0c fc02 	lsl.w	ip, ip, r2
 8000c0c:	4319      	orrs	r1, r3
 8000c0e:	fa00 fe02 	lsl.w	lr, r0, r2
 8000c12:	ea4f 471c 	mov.w	r7, ip, lsr #16
 8000c16:	fa1f f68c 	uxth.w	r6, ip
 8000c1a:	fbb1 f4f7 	udiv	r4, r1, r7
 8000c1e:	ea4f 431e 	mov.w	r3, lr, lsr #16
 8000c22:	fb07 1114 	mls	r1, r7, r4, r1
 8000c26:	ea43 4301 	orr.w	r3, r3, r1, lsl #16
 8000c2a:	fb04 f106 	mul.w	r1, r4, r6
 8000c2e:	4299      	cmp	r1, r3
 8000c30:	d90a      	bls.n	8000c48 <__udivmoddi4+0x64>
 8000c32:	eb1c 0303 	adds.w	r3, ip, r3
 8000c36:	f104 30ff 	add.w	r0, r4, #4294967295
 8000c3a:	f080 8112 	bcs.w	8000e62 <__udivmoddi4+0x27e>
 8000c3e:	4299      	cmp	r1, r3
 8000c40:	f240 810f 	bls.w	8000e62 <__udivmoddi4+0x27e>
 8000c44:	3c02      	subs	r4, #2
 8000c46:	4463      	add	r3, ip
 8000c48:	1a59      	subs	r1, r3, r1
 8000c4a:	fa1f f38e 	uxth.w	r3, lr
 8000c4e:	fbb1 f0f7 	udiv	r0, r1, r7
 8000c52:	fb07 1110 	mls	r1, r7, r0, r1
 8000c56:	ea43 4301 	orr.w	r3, r3, r1, lsl #16
 8000c5a:	fb00 f606 	mul.w	r6, r0, r6
 8000c5e:	429e      	cmp	r6, r3
 8000c60:	d90a      	bls.n	8000c78 <__udivmoddi4+0x94>
 8000c62:	eb1c 0303 	adds.w	r3, ip, r3
 8000c66:	f100 31ff 	add.w	r1, r0, #4294967295
 8000c6a:	f080 80fc 	bcs.w	8000e66 <__udivmoddi4+0x282>
 8000c6e:	429e      	cmp	r6, r3
 8000c70:	f240 80f9 	bls.w	8000e66 <__udivmoddi4+0x282>
 8000c74:	4463      	add	r3, ip
 8000c76:	3802      	subs	r0, #2
 8000c78:	1b9b      	subs	r3, r3, r6
 8000c7a:	ea40 4004 	orr.w	r0, r0, r4, lsl #16
 8000c7e:	2100      	movs	r1, #0
 8000c80:	b11d      	cbz	r5, 8000c8a <__udivmoddi4+0xa6>
 8000c82:	40d3      	lsrs	r3, r2
 8000c84:	2200      	movs	r2, #0
 8000c86:	e9c5 3200 	strd	r3, r2, [r5]
 8000c8a:	e8bd 87f0 	ldmia.w	sp!, {r4, r5, r6, r7, r8, r9, sl, pc}
 8000c8e:	428b      	cmp	r3, r1
 8000c90:	d905      	bls.n	8000c9e <__udivmoddi4+0xba>
 8000c92:	b10d      	cbz	r5, 8000c98 <__udivmoddi4+0xb4>
 8000c94:	e9c5 0100 	strd	r0, r1, [r5]
 8000c98:	2100      	movs	r1, #0
 8000c9a:	4608      	mov	r0, r1
 8000c9c:	e7f5      	b.n	8000c8a <__udivmoddi4+0xa6>
 8000c9e:	fab3 f183 	clz	r1, r3
 8000ca2:	2900      	cmp	r1, #0
 8000ca4:	d146      	bne.n	8000d34 <__udivmoddi4+0x150>
 8000ca6:	42a3      	cmp	r3, r4
 8000ca8:	d302      	bcc.n	8000cb0 <__udivmoddi4+0xcc>
 8000caa:	4290      	cmp	r0, r2
 8000cac:	f0c0 80f0 	bcc.w	8000e90 <__udivmoddi4+0x2ac>
 8000cb0:	1a86      	subs	r6, r0, r2
 8000cb2:	eb64 0303 	sbc.w	r3, r4, r3
 8000cb6:	2001      	movs	r0, #1
 8000cb8:	2d00      	cmp	r5, #0
 8000cba:	d0e6      	beq.n	8000c8a <__udivmoddi4+0xa6>
 8000cbc:	e9c5 6300 	strd	r6, r3, [r5]
 8000cc0:	e7e3      	b.n	8000c8a <__udivmoddi4+0xa6>
 8000cc2:	2a00      	cmp	r2, #0
 8000cc4:	f040 8090 	bne.w	8000de8 <__udivmoddi4+0x204>
 8000cc8:	eba1 040c 	sub.w	r4, r1, ip
 8000ccc:	ea4f 481c 	mov.w	r8, ip, lsr #16
 8000cd0:	fa1f f78c 	uxth.w	r7, ip
 8000cd4:	2101      	movs	r1, #1
 8000cd6:	fbb4 f6f8 	udiv	r6, r4, r8
 8000cda:	ea4f 431e 	mov.w	r3, lr, lsr #16
 8000cde:	fb08 4416 	mls	r4, r8, r6, r4
 8000ce2:	ea43 4304 	orr.w	r3, r3, r4, lsl #16
 8000ce6:	fb07 f006 	mul.w	r0, r7, r6
 8000cea:	4298      	cmp	r0, r3
 8000cec:	d908      	bls.n	8000d00 <__udivmoddi4+0x11c>
 8000cee:	eb1c 0303 	adds.w	r3, ip, r3
 8000cf2:	f106 34ff 	add.w	r4, r6, #4294967295
 8000cf6:	d202      	bcs.n	8000cfe <__udivmoddi4+0x11a>
 8000cf8:	4298      	cmp	r0, r3
 8000cfa:	f200 80cd 	bhi.w	8000e98 <__udivmoddi4+0x2b4>
 8000cfe:	4626      	mov	r6, r4
 8000d00:	1a1c      	subs	r4, r3, r0
 8000d02:	fa1f f38e 	uxth.w	r3, lr
 8000d06:	fbb4 f0f8 	udiv	r0, r4, r8
 8000d0a:	fb08 4410 	mls	r4, r8, r0, r4
 8000d0e:	ea43 4304 	orr.w	r3, r3, r4, lsl #16
 8000d12:	fb00 f707 	mul.w	r7, r0, r7
 8000d16:	429f      	cmp	r7, r3
 8000d18:	d908      	bls.n	8000d2c <__udivmoddi4+0x148>
 8000d1a:	eb1c 0303 	adds.w	r3, ip, r3
 8000d1e:	f100 34ff 	add.w	r4, r0, #4294967295
 8000d22:	d202      	bcs.n	8000d2a <__udivmoddi4+0x146>
 8000d24:	429f      	cmp	r7, r3
 8000d26:	f200 80b0 	bhi.w	8000e8a <__udivmoddi4+0x2a6>
 8000d2a:	4620      	mov	r0, r4
 8000d2c:	1bdb      	subs	r3, r3, r7
 8000d2e:	ea40 4006 	orr.w	r0, r0, r6, lsl #16
 8000d32:	e7a5      	b.n	8000c80 <__udivmoddi4+0x9c>
 8000d34:	f1c1 0620 	rsb	r6, r1, #32
 8000d38:	408b      	lsls	r3, r1
 8000d3a:	fa22 f706 	lsr.w	r7, r2, r6
 8000d3e:	431f      	orrs	r7, r3
 8000d40:	fa20 fc06 	lsr.w	ip, r0, r6
 8000d44:	fa04 f301 	lsl.w	r3, r4, r1
 8000d48:	ea43 030c 	orr.w	r3, r3, ip
 8000d4c:	40f4      	lsrs	r4, r6
 8000d4e:	fa00 f801 	lsl.w	r8, r0, r1
 8000d52:	0c38      	lsrs	r0, r7, #16
 8000d54:	ea4f 4913 	mov.w	r9, r3, lsr #16
 8000d58:	fbb4 fef0 	udiv	lr, r4, r0
 8000d5c:	fa1f fc87 	uxth.w	ip, r7
 8000d60:	fb00 441e 	mls	r4, r0, lr, r4
 8000d64:	ea49 4404 	orr.w	r4, r9, r4, lsl #16
 8000d68:	fb0e f90c 	mul.w	r9, lr, ip
 8000d6c:	45a1      	cmp	r9, r4
 8000d6e:	fa02 f201 	lsl.w	r2, r2, r1
 8000d72:	d90a      	bls.n	8000d8a <__udivmoddi4+0x1a6>
 8000d74:	193c      	adds	r4, r7, r4
 8000d76:	f10e 3aff 	add.w	sl, lr, #4294967295
 8000d7a:	f080 8084 	bcs.w	8000e86 <__udivmoddi4+0x2a2>
 8000d7e:	45a1      	cmp	r9, r4
 8000d80:	f240 8081 	bls.w	8000e86 <__udivmoddi4+0x2a2>
 8000d84:	f1ae 0e02 	sub.w	lr, lr, #2
 8000d88:	443c      	add	r4, r7
 8000d8a:	eba4 0409 	sub.w	r4, r4, r9
 8000d8e:	fa1f f983 	uxth.w	r9, r3
 8000d92:	fbb4 f3f0 	udiv	r3, r4, r0
 8000d96:	fb00 4413 	mls	r4, r0, r3, r4
 8000d9a:	ea49 4404 	orr.w	r4, r9, r4, lsl #16
 8000d9e:	fb03 fc0c 	mul.w	ip, r3, ip
 8000da2:	45a4      	cmp	ip, r4
 8000da4:	d907      	bls.n	8000db6 <__udivmoddi4+0x1d2>
 8000da6:	193c      	adds	r4, r7, r4
 8000da8:	f103 30ff 	add.w	r0, r3, #4294967295
 8000dac:	d267      	bcs.n	8000e7e <__udivmoddi4+0x29a>
 8000dae:	45a4      	cmp	ip, r4
 8000db0:	d965      	bls.n	8000e7e <__udivmoddi4+0x29a>
 8000db2:	3b02      	subs	r3, #2
 8000db4:	443c      	add	r4, r7
 8000db6:	ea43 400e 	orr.w	r0, r3, lr, lsl #16
 8000dba:	fba0 9302 	umull	r9, r3, r0, r2
 8000dbe:	eba4 040c 	sub.w	r4, r4, ip
 8000dc2:	429c      	cmp	r4, r3
 8000dc4:	46ce      	mov	lr, r9
 8000dc6:	469c      	mov	ip, r3
 8000dc8:	d351      	bcc.n	8000e6e <__udivmoddi4+0x28a>
 8000dca:	d04e      	beq.n	8000e6a <__udivmoddi4+0x286>
 8000dcc:	b155      	cbz	r5, 8000de4 <__udivmoddi4+0x200>
 8000dce:	ebb8 030e 	subs.w	r3, r8, lr
 8000dd2:	eb64 040c 	sbc.w	r4, r4, ip
 8000dd6:	fa04 f606 	lsl.w	r6, r4, r6
 8000dda:	40cb      	lsrs	r3, r1
 8000ddc:	431e      	orrs	r6, r3
 8000dde:	40cc      	lsrs	r4, r1
 8000de0:	e9c5 6400 	strd	r6, r4, [r5]
 8000de4:	2100      	movs	r1, #0
 8000de6:	e750      	b.n	8000c8a <__udivmoddi4+0xa6>
 8000de8:	f1c2 0320 	rsb	r3, r2, #32
 8000dec:	fa20 f103 	lsr.w	r1, r0, r3
 8000df0:	fa0c fc02 	lsl.w	ip, ip, r2
 8000df4:	fa24 f303 	lsr.w	r3, r4, r3
 8000df8:	4094      	lsls	r4, r2
 8000dfa:	430c      	orrs	r4, r1
 8000dfc:	ea4f 481c 	mov.w	r8, ip, lsr #16
 8000e00:	fa00 fe02 	lsl.w	lr, r0, r2
 8000e04:	fa1f f78c 	uxth.w	r7, ip
 8000e08:	fbb3 f0f8 	udiv	r0, r3, r8
 8000e0c:	fb08 3110 	mls	r1, r8, r0, r3
 8000e10:	0c23      	lsrs	r3, r4, #16
 8000e12:	ea43 4301 	orr.w	r3, r3, r1, lsl #16
 8000e16:	fb00 f107 	mul.w	r1, r0, r7
 8000e1a:	4299      	cmp	r1, r3
 8000e1c:	d908      	bls.n	8000e30 <__udivmoddi4+0x24c>
 8000e1e:	eb1c 0303 	adds.w	r3, ip, r3
 8000e22:	f100 36ff 	add.w	r6, r0, #4294967295
 8000e26:	d22c      	bcs.n	8000e82 <__udivmoddi4+0x29e>
 8000e28:	4299      	cmp	r1, r3
 8000e2a:	d92a      	bls.n	8000e82 <__udivmoddi4+0x29e>
 8000e2c:	3802      	subs	r0, #2
 8000e2e:	4463      	add	r3, ip
 8000e30:	1a5b      	subs	r3, r3, r1
 8000e32:	b2a4      	uxth	r4, r4
 8000e34:	fbb3 f1f8 	udiv	r1, r3, r8
 8000e38:	fb08 3311 	mls	r3, r8, r1, r3
 8000e3c:	ea44 4403 	orr.w	r4, r4, r3, lsl #16
 8000e40:	fb01 f307 	mul.w	r3, r1, r7
 8000e44:	42a3      	cmp	r3, r4
 8000e46:	d908      	bls.n	8000e5a <__udivmoddi4+0x276>
 8000e48:	eb1c 0404 	adds.w	r4, ip, r4
 8000e4c:	f101 36ff 	add.w	r6, r1, #4294967295
 8000e50:	d213      	bcs.n	8000e7a <__udivmoddi4+0x296>
 8000e52:	42a3      	cmp	r3, r4
 8000e54:	d911      	bls.n	8000e7a <__udivmoddi4+0x296>
 8000e56:	3902      	subs	r1, #2
 8000e58:	4464      	add	r4, ip
 8000e5a:	1ae4      	subs	r4, r4, r3
 8000e5c:	ea41 4100 	orr.w	r1, r1, r0, lsl #16
 8000e60:	e739      	b.n	8000cd6 <__udivmoddi4+0xf2>
 8000e62:	4604      	mov	r4, r0
 8000e64:	e6f0      	b.n	8000c48 <__udivmoddi4+0x64>
 8000e66:	4608      	mov	r0, r1
 8000e68:	e706      	b.n	8000c78 <__udivmoddi4+0x94>
 8000e6a:	45c8      	cmp	r8, r9
 8000e6c:	d2ae      	bcs.n	8000dcc <__udivmoddi4+0x1e8>
 8000e6e:	ebb9 0e02 	subs.w	lr, r9, r2
 8000e72:	eb63 0c07 	sbc.w	ip, r3, r7
 8000e76:	3801      	subs	r0, #1
 8000e78:	e7a8      	b.n	8000dcc <__udivmoddi4+0x1e8>
 8000e7a:	4631      	mov	r1, r6
 8000e7c:	e7ed      	b.n	8000e5a <__udivmoddi4+0x276>
 8000e7e:	4603      	mov	r3, r0
 8000e80:	e799      	b.n	8000db6 <__udivmoddi4+0x1d2>
 8000e82:	4630      	mov	r0, r6
 8000e84:	e7d4      	b.n	8000e30 <__udivmoddi4+0x24c>
 8000e86:	46d6      	mov	lr, sl
 8000e88:	e77f      	b.n	8000d8a <__udivmoddi4+0x1a6>
 8000e8a:	4463      	add	r3, ip
 8000e8c:	3802      	subs	r0, #2
 8000e8e:	e74d      	b.n	8000d2c <__udivmoddi4+0x148>
 8000e90:	4606      	mov	r6, r0
 8000e92:	4623      	mov	r3, r4
 8000e94:	4608      	mov	r0, r1
 8000e96:	e70f      	b.n	8000cb8 <__udivmoddi4+0xd4>
 8000e98:	3e02      	subs	r6, #2
 8000e9a:	4463      	add	r3, ip
 8000e9c:	e730      	b.n	8000d00 <__udivmoddi4+0x11c>
 8000e9e:	bf00      	nop

08000ea0 <__aeabi_idiv0>:
 8000ea0:	4770      	bx	lr
 8000ea2:	bf00      	nop

08000ea4 <EMA_LOW_Init>:
#include <stdint.h>

float alpha = 0;
void EMA_LOW_Init(EMA_LOW *filt, float alpha)
{
	filt->out = 0.0f;
 8000ea4:	2300      	movs	r3, #0
 8000ea6:	6003      	str	r3, [r0, #0]
}
 8000ea8:	4770      	bx	lr
 8000eaa:	bf00      	nop

08000eac <EMA_LOW_Update>:

float EMA_LOW_Update(EMA_LOW *filt, uint16_t in)
{
	filt->out = alpha * in + (1-alpha) * filt->out;
 8000eac:	4b09      	ldr	r3, [pc, #36]	@ (8000ed4 <EMA_LOW_Update+0x28>)
 8000eae:	edd0 6a00 	vldr	s13, [r0]
 8000eb2:	ed93 7a00 	vldr	s14, [r3]
 8000eb6:	eeb7 0a00 	vmov.f32	s0, #112	@ 0x3f800000  1.0
 8000eba:	ee30 0a47 	vsub.f32	s0, s0, s14
{
 8000ebe:	ee07 1a90 	vmov	s15, r1
	filt->out = alpha * in + (1-alpha) * filt->out;
 8000ec2:	ee20 0a26 	vmul.f32	s0, s0, s13
 8000ec6:	eef8 7ae7 	vcvt.f32.s32	s15, s15
 8000eca:	eea7 0a87 	vfma.f32	s0, s15, s14
 8000ece:	ed80 0a00 	vstr	s0, [r0]
	return filt->out;
}
 8000ed2:	4770      	bx	lr
 8000ed4:	2000008c 	.word	0x2000008c

08000ed8 <HAL_ADC_ConvCpltCallback>:

/* Private user code ---------------------------------------------------------*/
/* USER CODE BEGIN 0 */
//DMA za citanje analognih ulaza - potenciometri
void HAL_ADC_ConvCpltCallback(ADC_HandleTypeDef* hadc1)
{
 8000ed8:	b4f0      	push	{r4, r5, r6, r7}
	uint16_t ad_rez = 0, ad_rez3 = 0;
	sumAdc = sumAdc + adc1_buf[0];
 8000eda:	4b34      	ldr	r3, [pc, #208]	@ (8000fac <HAL_ADC_ConvCpltCallback+0xd4>)
 8000edc:	4c34      	ldr	r4, [pc, #208]	@ (8000fb0 <HAL_ADC_ConvCpltCallback+0xd8>)
 8000ede:	881a      	ldrh	r2, [r3, #0]
 8000ee0:	6821      	ldr	r1, [r4, #0]
	pot2 = adc1_buf[1];
 8000ee2:	4d34      	ldr	r5, [pc, #208]	@ (8000fb4 <HAL_ADC_ConvCpltCallback+0xdc>)
	pot3 += adc1_buf[2];
	numADCconvert ++;
 8000ee4:	4e34      	ldr	r6, [pc, #208]	@ (8000fb8 <HAL_ADC_ConvCpltCallback+0xe0>)
	pot2 = adc1_buf[1];
 8000ee6:	8858      	ldrh	r0, [r3, #2]
 8000ee8:	6028      	str	r0, [r5, #0]
	sumAdc = sumAdc + adc1_buf[0];
 8000eea:	440a      	add	r2, r1
	pot3 += adc1_buf[2];
 8000eec:	4d33      	ldr	r5, [pc, #204]	@ (8000fbc <HAL_ADC_ConvCpltCallback+0xe4>)
	numADCconvert ++;
 8000eee:	8831      	ldrh	r1, [r6, #0]
	pot3 += adc1_buf[2];
 8000ef0:	682f      	ldr	r7, [r5, #0]
 8000ef2:	889b      	ldrh	r3, [r3, #4]
	sumAdc = sumAdc + adc1_buf[0];
 8000ef4:	6022      	str	r2, [r4, #0]
	numADCconvert ++;
 8000ef6:	3101      	adds	r1, #1
 8000ef8:	b289      	uxth	r1, r1
	pot3 += adc1_buf[2];
 8000efa:	443b      	add	r3, r7
	if (numADCconvert >= 250)
 8000efc:	29f9      	cmp	r1, #249	@ 0xf9
	pot3 += adc1_buf[2];
 8000efe:	602b      	str	r3, [r5, #0]
	if (numADCconvert >= 250)
 8000f00:	d802      	bhi.n	8000f08 <HAL_ADC_ConvCpltCallback+0x30>
	numADCconvert ++;
 8000f02:	8031      	strh	r1, [r6, #0]

		pot2_f = pot2 / 1024.f;
		alpha = ad_rez3 / 1024.f;
		if(alpha == 0) alpha = 0.004f;
	}
}
 8000f04:	bcf0      	pop	{r4, r5, r6, r7}
 8000f06:	4770      	bx	lr
		ad_rez3 = pot3 / 250;
 8000f08:	492d      	ldr	r1, [pc, #180]	@ (8000fc0 <HAL_ADC_ConvCpltCallback+0xe8>)
		if(ADCGain > 0.5) ADCGain = 0.5;
 8000f0a:	ed9f 7a2e 	vldr	s14, [pc, #184]	@ 8000fc4 <HAL_ADC_ConvCpltCallback+0xec>
		ad_rez = sumAdc / 250;
 8000f0e:	fba1 c202 	umull	ip, r2, r1, r2
		ADCGain = ad_rez /1024.0f;
 8000f12:	f3c2 120f 	ubfx	r2, r2, #4, #16
 8000f16:	ee07 2a90 	vmov	s15, r2
 8000f1a:	eef8 7ae7 	vcvt.f32.s32	s15, s15
		ad_rez3 = pot3 / 250;
 8000f1e:	fba1 1303 	umull	r1, r3, r1, r3
		if(ADCGain > 0.5) ADCGain = 0.5;
 8000f22:	eef4 7ac7 	vcmpe.f32	s15, s14
 8000f26:	eef1 fa10 	vmrs	APSR_nzcv, fpscr
		ad_rez3 = pot3 / 250;
 8000f2a:	ea4f 1313 	mov.w	r3, r3, lsr #4
		if(ADCGain > 0.5) ADCGain = 0.5;
 8000f2e:	dc37      	bgt.n	8000fa0 <HAL_ADC_ConvCpltCallback+0xc8>
		ADCGain = ad_rez /1024.0f;
 8000f30:	ed9f 7a25 	vldr	s14, [pc, #148]	@ 8000fc8 <HAL_ADC_ConvCpltCallback+0xf0>
 8000f34:	ee67 7a87 	vmul.f32	s15, s15, s14
 8000f38:	eeb0 7a67 	vmov.f32	s14, s15
		if(ADCGain != prevADCGain){
 8000f3c:	4a23      	ldr	r2, [pc, #140]	@ (8000fcc <HAL_ADC_ConvCpltCallback+0xf4>)
 8000f3e:	edd2 6a00 	vldr	s13, [r2]
		ADCGain = ad_rez /1024.0f;
 8000f42:	4a23      	ldr	r2, [pc, #140]	@ (8000fd0 <HAL_ADC_ConvCpltCallback+0xf8>)
		if(ADCGain != prevADCGain){
 8000f44:	eef4 6a67 	vcmp.f32	s13, s15
		ADCGain = ad_rez /1024.0f;
 8000f48:	ed82 7a00 	vstr	s14, [r2]
		if(ADCGain != prevADCGain){
 8000f4c:	eef1 fa10 	vmrs	APSR_nzcv, fpscr
		numADCconvert = 0;
 8000f50:	f04f 0200 	mov.w	r2, #0
 8000f54:	8032      	strh	r2, [r6, #0]
		sumAdc = 0;
 8000f56:	6022      	str	r2, [r4, #0]
		pot3 = 0;
 8000f58:	602a      	str	r2, [r5, #0]
		if(ADCGain != prevADCGain){
 8000f5a:	d002      	beq.n	8000f62 <HAL_ADC_ConvCpltCallback+0x8a>
			ADCGain_changed_flag = 1;
 8000f5c:	4a1d      	ldr	r2, [pc, #116]	@ (8000fd4 <HAL_ADC_ConvCpltCallback+0xfc>)
 8000f5e:	2101      	movs	r1, #1
 8000f60:	6011      	str	r1, [r2, #0]
		alpha = ad_rez3 / 1024.f;
 8000f62:	b29b      	uxth	r3, r3
 8000f64:	ee07 3a90 	vmov	s15, r3
		pot2_f = pot2 / 1024.f;
 8000f68:	ee07 0a10 	vmov	s14, r0
 8000f6c:	eddf 6a16 	vldr	s13, [pc, #88]	@ 8000fc8 <HAL_ADC_ConvCpltCallback+0xf0>
 8000f70:	4b19      	ldr	r3, [pc, #100]	@ (8000fd8 <HAL_ADC_ConvCpltCallback+0x100>)
		alpha = ad_rez3 / 1024.f;
 8000f72:	eef8 7ae7 	vcvt.f32.s32	s15, s15
		pot2_f = pot2 / 1024.f;
 8000f76:	eeb8 7a47 	vcvt.f32.u32	s14, s14
		alpha = ad_rez3 / 1024.f;
 8000f7a:	ee67 7aa6 	vmul.f32	s15, s15, s13
		pot2_f = pot2 / 1024.f;
 8000f7e:	ee27 7a26 	vmul.f32	s14, s14, s13
		if(alpha == 0) alpha = 0.004f;
 8000f82:	eef5 7a40 	vcmp.f32	s15, #0.0
		pot2_f = pot2 / 1024.f;
 8000f86:	ed83 7a00 	vstr	s14, [r3]
		if(alpha == 0) alpha = 0.004f;
 8000f8a:	eef1 fa10 	vmrs	APSR_nzcv, fpscr
 8000f8e:	4b13      	ldr	r3, [pc, #76]	@ (8000fdc <HAL_ADC_ConvCpltCallback+0x104>)
 8000f90:	bf0c      	ite	eq
 8000f92:	4a13      	ldreq	r2, [pc, #76]	@ (8000fe0 <HAL_ADC_ConvCpltCallback+0x108>)
		alpha = ad_rez3 / 1024.f;
 8000f94:	edc3 7a00 	vstrne	s15, [r3]
}
 8000f98:	bcf0      	pop	{r4, r5, r6, r7}
		if(alpha == 0) alpha = 0.004f;
 8000f9a:	bf08      	it	eq
 8000f9c:	601a      	streq	r2, [r3, #0]
}
 8000f9e:	4770      	bx	lr
 8000fa0:	eeb6 7a00 	vmov.f32	s14, #96	@ 0x3f000000  0.5
 8000fa4:	eef0 7a47 	vmov.f32	s15, s14
 8000fa8:	e7c8      	b.n	8000f3c <HAL_ADC_ConvCpltCallback+0x64>
 8000faa:	bf00      	nop
 8000fac:	20000a7c 	.word	0x20000a7c
 8000fb0:	20000a60 	.word	0x20000a60
 8000fb4:	20000a48 	.word	0x20000a48
 8000fb8:	20000a58 	.word	0x20000a58
 8000fbc:	20000a44 	.word	0x20000a44
 8000fc0:	10624dd3 	.word	0x10624dd3
 8000fc4:	44000000 	.word	0x44000000
 8000fc8:	3a800000 	.word	0x3a800000
 8000fcc:	20000a50 	.word	0x20000a50
 8000fd0:	20000a54 	.word	0x20000a54
 8000fd4:	20000a4c 	.word	0x20000a4c
 8000fd8:	20000a40 	.word	0x20000a40
 8000fdc:	2000008c 	.word	0x2000008c
 8000fe0:	3b83126f 	.word	0x3b83126f
 8000fe4:	00000000 	.word	0x00000000

08000fe8 <HAL_UART_RxCpltCallback>:
	HAL_GPIO_WritePin(GPIOB, GPIO_PIN_2, GPIO_PIN_RESET);
}
////////////////////////////////////////////////////
// MIDI IN obrada
void  HAL_UART_RxCpltCallback(UART_HandleTypeDef* huart1)
{
 8000fe8:	b570      	push	{r4, r5, r6, lr}
#define NOTA_ON 1
#define NOTA_NUM 2
#define NOTA_VELO 3
	char notaStanje = rxBuff[0];  // ON ili OFF
 8000fea:	4b73      	ldr	r3, [pc, #460]	@ (80011b8 <HAL_UART_RxCpltCallback+0x1d0>)
	char nota = rxBuff[1];  // koja tipka u MIDI sustavu
 8000fec:	f8b3 1001 	ldrh.w	r1, [r3, #1]
	char notaStanje = rxBuff[0];  // ON ili OFF
 8000ff0:	781b      	ldrb	r3, [r3, #0]
	char notaVelo = rxBuff[2];  // velocity odnosno glasnoca tona

	//////////////
	if (notaStanje == 0x90)  // nota ON
 8000ff2:	2b90      	cmp	r3, #144	@ 0x90
 8000ff4:	b2ca      	uxtb	r2, r1
 8000ff6:	d01d      	beq.n	8001034 <HAL_UART_RxCpltCallback+0x4c>
				break;
			}
		}
	}  // end if nota == ON

	else if (notaStanje == 0x80)  // nota OFF
 8000ff8:	2b80      	cmp	r3, #128	@ 0x80
 8000ffa:	d000      	beq.n	8000ffe <HAL_UART_RxCpltCallback+0x16>
					voices[i].Ovojnica.released = 1;
				}
			}
		}
	}
}
 8000ffc:	bd70      	pop	{r4, r5, r6, pc}
			if (stanjeTipki[i]== nota )
 8000ffe:	4b6f      	ldr	r3, [pc, #444]	@ (80011bc <HAL_UART_RxCpltCallback+0x1d4>)
 8001000:	4c6f      	ldr	r4, [pc, #444]	@ (80011c0 <HAL_UART_RxCpltCallback+0x1d8>)
 8001002:	7819      	ldrb	r1, [r3, #0]
 8001004:	7820      	ldrb	r0, [r4, #0]
 8001006:	4291      	cmp	r1, r2
 8001008:	f000 80ac 	beq.w	8001164 <HAL_UART_RxCpltCallback+0x17c>
 800100c:	7859      	ldrb	r1, [r3, #1]
 800100e:	4291      	cmp	r1, r2
 8001010:	f000 80b7 	beq.w	8001182 <HAL_UART_RxCpltCallback+0x19a>
 8001014:	7899      	ldrb	r1, [r3, #2]
 8001016:	4291      	cmp	r1, r2
 8001018:	f000 8095 	beq.w	8001146 <HAL_UART_RxCpltCallback+0x15e>
 800101c:	78d9      	ldrb	r1, [r3, #3]
 800101e:	4291      	cmp	r1, r2
 8001020:	f000 8082 	beq.w	8001128 <HAL_UART_RxCpltCallback+0x140>
 8001024:	7919      	ldrb	r1, [r3, #4]
 8001026:	4291      	cmp	r1, r2
 8001028:	d06f      	beq.n	800110a <HAL_UART_RxCpltCallback+0x122>
 800102a:	7959      	ldrb	r1, [r3, #5]
 800102c:	4291      	cmp	r1, r2
 800102e:	d05c      	beq.n	80010ea <HAL_UART_RxCpltCallback+0x102>
		for (int i =0; i <POLYNUM; i++)
 8001030:	7020      	strb	r0, [r4, #0]
}
 8001032:	bd70      	pop	{r4, r5, r6, pc}
			if (stanjeTipki[i]== 0 ) // ako mjesto u polju nije zauzeto
 8001034:	4b61      	ldr	r3, [pc, #388]	@ (80011bc <HAL_UART_RxCpltCallback+0x1d4>)
 8001036:	781c      	ldrb	r4, [r3, #0]
 8001038:	b19c      	cbz	r4, 8001062 <HAL_UART_RxCpltCallback+0x7a>
 800103a:	7858      	ldrb	r0, [r3, #1]
 800103c:	2800      	cmp	r0, #0
 800103e:	f000 80af 	beq.w	80011a0 <HAL_UART_RxCpltCallback+0x1b8>
 8001042:	7898      	ldrb	r0, [r3, #2]
 8001044:	2800      	cmp	r0, #0
 8001046:	f000 80ad 	beq.w	80011a4 <HAL_UART_RxCpltCallback+0x1bc>
 800104a:	78d8      	ldrb	r0, [r3, #3]
 800104c:	2800      	cmp	r0, #0
 800104e:	f000 80ab 	beq.w	80011a8 <HAL_UART_RxCpltCallback+0x1c0>
 8001052:	7918      	ldrb	r0, [r3, #4]
 8001054:	2800      	cmp	r0, #0
 8001056:	f000 80a9 	beq.w	80011ac <HAL_UART_RxCpltCallback+0x1c4>
 800105a:	7958      	ldrb	r0, [r3, #5]
		for (int i =0; i <POLYNUM; i++)
 800105c:	2405      	movs	r4, #5
			if (stanjeTipki[i]== 0 ) // ako mjesto u polju nije zauzeto
 800105e:	2800      	cmp	r0, #0
 8001060:	d1cc      	bne.n	8000ffc <HAL_UART_RxCpltCallback+0x14>
				stanjeTipki[i] = nota;
 8001062:	551a      	strb	r2, [r3, r4]
				voices[i].frekvencija = (440.0f * (pow(2,((voices[i].nota - 69) * 0.0833333f )))) / 2;
 8001064:	3a45      	subs	r2, #69	@ 0x45
 8001066:	ee07 2a90 	vmov	s15, r2
				voices[i].nota = nota;
 800106a:	eb04 1304 	add.w	r3, r4, r4, lsl #4
				brojAktiviranihTipki++;
 800106e:	4a54      	ldr	r2, [pc, #336]	@ (80011c0 <HAL_UART_RxCpltCallback+0x1d8>)
				voices[i].nota = nota;
 8001070:	4e54      	ldr	r6, [pc, #336]	@ (80011c4 <HAL_UART_RxCpltCallback+0x1dc>)
				voices[i].frekvencija = (440.0f * (pow(2,((voices[i].nota - 69) * 0.0833333f )))) / 2;
 8001072:	ed9f 7a55 	vldr	s14, [pc, #340]	@ 80011c8 <HAL_UART_RxCpltCallback+0x1e0>
				voices[i].nota = nota;
 8001076:	f826 1023 	strh.w	r1, [r6, r3, lsl #2]
				voices[i].frekvencija = (440.0f * (pow(2,((voices[i].nota - 69) * 0.0833333f )))) / 2;
 800107a:	eef8 7ae7 	vcvt.f32.s32	s15, s15
				voices[i].nota = nota;
 800107e:	eb06 0683 	add.w	r6, r6, r3, lsl #2
				brojAktiviranihTipki++;
 8001082:	7813      	ldrb	r3, [r2, #0]
				glasnocaTonova[i] = notaVelo;
 8001084:	4851      	ldr	r0, [pc, #324]	@ (80011cc <HAL_UART_RxCpltCallback+0x1e4>)
				voices[i].frekvencija = (440.0f * (pow(2,((voices[i].nota - 69) * 0.0833333f )))) / 2;
 8001086:	ee67 7a87 	vmul.f32	s15, s15, s14
				glasnocaTonova[i] = notaVelo;
 800108a:	f3c1 2507 	ubfx	r5, r1, #8, #8
				brojAktiviranihTipki++;
 800108e:	3301      	adds	r3, #1
				glasnocaTonova[i] = notaVelo;
 8001090:	5505      	strb	r5, [r0, r4]
				brojAktiviranihTipki++;
 8001092:	7013      	strb	r3, [r2, #0]
				voices[i].frekvencija = (440.0f * (pow(2,((voices[i].nota - 69) * 0.0833333f )))) / 2;
 8001094:	ee17 0a90 	vmov	r0, s15
 8001098:	f7ff fa02 	bl	80004a0 <__aeabi_f2d>
 800109c:	a344      	add	r3, pc, #272	@ (adr r3, 80011b0 <HAL_UART_RxCpltCallback+0x1c8>)
 800109e:	e9d3 2300 	ldrd	r2, r3, [r3]
 80010a2:	f7ff fa55 	bl	8000550 <__aeabi_dmul>
 80010a6:	ec41 0b10 	vmov	d0, r0, r1
 80010aa:	f003 fddd 	bl	8004c68 <exp>
 80010ae:	4b48      	ldr	r3, [pc, #288]	@ (80011d0 <HAL_UART_RxCpltCallback+0x1e8>)
 80010b0:	ec51 0b10 	vmov	r0, r1, d0
 80010b4:	2200      	movs	r2, #0
 80010b6:	f7ff fa4b 	bl	8000550 <__aeabi_dmul>
 80010ba:	f7ff fd2b 	bl	8000b14 <__aeabi_d2f>
				voices[i].pomakRadnogPolja_f = TABLE_SIZE * voices[i].frekvencija / SAMPLING_FREQ;
 80010be:	ed9f 7a45 	vldr	s14, [pc, #276]	@ 80011d4 <HAL_UART_RxCpltCallback+0x1ec>
				if ( voices[i].Ovojnica.finished)
 80010c2:	f896 3042 	ldrb.w	r3, [r6, #66]	@ 0x42
				voices[i].frekvencija = (440.0f * (pow(2,((voices[i].nota - 69) * 0.0833333f )))) / 2;
 80010c6:	6070      	str	r0, [r6, #4]
 80010c8:	ee07 0a90 	vmov	s15, r0
				voices[i].pomakRadnogPolja_f = TABLE_SIZE * voices[i].frekvencija / SAMPLING_FREQ;
 80010cc:	ee27 7a87 	vmul.f32	s14, s15, s14
				voices[i].nota = nota;
 80010d0:	0125      	lsls	r5, r4, #4
				voices[i].pomakRadnogPolja_f = TABLE_SIZE * voices[i].frekvencija / SAMPLING_FREQ;
 80010d2:	ed86 7a03 	vstr	s14, [r6, #12]
				if ( voices[i].Ovojnica.finished)
 80010d6:	b10b      	cbz	r3, 80010dc <HAL_UART_RxCpltCallback+0xf4>
					voices[i].accFaze_f = 0;
 80010d8:	2300      	movs	r3, #0
 80010da:	60b3      	str	r3, [r6, #8]
				voices[i].Ovojnica.triggered = 1;
 80010dc:	192b      	adds	r3, r5, r4
 80010de:	009b      	lsls	r3, r3, #2
 80010e0:	4a3d      	ldr	r2, [pc, #244]	@ (80011d8 <HAL_UART_RxCpltCallback+0x1f0>)
 80010e2:	3338      	adds	r3, #56	@ 0x38
 80010e4:	2101      	movs	r1, #1
 80010e6:	52d1      	strh	r1, [r2, r3]
}
 80010e8:	bd70      	pop	{r4, r5, r6, pc}
				if ( voices[i].Ovojnica.finished)
 80010ea:	4936      	ldr	r1, [pc, #216]	@ (80011c4 <HAL_UART_RxCpltCallback+0x1dc>)
 80010ec:	f891 2196 	ldrb.w	r2, [r1, #406]	@ 0x196
 80010f0:	b12a      	cbz	r2, 80010fe <HAL_UART_RxCpltCallback+0x116>
					stanjeTipki[i] = 0;
 80010f2:	2200      	movs	r2, #0
 80010f4:	715a      	strb	r2, [r3, #5]
					glasnocaTonova[i] = 0;
 80010f6:	4b35      	ldr	r3, [pc, #212]	@ (80011cc <HAL_UART_RxCpltCallback+0x1e4>)
					brojAktiviranihTipki--;
 80010f8:	3801      	subs	r0, #1
 80010fa:	b2c0      	uxtb	r0, r0
					glasnocaTonova[i] = 0;
 80010fc:	715a      	strb	r2, [r3, #5]
					voices[i].Ovojnica.triggered = 0;
 80010fe:	f44f 7380 	mov.w	r3, #256	@ 0x100
 8001102:	f8a1 3194 	strh.w	r3, [r1, #404]	@ 0x194
		for (int i =0; i <POLYNUM; i++)
 8001106:	7020      	strb	r0, [r4, #0]
 8001108:	e793      	b.n	8001032 <HAL_UART_RxCpltCallback+0x4a>
				if ( voices[i].Ovojnica.finished)
 800110a:	492e      	ldr	r1, [pc, #184]	@ (80011c4 <HAL_UART_RxCpltCallback+0x1dc>)
 800110c:	f891 5152 	ldrb.w	r5, [r1, #338]	@ 0x152
 8001110:	b12d      	cbz	r5, 800111e <HAL_UART_RxCpltCallback+0x136>
					glasnocaTonova[i] = 0;
 8001112:	4e2e      	ldr	r6, [pc, #184]	@ (80011cc <HAL_UART_RxCpltCallback+0x1e4>)
					stanjeTipki[i] = 0;
 8001114:	2500      	movs	r5, #0
					brojAktiviranihTipki--;
 8001116:	3801      	subs	r0, #1
 8001118:	b2c0      	uxtb	r0, r0
					glasnocaTonova[i] = 0;
 800111a:	7135      	strb	r5, [r6, #4]
					stanjeTipki[i] = 0;
 800111c:	711d      	strb	r5, [r3, #4]
					voices[i].Ovojnica.triggered = 0;
 800111e:	f44f 7580 	mov.w	r5, #256	@ 0x100
 8001122:	f8a1 5150 	strh.w	r5, [r1, #336]	@ 0x150
 8001126:	e780      	b.n	800102a <HAL_UART_RxCpltCallback+0x42>
				if ( voices[i].Ovojnica.finished)
 8001128:	4926      	ldr	r1, [pc, #152]	@ (80011c4 <HAL_UART_RxCpltCallback+0x1dc>)
 800112a:	f891 510e 	ldrb.w	r5, [r1, #270]	@ 0x10e
 800112e:	b12d      	cbz	r5, 800113c <HAL_UART_RxCpltCallback+0x154>
					glasnocaTonova[i] = 0;
 8001130:	4e26      	ldr	r6, [pc, #152]	@ (80011cc <HAL_UART_RxCpltCallback+0x1e4>)
					stanjeTipki[i] = 0;
 8001132:	2500      	movs	r5, #0
					brojAktiviranihTipki--;
 8001134:	3801      	subs	r0, #1
 8001136:	b2c0      	uxtb	r0, r0
					glasnocaTonova[i] = 0;
 8001138:	70f5      	strb	r5, [r6, #3]
					stanjeTipki[i] = 0;
 800113a:	70dd      	strb	r5, [r3, #3]
					voices[i].Ovojnica.triggered = 0;
 800113c:	f44f 7580 	mov.w	r5, #256	@ 0x100
 8001140:	f8a1 510c 	strh.w	r5, [r1, #268]	@ 0x10c
 8001144:	e76e      	b.n	8001024 <HAL_UART_RxCpltCallback+0x3c>
				if ( voices[i].Ovojnica.finished)
 8001146:	491f      	ldr	r1, [pc, #124]	@ (80011c4 <HAL_UART_RxCpltCallback+0x1dc>)
 8001148:	f891 50ca 	ldrb.w	r5, [r1, #202]	@ 0xca
 800114c:	b12d      	cbz	r5, 800115a <HAL_UART_RxCpltCallback+0x172>
					glasnocaTonova[i] = 0;
 800114e:	4e1f      	ldr	r6, [pc, #124]	@ (80011cc <HAL_UART_RxCpltCallback+0x1e4>)
					stanjeTipki[i] = 0;
 8001150:	2500      	movs	r5, #0
					brojAktiviranihTipki--;
 8001152:	3801      	subs	r0, #1
 8001154:	b2c0      	uxtb	r0, r0
					glasnocaTonova[i] = 0;
 8001156:	70b5      	strb	r5, [r6, #2]
					stanjeTipki[i] = 0;
 8001158:	709d      	strb	r5, [r3, #2]
					voices[i].Ovojnica.triggered = 0;
 800115a:	f44f 7580 	mov.w	r5, #256	@ 0x100
 800115e:	f8a1 50c8 	strh.w	r5, [r1, #200]	@ 0xc8
 8001162:	e75b      	b.n	800101c <HAL_UART_RxCpltCallback+0x34>
				if ( voices[i].Ovojnica.finished)
 8001164:	4917      	ldr	r1, [pc, #92]	@ (80011c4 <HAL_UART_RxCpltCallback+0x1dc>)
 8001166:	f891 5042 	ldrb.w	r5, [r1, #66]	@ 0x42
 800116a:	b12d      	cbz	r5, 8001178 <HAL_UART_RxCpltCallback+0x190>
					glasnocaTonova[i] = 0;
 800116c:	4e17      	ldr	r6, [pc, #92]	@ (80011cc <HAL_UART_RxCpltCallback+0x1e4>)
					stanjeTipki[i] = 0;
 800116e:	2500      	movs	r5, #0
					brojAktiviranihTipki--;
 8001170:	3801      	subs	r0, #1
 8001172:	b2c0      	uxtb	r0, r0
					glasnocaTonova[i] = 0;
 8001174:	7035      	strb	r5, [r6, #0]
					stanjeTipki[i] = 0;
 8001176:	701d      	strb	r5, [r3, #0]
					voices[i].Ovojnica.triggered = 0;
 8001178:	f44f 7580 	mov.w	r5, #256	@ 0x100
 800117c:	f8a1 5040 	strh.w	r5, [r1, #64]	@ 0x40
 8001180:	e744      	b.n	800100c <HAL_UART_RxCpltCallback+0x24>
				if ( voices[i].Ovojnica.finished)
 8001182:	4910      	ldr	r1, [pc, #64]	@ (80011c4 <HAL_UART_RxCpltCallback+0x1dc>)
 8001184:	f891 5086 	ldrb.w	r5, [r1, #134]	@ 0x86
 8001188:	b12d      	cbz	r5, 8001196 <HAL_UART_RxCpltCallback+0x1ae>
					glasnocaTonova[i] = 0;
 800118a:	4e10      	ldr	r6, [pc, #64]	@ (80011cc <HAL_UART_RxCpltCallback+0x1e4>)
					stanjeTipki[i] = 0;
 800118c:	2500      	movs	r5, #0
					brojAktiviranihTipki--;
 800118e:	3801      	subs	r0, #1
 8001190:	b2c0      	uxtb	r0, r0
					glasnocaTonova[i] = 0;
 8001192:	7075      	strb	r5, [r6, #1]
					stanjeTipki[i] = 0;
 8001194:	705d      	strb	r5, [r3, #1]
					voices[i].Ovojnica.triggered = 0;
 8001196:	f44f 7580 	mov.w	r5, #256	@ 0x100
 800119a:	f8a1 5084 	strh.w	r5, [r1, #132]	@ 0x84
 800119e:	e739      	b.n	8001014 <HAL_UART_RxCpltCallback+0x2c>
		for (int i =0; i <POLYNUM; i++)
 80011a0:	2401      	movs	r4, #1
 80011a2:	e75e      	b.n	8001062 <HAL_UART_RxCpltCallback+0x7a>
 80011a4:	2402      	movs	r4, #2
 80011a6:	e75c      	b.n	8001062 <HAL_UART_RxCpltCallback+0x7a>
 80011a8:	2403      	movs	r4, #3
 80011aa:	e75a      	b.n	8001062 <HAL_UART_RxCpltCallback+0x7a>
 80011ac:	2404      	movs	r4, #4
 80011ae:	e758      	b.n	8001062 <HAL_UART_RxCpltCallback+0x7a>
 80011b0:	fefa39ef 	.word	0xfefa39ef
 80011b4:	3fe62e42 	.word	0x3fe62e42
 80011b8:	20000a78 	.word	0x20000a78
 80011bc:	20000a70 	.word	0x20000a70
 80011c0:	20000a64 	.word	0x20000a64
 80011c4:	20000090 	.word	0x20000090
 80011c8:	3daaaaa6 	.word	0x3daaaaa6
 80011cc:	20000a68 	.word	0x20000a68
 80011d0:	406b8000 	.word	0x406b8000
 80011d4:	3d3ea672 	.word	0x3d3ea672
 80011d8:	20000098 	.word	0x20000098

080011dc <ArangeSamplesInBuff>:
////////////////////////////////////////////////////

void  ArangeSamplesInBuff(int dioBuffera)
{
 80011dc:	e92d 4ff0 	stmdb	sp!, {r4, r5, r6, r7, r8, r9, sl, fp, lr}
 80011e0:	ed2d 8b06 	vpush	{d8-d10}
	uint32_t accFaze_uw;
	sumSample_uw =0; //sadrzi ukupnu vrijednost svih sampla koja se dijeli s brojem aktiviranih tipki
	if (dioBuffera == QUARTER_BUFFER_SIZE)
	{
		indeksRadnogPolja_uw = 0;
 80011e4:	49db      	ldr	r1, [pc, #876]	@ (8001554 <ArangeSamplesInBuff+0x378>)
	sumSample_uw =0; //sadrzi ukupnu vrijednost svih sampla koja se dijeli s brojem aktiviranih tipki
 80011e6:	f8df a3a0 	ldr.w	sl, [pc, #928]	@ 8001588 <ArangeSamplesInBuff+0x3ac>
	while(indeksRadnogPolja_uw < dioBuffera)  //priprema radnog buffera HALF_BUF ili FULL_BUF
	{  //Ogranicavanje rubnog uvjeta
		for (int i=0; i < POLYNUM; i++)  // izracun jednog sample koji je zbroj svih
		{

			while (voices[i].accFaze_f  + voices[i].pomakRadnogPolja_f >= TABLE_SIZE)
 80011ea:	ed9f 8adb 	vldr	s16, [pc, #876]	@ 8001558 <ArangeSamplesInBuff+0x37c>
				if(voices[i].Ovojnica.released ==1)
				{
					voices[i].Ovojnica.out = round(sample_ui * voices[i].Ovojnica.b2);
					voices[i].Ovojnica.state=releaseState;
					voices[i].Ovojnica.counter=0;
					voices[i].Ovojnica.Nsamples = (SAMPLING_FREQ * voices[i].Ovojnica.releaseTime) ;
 80011ee:	ed9f aadb 	vldr	s20, [pc, #876]	@ 800155c <ArangeSamplesInBuff+0x380>
					voices[i].Ovojnica.b1=voices[i].Ovojnica.sustainLevel;
					voices[i].Ovojnica.b2=0;
 80011f2:	eddf 9adb 	vldr	s19, [pc, #876]	@ 8001560 <ArangeSamplesInBuff+0x384>
	if (dioBuffera == QUARTER_BUFFER_SIZE)
 80011f6:	f5b0 7f00 	cmp.w	r0, #512	@ 0x200
{
 80011fa:	b083      	sub	sp, #12
	sumSample_uw =0; //sadrzi ukupnu vrijednost svih sampla koja se dijeli s brojem aktiviranih tipki
 80011fc:	f04f 0300 	mov.w	r3, #0
	while(indeksRadnogPolja_uw < dioBuffera)  //priprema radnog buffera HALF_BUF ili FULL_BUF
 8001200:	bf18      	it	ne
 8001202:	680c      	ldrne	r4, [r1, #0]
	sumSample_uw =0; //sadrzi ukupnu vrijednost svih sampla koja se dijeli s brojem aktiviranih tipki
 8001204:	f8ca 3000 	str.w	r3, [sl]
		indeksRadnogPolja_uw = 0;
 8001208:	bf04      	itt	eq
 800120a:	461c      	moveq	r4, r3
 800120c:	600b      	streq	r3, [r1, #0]
 800120e:	9001      	str	r0, [sp, #4]
 8001210:	f8df 9378 	ldr.w	r9, [pc, #888]	@ 800158c <ArangeSamplesInBuff+0x3b0>
 8001214:	9100      	str	r1, [sp, #0]
	while(indeksRadnogPolja_uw < dioBuffera)  //priprema radnog buffera HALF_BUF ili FULL_BUF
 8001216:	9b01      	ldr	r3, [sp, #4]
 8001218:	42a3      	cmp	r3, r4
 800121a:	f240 818a 	bls.w	8001532 <ArangeSamplesInBuff+0x356>
			uint32_t sample_ui =  ((TABLE_1[accFaze_uw]) * pot2_f + TABLE_2[accFaze_uw]) / 2;
 800121e:	4bd1      	ldr	r3, [pc, #836]	@ (8001564 <ArangeSamplesInBuff+0x388>)
 8001220:	f8df 836c 	ldr.w	r8, [pc, #876]	@ 8001590 <ArangeSamplesInBuff+0x3b4>
 8001224:	ed93 9a00 	vldr	s18, [r3]
 8001228:	f8da b000 	ldr.w	fp, [sl]
 800122c:	4dce      	ldr	r5, [pc, #824]	@ (8001568 <ArangeSamplesInBuff+0x38c>)
 800122e:	4ccf      	ldr	r4, [pc, #828]	@ (800156c <ArangeSamplesInBuff+0x390>)
 8001230:	4fcf      	ldr	r7, [pc, #828]	@ (8001570 <ArangeSamplesInBuff+0x394>)
 8001232:	f508 76cc 	add.w	r6, r8, #408	@ 0x198
 8001236:	eef6 8a00 	vmov.f32	s17, #96	@ 0x3f000000  0.5
			while (voices[i].accFaze_f  + voices[i].pomakRadnogPolja_f >= TABLE_SIZE)
 800123a:	edd8 7a02 	vldr	s15, [r8, #8]
 800123e:	edd8 6a03 	vldr	s13, [r8, #12]
 8001242:	ee36 7aa7 	vadd.f32	s14, s13, s15
 8001246:	eeb4 7ac8 	vcmpe.f32	s14, s16
 800124a:	eef1 fa10 	vmrs	APSR_nzcv, fpscr
 800124e:	db08      	blt.n	8001262 <ArangeSamplesInBuff+0x86>
				voices[i].accFaze_f = voices[i].accFaze_f - TABLE_SIZE ;
 8001250:	ee77 7ac8 	vsub.f32	s15, s15, s16
			while (voices[i].accFaze_f  + voices[i].pomakRadnogPolja_f >= TABLE_SIZE)
 8001254:	ee37 7aa6 	vadd.f32	s14, s15, s13
 8001258:	eeb4 7ac8 	vcmpe.f32	s14, s16
 800125c:	eef1 fa10 	vmrs	APSR_nzcv, fpscr
 8001260:	daf6      	bge.n	8001250 <ArangeSamplesInBuff+0x74>
			accFaze_uw = round(voices[i].accFaze_f) ;
 8001262:	ee17 0a10 	vmov	r0, s14
			voices[i].accFaze_f =  voices[i].accFaze_f + voices[i].pomakRadnogPolja_f;
 8001266:	ed88 7a02 	vstr	s14, [r8, #8]
			accFaze_uw = round(voices[i].accFaze_f) ;
 800126a:	f7ff f919 	bl	80004a0 <__aeabi_f2d>
 800126e:	ec41 0b10 	vmov	d0, r0, r1
 8001272:	f003 fd4d 	bl	8004d10 <round>
 8001276:	ec51 0b10 	vmov	r0, r1, d0
 800127a:	f7ff fc2b 	bl	8000ad4 <__aeabi_d2uiz>
			uint32_t sample_ui =  ((TABLE_1[accFaze_uw]) * pot2_f + TABLE_2[accFaze_uw]) / 2;
 800127e:	f839 2010 	ldrh.w	r2, [r9, r0, lsl #1]
			switch (voices[i].Ovojnica.state)
 8001282:	f898 3018 	ldrb.w	r3, [r8, #24]
			uint32_t sample_ui =  ((TABLE_1[accFaze_uw]) * pot2_f + TABLE_2[accFaze_uw]) / 2;
 8001286:	ee07 2a10 	vmov	s14, r2
 800128a:	f837 2010 	ldrh.w	r2, [r7, r0, lsl #1]
 800128e:	ee07 2a90 	vmov	s15, r2
 8001292:	eeb8 7ac7 	vcvt.f32.s32	s14, s14
 8001296:	eef8 7ae7 	vcvt.f32.s32	s15, s15
 800129a:	eee7 7a09 	vfma.f32	s15, s14, s18
 800129e:	ee67 7aa8 	vmul.f32	s15, s15, s17
 80012a2:	eefc 7ae7 	vcvt.u32.f32	s15, s15
			switch (voices[i].Ovojnica.state)
 80012a6:	2b04      	cmp	r3, #4
 80012a8:	f200 8148 	bhi.w	800153c <ArangeSamplesInBuff+0x360>
 80012ac:	e8df f003 	tbb	[pc, r3]
 80012b0:	6399d3b7 	.word	0x6399d3b7
 80012b4:	03          	.byte	0x03
 80012b5:	00          	.byte	0x00
				}
				voices[i].Ovojnica.out = round(sample_ui * voices[i].Ovojnica.b2);
				break;

			case releaseState:
				if(voices[i].Ovojnica.counter==voices[i].Ovojnica.Nsamples)
 80012b6:	e9d8 320b 	ldrd	r3, r2, [r8, #44]	@ 0x2c
 80012ba:	4293      	cmp	r3, r2
 80012bc:	f000 8103 	beq.w	80014c6 <ArangeSamplesInBuff+0x2ea>
					glasnocaTonova[i] = 0;
					brojAktiviranihTipki--;

					break;
				}
				voices[i].Ovojnica.out =  (sample_ui * voices[i].Ovojnica.b1) - (int)(voices[i].Ovojnica.counter * sample_ui * (voices[i].Ovojnica.b1- voices[i].Ovojnica.b2) / voices[i].Ovojnica.Nsamples);
 80012c0:	ee07 2a10 	vmov	s14, r2
 80012c4:	ee17 2a90 	vmov	r2, s15
 80012c8:	fb03 f202 	mul.w	r2, r3, r2
 80012cc:	eef8 6a47 	vcvt.f32.u32	s13, s14
 80012d0:	ed98 6a0d 	vldr	s12, [r8, #52]	@ 0x34
 80012d4:	ed98 7a0e 	vldr	s14, [r8, #56]	@ 0x38
 80012d8:	eef8 5a67 	vcvt.f32.u32	s11, s15
 80012dc:	ee07 2a90 	vmov	s15, r2
 80012e0:	ee36 7a47 	vsub.f32	s14, s12, s14
 80012e4:	eef8 7a67 	vcvt.f32.u32	s15, s15
				voices[i].Ovojnica.counter++;
 80012e8:	3301      	adds	r3, #1
				voices[i].Ovojnica.out =  (sample_ui * voices[i].Ovojnica.b1) - (int)(voices[i].Ovojnica.counter * sample_ui * (voices[i].Ovojnica.b1- voices[i].Ovojnica.b2) / voices[i].Ovojnica.Nsamples);
 80012ea:	ee67 7a87 	vmul.f32	s15, s15, s14
				voices[i].Ovojnica.counter++;
 80012ee:	f8c8 302c 	str.w	r3, [r8, #44]	@ 0x2c
				voices[i].Ovojnica.out =  (sample_ui * voices[i].Ovojnica.b1) - (int)(voices[i].Ovojnica.counter * sample_ui * (voices[i].Ovojnica.b1- voices[i].Ovojnica.b2) / voices[i].Ovojnica.Nsamples);
 80012f2:	ee87 7aa6 	vdiv.f32	s14, s15, s13
 80012f6:	eefd 7ac7 	vcvt.s32.f32	s15, s14
 80012fa:	eef8 7ae7 	vcvt.f32.s32	s15, s15
 80012fe:	eed5 7a86 	vfnms.f32	s15, s11, s12
				break;
			}  // end switch
			/* --------------------------------------------------------------*/
			inProcessed_ui = voices[i].Ovojnica.out;
 8001302:	eebc 7ae7 	vcvt.u32.f32	s14, s15
				voices[i].Ovojnica.out =  (sample_ui * voices[i].Ovojnica.b1) - (int)(voices[i].Ovojnica.counter * sample_ui * (voices[i].Ovojnica.b1- voices[i].Ovojnica.b2) / voices[i].Ovojnica.Nsamples);
 8001306:	edc8 7a0f 	vstr	s15, [r8, #60]	@ 0x3c
			inProcessed_ui = voices[i].Ovojnica.out;
 800130a:	ee17 3a10 	vmov	r3, s14
 800130e:	fa1f fc83 	uxth.w	ip, r3

			sumSample_uw = sumSample_uw + inProcessed_ui;
 8001312:	44e3      	add	fp, ip
		for (int i=0; i < POLYNUM; i++)  // izracun jednog sample koji je zbroj svih
 8001314:	f108 0844 	add.w	r8, r8, #68	@ 0x44
 8001318:	4546      	cmp	r6, r8
 800131a:	f105 0501 	add.w	r5, r5, #1
 800131e:	f104 0401 	add.w	r4, r4, #1
 8001322:	d18a      	bne.n	800123a <ArangeSamplesInBuff+0x5e>
		}  //end for

		sumSample_uw = sumSample_uw  / POLYNUM;
 8001324:	4b93      	ldr	r3, [pc, #588]	@ (8001574 <ArangeSamplesInBuff+0x398>)
 8001326:	4c94      	ldr	r4, [pc, #592]	@ (8001578 <ArangeSamplesInBuff+0x39c>)
		sumSample_uw = round(EMA_LOW_Update(&lp_filter, sumSample_uw));
 8001328:	4894      	ldr	r0, [pc, #592]	@ (800157c <ArangeSamplesInBuff+0x3a0>)
 800132a:	f8a4 c000 	strh.w	ip, [r4]
		sumSample_uw = sumSample_uw  / POLYNUM;
 800132e:	fba3 230b 	umull	r2, r3, r3, fp
 8001332:	089b      	lsrs	r3, r3, #2
		sumSample_uw = round(EMA_LOW_Update(&lp_filter, sumSample_uw));
 8001334:	b299      	uxth	r1, r3
		sumSample_uw = sumSample_uw  / POLYNUM;
 8001336:	f8ca 3000 	str.w	r3, [sl]
		sumSample_uw = round(EMA_LOW_Update(&lp_filter, sumSample_uw));
 800133a:	f7ff fdb7 	bl	8000eac <EMA_LOW_Update>
 800133e:	ee10 0a10 	vmov	r0, s0
 8001342:	f7ff f8ad 	bl	80004a0 <__aeabi_f2d>
 8001346:	ec41 0b10 	vmov	d0, r0, r1
 800134a:	f003 fce1 	bl	8004d10 <round>
		WorkingBuffer[indeksRadnogPolja_uw] = sumSample_uw ;
 800134e:	9b00      	ldr	r3, [sp, #0]
 8001350:	4d8b      	ldr	r5, [pc, #556]	@ (8001580 <ArangeSamplesInBuff+0x3a4>)
 8001352:	681c      	ldr	r4, [r3, #0]
		sumSample_uw = round(EMA_LOW_Update(&lp_filter, sumSample_uw));
 8001354:	ec51 0b10 	vmov	r0, r1, d0
 8001358:	f7ff fbbc 	bl	8000ad4 <__aeabi_d2uiz>
		sumSample_uw =0;
 800135c:	2300      	movs	r3, #0
		if (indeksRadnogPolja_uw < HALF_BUFFER_SIZE)
 800135e:	f5b4 6f80 	cmp.w	r4, #1024	@ 0x400
		WorkingBuffer[indeksRadnogPolja_uw] = sumSample_uw ;
 8001362:	f825 0014 	strh.w	r0, [r5, r4, lsl #1]
		sumSample_uw =0;
 8001366:	f8ca 3000 	str.w	r3, [sl]
		if (indeksRadnogPolja_uw < HALF_BUFFER_SIZE)
 800136a:	f4bf af54 	bcs.w	8001216 <ArangeSamplesInBuff+0x3a>
			indeksRadnogPolja_uw++;
 800136e:	9900      	ldr	r1, [sp, #0]
 8001370:	3401      	adds	r4, #1
 8001372:	600c      	str	r4, [r1, #0]
 8001374:	e74c      	b.n	8001210 <ArangeSamplesInBuff+0x34>
					voices[i].Ovojnica.out = round(sample_ui * voices[i].Ovojnica.b2);
 8001376:	ed98 7a0e 	vldr	s14, [r8, #56]	@ 0x38
				voices[i].Ovojnica.out =  (sample_ui * voices[i].Ovojnica.b1) -  (int)(voices[i].Ovojnica.counter * sample_ui * (voices[i].Ovojnica.b1- voices[i].Ovojnica.b2) / voices[i].Ovojnica.Nsamples);
 800137a:	eef8 7a67 	vcvt.f32.u32	s15, s15
					voices[i].Ovojnica.out = round(sample_ui * voices[i].Ovojnica.b2);
 800137e:	ee67 7a87 	vmul.f32	s15, s15, s14
 8001382:	ee17 0a90 	vmov	r0, s15
 8001386:	f7ff f88b 	bl	80004a0 <__aeabi_f2d>
 800138a:	ec41 0b10 	vmov	d0, r0, r1
 800138e:	f003 fcbf 	bl	8004d10 <round>
 8001392:	ec51 0b10 	vmov	r0, r1, d0
 8001396:	f7ff fbbd 	bl	8000b14 <__aeabi_d2f>
				if(voices[i].Ovojnica.released ==1)
 800139a:	f898 3041 	ldrb.w	r3, [r8, #65]	@ 0x41
 800139e:	2b01      	cmp	r3, #1
					voices[i].Ovojnica.out = round(sample_ui * voices[i].Ovojnica.b2);
 80013a0:	ee07 0a90 	vmov	s15, r0
				if(voices[i].Ovojnica.released ==1)
 80013a4:	d1ad      	bne.n	8001302 <ArangeSamplesInBuff+0x126>
					voices[i].Ovojnica.b1=voices[i].Ovojnica.sustainLevel;
 80013a6:	f8d8 3024 	ldr.w	r3, [r8, #36]	@ 0x24
					voices[i].Ovojnica.Nsamples = (SAMPLING_FREQ * voices[i].Ovojnica.releaseTime) ;
 80013aa:	ed98 7a0a 	vldr	s14, [r8, #40]	@ 0x28
					voices[i].Ovojnica.b1=voices[i].Ovojnica.sustainLevel;
 80013ae:	f8c8 3034 	str.w	r3, [r8, #52]	@ 0x34
			inProcessed_ui = voices[i].Ovojnica.out;
 80013b2:	eefc 6ae7 	vcvt.u32.f32	s13, s15
					voices[i].Ovojnica.state=releaseState;
 80013b6:	2304      	movs	r3, #4
					voices[i].Ovojnica.Nsamples = (SAMPLING_FREQ * voices[i].Ovojnica.releaseTime) ;
 80013b8:	ee27 7a0a 	vmul.f32	s14, s14, s20
					voices[i].Ovojnica.state=releaseState;
 80013bc:	f888 3018 	strb.w	r3, [r8, #24]
					voices[i].Ovojnica.counter=0;
 80013c0:	2300      	movs	r3, #0
 80013c2:	f8c8 302c 	str.w	r3, [r8, #44]	@ 0x2c
			inProcessed_ui = voices[i].Ovojnica.out;
 80013c6:	ee16 3a90 	vmov	r3, s13
					voices[i].Ovojnica.Nsamples = (SAMPLING_FREQ * voices[i].Ovojnica.releaseTime) ;
 80013ca:	eebc 7ac7 	vcvt.u32.f32	s14, s14
			inProcessed_ui = voices[i].Ovojnica.out;
 80013ce:	fa1f fc83 	uxth.w	ip, r3
					voices[i].Ovojnica.out = round(sample_ui * voices[i].Ovojnica.b2);
 80013d2:	f8c8 003c 	str.w	r0, [r8, #60]	@ 0x3c
					voices[i].Ovojnica.b2=0;
 80013d6:	edc8 9a0e 	vstr	s19, [r8, #56]	@ 0x38
					voices[i].Ovojnica.Nsamples = (SAMPLING_FREQ * voices[i].Ovojnica.releaseTime) ;
 80013da:	ed88 7a0c 	vstr	s14, [r8, #48]	@ 0x30
			sumSample_uw = sumSample_uw + inProcessed_ui;
 80013de:	44e3      	add	fp, ip
					break;
 80013e0:	e798      	b.n	8001314 <ArangeSamplesInBuff+0x138>
				if(voices[i].Ovojnica.counter==voices[i].Ovojnica.Nsamples)
 80013e2:	e9d8 320b 	ldrd	r3, r2, [r8, #44]	@ 0x2c
 80013e6:	4293      	cmp	r3, r2
 80013e8:	d062      	beq.n	80014b0 <ArangeSamplesInBuff+0x2d4>
					voices[i].Ovojnica.out = (int)(voices[i].Ovojnica.counter * sample_ui * (voices[i].Ovojnica.b2-voices[i].Ovojnica.b1) / voices[i].Ovojnica.Nsamples);// za vrijeme < 1 s
 80013ea:	ed98 6a0d 	vldr	s12, [r8, #52]	@ 0x34
				voices[i].Ovojnica.out =  (sample_ui * voices[i].Ovojnica.b1) -  (int)(voices[i].Ovojnica.counter * sample_ui * (voices[i].Ovojnica.b1- voices[i].Ovojnica.b2) / voices[i].Ovojnica.Nsamples);
 80013ee:	ee07 2a10 	vmov	s14, r2
 80013f2:	ee17 2a90 	vmov	r2, s15
				voices[i].Ovojnica.counter++;
 80013f6:	3301      	adds	r3, #1
 80013f8:	f8c8 302c 	str.w	r3, [r8, #44]	@ 0x2c
				voices[i].Ovojnica.out =  (sample_ui * voices[i].Ovojnica.b1) -  (int)(voices[i].Ovojnica.counter * sample_ui * (voices[i].Ovojnica.b1- voices[i].Ovojnica.b2) / voices[i].Ovojnica.Nsamples);
 80013fc:	fb02 f303 	mul.w	r3, r2, r3
 8001400:	eef8 6a47 	vcvt.f32.u32	s13, s14
 8001404:	eef8 5a67 	vcvt.f32.u32	s11, s15
 8001408:	ed98 7a0e 	vldr	s14, [r8, #56]	@ 0x38
 800140c:	ee07 3a90 	vmov	s15, r3
 8001410:	ee36 7a47 	vsub.f32	s14, s12, s14
 8001414:	eef8 7a67 	vcvt.f32.u32	s15, s15
 8001418:	ee67 7a87 	vmul.f32	s15, s15, s14
 800141c:	e769      	b.n	80012f2 <ArangeSamplesInBuff+0x116>
				if(voices[i].Ovojnica.triggered==1)
 800141e:	f898 3040 	ldrb.w	r3, [r8, #64]	@ 0x40
 8001422:	2b01      	cmp	r3, #1
 8001424:	d112      	bne.n	800144c <ArangeSamplesInBuff+0x270>
					voices[i].Ovojnica.Nsamples = (SAMPLING_FREQ * voices[i].Ovojnica.attackTime)  ;//
 8001426:	edd8 7a07 	vldr	s15, [r8, #28]
					voices[i].Ovojnica.state = attackState;
 800142a:	f888 3018 	strb.w	r3, [r8, #24]
					voices[i].Ovojnica.Nsamples = (SAMPLING_FREQ * voices[i].Ovojnica.attackTime)  ;//
 800142e:	ee67 7a8a 	vmul.f32	s15, s15, s20
					voices[i].Ovojnica.released = 0;
 8001432:	2300      	movs	r3, #0
					voices[i].Ovojnica.Nsamples = (SAMPLING_FREQ * voices[i].Ovojnica.attackTime)  ;//
 8001434:	eefc 7ae7 	vcvt.u32.f32	s15, s15
					voices[i].Ovojnica.released = 0;
 8001438:	f8a8 3041 	strh.w	r3, [r8, #65]	@ 0x41
					voices[i].Ovojnica.b2=1;
 800143c:	f04f 537e 	mov.w	r3, #1065353216	@ 0x3f800000
					voices[i].Ovojnica.b1=0;
 8001440:	edc8 9a0d 	vstr	s19, [r8, #52]	@ 0x34
					voices[i].Ovojnica.Nsamples = (SAMPLING_FREQ * voices[i].Ovojnica.attackTime)  ;//
 8001444:	edc8 7a0c 	vstr	s15, [r8, #48]	@ 0x30
					voices[i].Ovojnica.b2=1;
 8001448:	f8c8 3038 	str.w	r3, [r8, #56]	@ 0x38
				voices[i].Ovojnica.out = 0;
 800144c:	edc8 9a0f 	vstr	s19, [r8, #60]	@ 0x3c
				break;
 8001450:	f04f 0c00 	mov.w	ip, #0
 8001454:	e75e      	b.n	8001314 <ArangeSamplesInBuff+0x138>
				if(voices[i].Ovojnica.counter == voices[i].Ovojnica.Nsamples)
 8001456:	f8d8 302c 	ldr.w	r3, [r8, #44]	@ 0x2c
					voices[i].Ovojnica.out = (int)(voices[i].Ovojnica.counter * sample_ui * (voices[i].Ovojnica.b2-voices[i].Ovojnica.b1) / voices[i].Ovojnica.Nsamples);// za vrijeme < 1 s
 800145a:	edd8 6a0e 	vldr	s13, [r8, #56]	@ 0x38
 800145e:	ed98 7a0d 	vldr	s14, [r8, #52]	@ 0x34
 8001462:	ee17 2a90 	vmov	r2, s15
 8001466:	fb03 f202 	mul.w	r2, r3, r2
 800146a:	ee07 2a90 	vmov	s15, r2
 800146e:	ee36 7ac7 	vsub.f32	s14, s13, s14
 8001472:	eef8 7a67 	vcvt.f32.u32	s15, s15
				if(voices[i].Ovojnica.counter == voices[i].Ovojnica.Nsamples)
 8001476:	f8d8 2030 	ldr.w	r2, [r8, #48]	@ 0x30
					voices[i].Ovojnica.out = (int)(voices[i].Ovojnica.counter * sample_ui * (voices[i].Ovojnica.b2-voices[i].Ovojnica.b1) / voices[i].Ovojnica.Nsamples);// za vrijeme < 1 s
 800147a:	ee27 7a27 	vmul.f32	s14, s14, s15
 800147e:	edd8 7a0c 	vldr	s15, [r8, #48]	@ 0x30
 8001482:	eeb8 6a67 	vcvt.f32.u32	s12, s15
				if(voices[i].Ovojnica.counter == voices[i].Ovojnica.Nsamples)
 8001486:	4293      	cmp	r3, r2
					voices[i].Ovojnica.out = (int)(voices[i].Ovojnica.counter * sample_ui * (voices[i].Ovojnica.b2-voices[i].Ovojnica.b1) / voices[i].Ovojnica.Nsamples);// za vrijeme < 1 s
 8001488:	eec7 7a06 	vdiv.f32	s15, s14, s12
 800148c:	eefd 7ae7 	vcvt.s32.f32	s15, s15
 8001490:	eef8 7ae7 	vcvt.f32.s32	s15, s15
				if(voices[i].Ovojnica.counter == voices[i].Ovojnica.Nsamples)
 8001494:	d02f      	beq.n	80014f6 <ArangeSamplesInBuff+0x31a>
			inProcessed_ui = voices[i].Ovojnica.out;
 8001496:	eebc 7ae7 	vcvt.u32.f32	s14, s15
				voices[i].Ovojnica.counter++;
 800149a:	3301      	adds	r3, #1
 800149c:	f8c8 302c 	str.w	r3, [r8, #44]	@ 0x2c
			inProcessed_ui = voices[i].Ovojnica.out;
 80014a0:	ee17 3a10 	vmov	r3, s14
 80014a4:	fa1f fc83 	uxth.w	ip, r3
				voices[i].Ovojnica.out = (int)(voices[i].Ovojnica.counter * sample_ui * (voices[i].Ovojnica.b2-voices[i].Ovojnica.b1) / voices[i].Ovojnica.Nsamples);// za vrijeme < 1 s
 80014a8:	edc8 7a0f 	vstr	s15, [r8, #60]	@ 0x3c
			sumSample_uw = sumSample_uw + inProcessed_ui;
 80014ac:	44e3      	add	fp, ip
				break;
 80014ae:	e731      	b.n	8001314 <ArangeSamplesInBuff+0x138>
					voices[i].Ovojnica.b1=voices[i].Ovojnica.b2=voices[i].Ovojnica.sustainLevel;
 80014b0:	ed98 6a09 	vldr	s12, [r8, #36]	@ 0x24
					voices[i].Ovojnica.state=sustainState;
 80014b4:	2303      	movs	r3, #3
 80014b6:	f888 3018 	strb.w	r3, [r8, #24]
					voices[i].Ovojnica.b1=voices[i].Ovojnica.b2=voices[i].Ovojnica.sustainLevel;
 80014ba:	ed88 6a0e 	vstr	s12, [r8, #56]	@ 0x38
 80014be:	ed88 6a0d 	vstr	s12, [r8, #52]	@ 0x34
 80014c2:	2300      	movs	r3, #0
 80014c4:	e793      	b.n	80013ee <ArangeSamplesInBuff+0x212>
					brojAktiviranihTipki--;
 80014c6:	4a2f      	ldr	r2, [pc, #188]	@ (8001584 <ArangeSamplesInBuff+0x3a8>)
			inProcessed_ui = voices[i].Ovojnica.out;
 80014c8:	edd8 7a0f 	vldr	s15, [r8, #60]	@ 0x3c
					voices[i].Ovojnica.state = offState;
 80014cc:	2300      	movs	r3, #0
 80014ce:	f888 3018 	strb.w	r3, [r8, #24]
					voices[i].Ovojnica.counter = 0;
 80014d2:	f8c8 302c 	str.w	r3, [r8, #44]	@ 0x2c
					stanjeTipki[i] = 0;
 80014d6:	702b      	strb	r3, [r5, #0]
					glasnocaTonova[i] = 0;
 80014d8:	7023      	strb	r3, [r4, #0]
					brojAktiviranihTipki--;
 80014da:	7813      	ldrb	r3, [r2, #0]
			inProcessed_ui = voices[i].Ovojnica.out;
 80014dc:	eefc 7ae7 	vcvt.u32.f32	s15, s15
					brojAktiviranihTipki--;
 80014e0:	3b01      	subs	r3, #1
 80014e2:	7013      	strb	r3, [r2, #0]
					voices[i].Ovojnica.finished = 1;
 80014e4:	2301      	movs	r3, #1
 80014e6:	f888 3042 	strb.w	r3, [r8, #66]	@ 0x42
			inProcessed_ui = voices[i].Ovojnica.out;
 80014ea:	ee17 3a90 	vmov	r3, s15
 80014ee:	fa1f fc83 	uxth.w	ip, r3
			sumSample_uw = sumSample_uw + inProcessed_ui;
 80014f2:	44e3      	add	fp, ip
					break;
 80014f4:	e70e      	b.n	8001314 <ArangeSamplesInBuff+0x138>
					voices[i].Ovojnica.b2=voices[i].Ovojnica.sustainLevel;
 80014f6:	f8d8 3024 	ldr.w	r3, [r8, #36]	@ 0x24
					voices[i].Ovojnica.Nsamples = (SAMPLING_FREQ * voices[i].Ovojnica.decayTime);
 80014fa:	ed98 7a08 	vldr	s14, [r8, #32]
					voices[i].Ovojnica.b2=voices[i].Ovojnica.sustainLevel;
 80014fe:	f8c8 3038 	str.w	r3, [r8, #56]	@ 0x38
			inProcessed_ui = voices[i].Ovojnica.out;
 8001502:	eebc 6ae7 	vcvt.u32.f32	s12, s15
					voices[i].Ovojnica.state=decayState;
 8001506:	2302      	movs	r3, #2
					voices[i].Ovojnica.Nsamples = (SAMPLING_FREQ * voices[i].Ovojnica.decayTime);
 8001508:	ee27 7a0a 	vmul.f32	s14, s14, s20
					voices[i].Ovojnica.state=decayState;
 800150c:	f888 3018 	strb.w	r3, [r8, #24]
					voices[i].Ovojnica.counter = 0;
 8001510:	2300      	movs	r3, #0
 8001512:	f8c8 302c 	str.w	r3, [r8, #44]	@ 0x2c
			inProcessed_ui = voices[i].Ovojnica.out;
 8001516:	ee16 3a10 	vmov	r3, s12
					voices[i].Ovojnica.Nsamples = (SAMPLING_FREQ * voices[i].Ovojnica.decayTime);
 800151a:	eebc 7ac7 	vcvt.u32.f32	s14, s14
			inProcessed_ui = voices[i].Ovojnica.out;
 800151e:	fa1f fc83 	uxth.w	ip, r3
					voices[i].Ovojnica.out = (int)(voices[i].Ovojnica.counter * sample_ui * (voices[i].Ovojnica.b2-voices[i].Ovojnica.b1) / voices[i].Ovojnica.Nsamples);// za vrijeme < 1 s
 8001522:	edc8 7a0f 	vstr	s15, [r8, #60]	@ 0x3c
					voices[i].Ovojnica.b1=voices[i].Ovojnica.b2;
 8001526:	edc8 6a0d 	vstr	s13, [r8, #52]	@ 0x34
					voices[i].Ovojnica.Nsamples = (SAMPLING_FREQ * voices[i].Ovojnica.decayTime);
 800152a:	ed88 7a0c 	vstr	s14, [r8, #48]	@ 0x30
			sumSample_uw = sumSample_uw + inProcessed_ui;
 800152e:	44e3      	add	fp, ip
					break;
 8001530:	e6f0      	b.n	8001314 <ArangeSamplesInBuff+0x138>
	}  //end while
}
 8001532:	b003      	add	sp, #12
 8001534:	ecbd 8b06 	vpop	{d8-d10}
 8001538:	e8bd 8ff0 	ldmia.w	sp!, {r4, r5, r6, r7, r8, r9, sl, fp, pc}
			inProcessed_ui = voices[i].Ovojnica.out;
 800153c:	edd8 7a0f 	vldr	s15, [r8, #60]	@ 0x3c
 8001540:	eefc 7ae7 	vcvt.u32.f32	s15, s15
 8001544:	ee17 ca90 	vmov	ip, s15
			sumSample_uw = sumSample_uw + inProcessed_ui;
 8001548:	fa1b fb8c 	uxtah	fp, fp, ip
			inProcessed_ui = voices[i].Ovojnica.out;
 800154c:	fa1f fc8c 	uxth.w	ip, ip
 8001550:	e6e0      	b.n	8001314 <ArangeSamplesInBuff+0x138>
 8001552:	bf00      	nop
 8001554:	20000a5c 	.word	0x20000a5c
 8001558:	45000000 	.word	0x45000000
 800155c:	472be000 	.word	0x472be000
 8001560:	00000000 	.word	0x00000000
 8001564:	20000a40 	.word	0x20000a40
 8001568:	20000a70 	.word	0x20000a70
 800156c:	20000a68 	.word	0x20000a68
 8001570:	08006158 	.word	0x08006158
 8001574:	aaaaaaab 	.word	0xaaaaaaab
 8001578:	2000023c 	.word	0x2000023c
 800157c:	20000238 	.word	0x20000238
 8001580:	20000240 	.word	0x20000240
 8001584:	20000a64 	.word	0x20000a64
 8001588:	20000234 	.word	0x20000234
 800158c:	08005158 	.word	0x08005158
 8001590:	20000090 	.word	0x20000090

08001594 <HAL_I2S_TxHalfCpltCallback>:
{
 8001594:	b508      	push	{r3, lr}
	HAL_GPIO_WritePin(GPIOB, GPIO_PIN_2, GPIO_PIN_SET);
 8001596:	2104      	movs	r1, #4
 8001598:	4815      	ldr	r0, [pc, #84]	@ (80015f0 <HAL_I2S_TxHalfCpltCallback+0x5c>)
 800159a:	2201      	movs	r2, #1
 800159c:	f001 faee 	bl	8002b7c <HAL_GPIO_WritePin>
	ArangeSamplesInBuff(QUARTER_BUFFER_SIZE);
 80015a0:	f44f 7000 	mov.w	r0, #512	@ 0x200
 80015a4:	f7ff fe1a 	bl	80011dc <ArangeSamplesInBuff>
		dma_out[j] = (ADCGain * temp_w);
 80015a8:	4b12      	ldr	r3, [pc, #72]	@ (80015f4 <HAL_I2S_TxHalfCpltCallback+0x60>)
 80015aa:	4913      	ldr	r1, [pc, #76]	@ (80015f8 <HAL_I2S_TxHalfCpltCallback+0x64>)
 80015ac:	ed93 7a00 	vldr	s14, [r3]
 80015b0:	4812      	ldr	r0, [pc, #72]	@ (80015fc <HAL_I2S_TxHalfCpltCallback+0x68>)
 80015b2:	f501 6c80 	add.w	ip, r1, #1024	@ 0x400
		temp_w  = (WorkingBuffer[i]);
 80015b6:	f831 3f02 	ldrh.w	r3, [r1, #2]!
 80015ba:	ee07 3a90 	vmov	s15, r3
		dma_out[j] = (ADCGain * temp_w);
 80015be:	eef8 7ae7 	vcvt.f32.s32	s15, s15
 80015c2:	2200      	movs	r2, #0
 80015c4:	ee67 7a87 	vmul.f32	s15, s15, s14
	for (int i =0; i < QUARTER_BUFFER_SIZE; i++)
 80015c8:	458c      	cmp	ip, r1
		dma_out[j] = (ADCGain * temp_w);
 80015ca:	eefd 7ae7 	vcvt.s32.f32	s15, s15
 80015ce:	ee17 3a90 	vmov	r3, s15
 80015d2:	b21b      	sxth	r3, r3
 80015d4:	f363 020f 	bfi	r2, r3, #0, #16
 80015d8:	f363 421f 	bfi	r2, r3, #16, #16
 80015dc:	f840 2f04 	str.w	r2, [r0, #4]!
	for (int i =0; i < QUARTER_BUFFER_SIZE; i++)
 80015e0:	d1e9      	bne.n	80015b6 <HAL_I2S_TxHalfCpltCallback+0x22>
}
 80015e2:	e8bd 4008 	ldmia.w	sp!, {r3, lr}
	HAL_GPIO_WritePin(GPIOB, GPIO_PIN_2, GPIO_PIN_RESET);
 80015e6:	4802      	ldr	r0, [pc, #8]	@ (80015f0 <HAL_I2S_TxHalfCpltCallback+0x5c>)
 80015e8:	2200      	movs	r2, #0
 80015ea:	2104      	movs	r1, #4
 80015ec:	f001 bac6 	b.w	8002b7c <HAL_GPIO_WritePin>
 80015f0:	40020400 	.word	0x40020400
 80015f4:	20000a54 	.word	0x20000a54
 80015f8:	2000023e 	.word	0x2000023e
 80015fc:	20000a84 	.word	0x20000a84

08001600 <HAL_I2S_TxCpltCallback>:
{
 8001600:	b508      	push	{r3, lr}
	HAL_GPIO_WritePin(GPIOB, GPIO_PIN_2, GPIO_PIN_SET);
 8001602:	2104      	movs	r1, #4
 8001604:	4815      	ldr	r0, [pc, #84]	@ (800165c <HAL_I2S_TxCpltCallback+0x5c>)
 8001606:	2201      	movs	r2, #1
 8001608:	f001 fab8 	bl	8002b7c <HAL_GPIO_WritePin>
	ArangeSamplesInBuff(HALF_BUFFER_SIZE);
 800160c:	f44f 6080 	mov.w	r0, #1024	@ 0x400
 8001610:	f7ff fde4 	bl	80011dc <ArangeSamplesInBuff>
		dma_out[j] = (ADCGain * temp_w) ;
 8001614:	4b12      	ldr	r3, [pc, #72]	@ (8001660 <HAL_I2S_TxCpltCallback+0x60>)
 8001616:	4913      	ldr	r1, [pc, #76]	@ (8001664 <HAL_I2S_TxCpltCallback+0x64>)
 8001618:	ed93 7a00 	vldr	s14, [r3]
 800161c:	4812      	ldr	r0, [pc, #72]	@ (8001668 <HAL_I2S_TxCpltCallback+0x68>)
 800161e:	f501 6c80 	add.w	ip, r1, #1024	@ 0x400
		temp_w  = (WorkingBuffer[i]);
 8001622:	f831 3f02 	ldrh.w	r3, [r1, #2]!
 8001626:	ee07 3a90 	vmov	s15, r3
		dma_out[j] = (ADCGain * temp_w) ;
 800162a:	eef8 7ae7 	vcvt.f32.s32	s15, s15
 800162e:	2200      	movs	r2, #0
 8001630:	ee67 7a87 	vmul.f32	s15, s15, s14
	for (int i = QUARTER_BUFFER_SIZE; i < HALF_BUFFER_SIZE; i++)
 8001634:	458c      	cmp	ip, r1
		dma_out[j] = (ADCGain * temp_w) ;
 8001636:	eefd 7ae7 	vcvt.s32.f32	s15, s15
 800163a:	ee17 3a90 	vmov	r3, s15
 800163e:	b21b      	sxth	r3, r3
 8001640:	f363 020f 	bfi	r2, r3, #0, #16
 8001644:	f363 421f 	bfi	r2, r3, #16, #16
 8001648:	f840 2f04 	str.w	r2, [r0, #4]!
	for (int i = QUARTER_BUFFER_SIZE; i < HALF_BUFFER_SIZE; i++)
 800164c:	d1e9      	bne.n	8001622 <HAL_I2S_TxCpltCallback+0x22>
}
 800164e:	e8bd 4008 	ldmia.w	sp!, {r3, lr}
	HAL_GPIO_WritePin(GPIOB, GPIO_PIN_2, GPIO_PIN_RESET);
 8001652:	4802      	ldr	r0, [pc, #8]	@ (800165c <HAL_I2S_TxCpltCallback+0x5c>)
 8001654:	2200      	movs	r2, #0
 8001656:	2104      	movs	r1, #4
 8001658:	f001 ba90 	b.w	8002b7c <HAL_GPIO_WritePin>
 800165c:	40020400 	.word	0x40020400
 8001660:	20000a54 	.word	0x20000a54
 8001664:	2000063e 	.word	0x2000063e
 8001668:	20001284 	.word	0x20001284

0800166c <SystemClock_Config>:
/**
 * @brief System Clock Configuration
 * @retval None
 */
void SystemClock_Config(void)
{
 800166c:	b510      	push	{r4, lr}
	RCC_OscInitTypeDef RCC_OscInitStruct = {0};
 800166e:	2300      	movs	r3, #0
{
 8001670:	b094      	sub	sp, #80	@ 0x50
	RCC_OscInitTypeDef RCC_OscInitStruct = {0};
 8001672:	e9cd 330a 	strd	r3, r3, [sp, #40]	@ 0x28
 8001676:	e9cd 330c 	strd	r3, r3, [sp, #48]	@ 0x30
	RCC_ClkInitTypeDef RCC_ClkInitStruct = {0};
 800167a:	e9cd 3303 	strd	r3, r3, [sp, #12]
 800167e:	e9cd 3305 	strd	r3, r3, [sp, #20]

	/** Configure the main internal regulator output voltage
	 */
	__HAL_RCC_PWR_CLK_ENABLE();
 8001682:	4920      	ldr	r1, [pc, #128]	@ (8001704 <SystemClock_Config+0x98>)
 8001684:	9301      	str	r3, [sp, #4]
	RCC_ClkInitTypeDef RCC_ClkInitStruct = {0};
 8001686:	9307      	str	r3, [sp, #28]
	__HAL_RCC_PWR_CLK_ENABLE();
 8001688:	6c08      	ldr	r0, [r1, #64]	@ 0x40
	__HAL_PWR_VOLTAGESCALING_CONFIG(PWR_REGULATOR_VOLTAGE_SCALE1);
 800168a:	4a1f      	ldr	r2, [pc, #124]	@ (8001708 <SystemClock_Config+0x9c>)
	__HAL_RCC_PWR_CLK_ENABLE();
 800168c:	f040 5080 	orr.w	r0, r0, #268435456	@ 0x10000000
 8001690:	6408      	str	r0, [r1, #64]	@ 0x40
 8001692:	6c09      	ldr	r1, [r1, #64]	@ 0x40
 8001694:	f001 5180 	and.w	r1, r1, #268435456	@ 0x10000000
 8001698:	9101      	str	r1, [sp, #4]
 800169a:	9901      	ldr	r1, [sp, #4]
	__HAL_PWR_VOLTAGESCALING_CONFIG(PWR_REGULATOR_VOLTAGE_SCALE1);
 800169c:	9302      	str	r3, [sp, #8]
 800169e:	6813      	ldr	r3, [r2, #0]
 80016a0:	f443 4340 	orr.w	r3, r3, #49152	@ 0xc000
 80016a4:	6013      	str	r3, [r2, #0]
 80016a6:	6813      	ldr	r3, [r2, #0]

	/** Initializes the RCC Oscillators according to the specified parameters
	 * in the RCC_OscInitTypeDef structure.
	 */
	RCC_OscInitStruct.OscillatorType = RCC_OSCILLATORTYPE_HSE;
 80016a8:	2001      	movs	r0, #1
 80016aa:	f44f 3180 	mov.w	r1, #65536	@ 0x10000
	__HAL_PWR_VOLTAGESCALING_CONFIG(PWR_REGULATOR_VOLTAGE_SCALE1);
 80016ae:	f403 4340 	and.w	r3, r3, #49152	@ 0xc000
	RCC_OscInitStruct.OscillatorType = RCC_OSCILLATORTYPE_HSE;
 80016b2:	e9cd 0108 	strd	r0, r1, [sp, #32]
	__HAL_PWR_VOLTAGESCALING_CONFIG(PWR_REGULATOR_VOLTAGE_SCALE1);
 80016b6:	9302      	str	r3, [sp, #8]
	RCC_OscInitStruct.HSEState = RCC_HSE_ON;
	RCC_OscInitStruct.PLL.PLLState = RCC_PLL_ON;
	RCC_OscInitStruct.PLL.PLLSource = RCC_PLLSOURCE_HSE;
 80016b8:	f44f 0180 	mov.w	r1, #4194304	@ 0x400000
	RCC_OscInitStruct.PLL.PLLState = RCC_PLL_ON;
 80016bc:	2402      	movs	r4, #2
	RCC_OscInitStruct.PLL.PLLSource = RCC_PLLSOURCE_HSE;
 80016be:	e9cd 410e 	strd	r4, r1, [sp, #56]	@ 0x38
	__HAL_PWR_VOLTAGESCALING_CONFIG(PWR_REGULATOR_VOLTAGE_SCALE1);
 80016c2:	9802      	ldr	r0, [sp, #8]
	RCC_OscInitStruct.PLL.PLLM = 12;
	RCC_OscInitStruct.PLL.PLLN = 96;
	RCC_OscInitStruct.PLL.PLLP = RCC_PLLP_DIV2;
 80016c4:	2104      	movs	r1, #4
 80016c6:	2002      	movs	r0, #2
 80016c8:	e9cd 0112 	strd	r0, r1, [sp, #72]	@ 0x48
	RCC_OscInitStruct.PLL.PLLM = 12;
 80016cc:	220c      	movs	r2, #12
	RCC_OscInitStruct.PLL.PLLN = 96;
 80016ce:	2360      	movs	r3, #96	@ 0x60
	RCC_OscInitStruct.PLL.PLLQ = 4;
	if (HAL_RCC_OscConfig(&RCC_OscInitStruct) != HAL_OK)
 80016d0:	a808      	add	r0, sp, #32
	RCC_OscInitStruct.PLL.PLLM = 12;
 80016d2:	9210      	str	r2, [sp, #64]	@ 0x40
	RCC_OscInitStruct.PLL.PLLN = 96;
 80016d4:	9311      	str	r3, [sp, #68]	@ 0x44
	if (HAL_RCC_OscConfig(&RCC_OscInitStruct) != HAL_OK)
 80016d6:	f001 ffdf 	bl	8003698 <HAL_RCC_OscConfig>
 80016da:	b108      	cbz	r0, 80016e0 <SystemClock_Config+0x74>
  \details Disables IRQ interrupts by setting special-purpose register PRIMASK.
           Can only be executed in Privileged modes.
 */
__STATIC_FORCEINLINE void __disable_irq(void)
{
  __ASM volatile ("cpsid i" : : : "memory");
 80016dc:	b672      	cpsid	i
void Error_Handler(void)
{
	/* USER CODE BEGIN Error_Handler_Debug */
	/* User can add his own implementation to report the HAL error return Ovojnica */
	__disable_irq();
	while (1)
 80016de:	e7fe      	b.n	80016de <SystemClock_Config+0x72>
	RCC_ClkInitStruct.ClockType = RCC_CLOCKTYPE_HCLK|RCC_CLOCKTYPE_SYSCLK
 80016e0:	210f      	movs	r1, #15
 80016e2:	4603      	mov	r3, r0
	RCC_ClkInitStruct.SYSCLKSource = RCC_SYSCLKSOURCE_PLLCLK;
 80016e4:	e9cd 1403 	strd	r1, r4, [sp, #12]
	RCC_ClkInitStruct.APB1CLKDivider = RCC_HCLK_DIV2;
 80016e8:	f44f 5280 	mov.w	r2, #4096	@ 0x1000
	if (HAL_RCC_ClockConfig(&RCC_ClkInitStruct, FLASH_LATENCY_3) != HAL_OK)
 80016ec:	a803      	add	r0, sp, #12
 80016ee:	2103      	movs	r1, #3
	RCC_ClkInitStruct.APB1CLKDivider = RCC_HCLK_DIV2;
 80016f0:	e9cd 3205 	strd	r3, r2, [sp, #20]
	RCC_ClkInitStruct.APB2CLKDivider = RCC_HCLK_DIV1;
 80016f4:	9307      	str	r3, [sp, #28]
	if (HAL_RCC_ClockConfig(&RCC_ClkInitStruct, FLASH_LATENCY_3) != HAL_OK)
 80016f6:	f002 f9e5 	bl	8003ac4 <HAL_RCC_ClockConfig>
 80016fa:	b108      	cbz	r0, 8001700 <SystemClock_Config+0x94>
 80016fc:	b672      	cpsid	i
	while (1)
 80016fe:	e7fe      	b.n	80016fe <SystemClock_Config+0x92>
}
 8001700:	b014      	add	sp, #80	@ 0x50
 8001702:	bd10      	pop	{r4, pc}
 8001704:	40023800 	.word	0x40023800
 8001708:	40007000 	.word	0x40007000

0800170c <main>:
{
 800170c:	e92d 47f0 	stmdb	sp!, {r4, r5, r6, r7, r8, r9, sl, lr}
 8001710:	ed2d 8b02 	vpush	{d8}
 8001714:	b08c      	sub	sp, #48	@ 0x30
	HAL_Init();
 8001716:	f000 fc3f 	bl	8001f98 <HAL_Init>
	EMA_LOW_Init(&lp_filter, alpha);
 800171a:	4bb3      	ldr	r3, [pc, #716]	@ (80019e8 <main+0x2dc>)
 800171c:	48b3      	ldr	r0, [pc, #716]	@ (80019ec <main+0x2e0>)
 800171e:	ed93 0a00 	vldr	s0, [r3]
		voices[i].Ovojnica.attackTime = attack_f;
 8001722:	4cb3      	ldr	r4, [pc, #716]	@ (80019f0 <main+0x2e4>)
	__HAL_RCC_GPIOC_CLK_ENABLE();
 8001724:	4db3      	ldr	r5, [pc, #716]	@ (80019f4 <main+0x2e8>)
	hi2s2.Init.Mode = I2S_MODE_MASTER_TX;
 8001726:	f8df 930c 	ldr.w	r9, [pc, #780]	@ 8001a34 <main+0x328>
	EMA_LOW_Init(&lp_filter, alpha);
 800172a:	f7ff fbbb 	bl	8000ea4 <EMA_LOW_Init>
		voices[i].Ovojnica.decayTime = decay_f;
 800172e:	48b2      	ldr	r0, [pc, #712]	@ (80019f8 <main+0x2ec>)
		voices[i].Ovojnica.sustainLevel = sustain_f;
 8001730:	49b2      	ldr	r1, [pc, #712]	@ (80019fc <main+0x2f0>)
		voices[i].Ovojnica.releaseTime = release_f;
 8001732:	4ab3      	ldr	r2, [pc, #716]	@ (8001a00 <main+0x2f4>)
		voices[i].Ovojnica.attackTime = attack_f;
 8001734:	4bb3      	ldr	r3, [pc, #716]	@ (8001a04 <main+0x2f8>)
 8001736:	f8d4 c000 	ldr.w	ip, [r4]
		voices[i].Ovojnica.decayTime = decay_f;
 800173a:	6800      	ldr	r0, [r0, #0]
		voices[i].Ovojnica.sustainLevel = sustain_f;
 800173c:	6809      	ldr	r1, [r1, #0]
		voices[i].Ovojnica.releaseTime = release_f;
 800173e:	6812      	ldr	r2, [r2, #0]
		voices[i].Ovojnica.attackTime = attack_f;
 8001740:	f8c3 c01c 	str.w	ip, [r3, #28]
		voices[i].Ovojnica.state = offState;
 8001744:	2400      	movs	r4, #0
		voices[i].Ovojnica.finished = 1;
 8001746:	2601      	movs	r6, #1
		voices[i].Ovojnica.attackTime = attack_f;
 8001748:	f8c3 c060 	str.w	ip, [r3, #96]	@ 0x60
 800174c:	f8c3 c0a4 	str.w	ip, [r3, #164]	@ 0xa4
 8001750:	f8c3 c0e8 	str.w	ip, [r3, #232]	@ 0xe8
 8001754:	f8c3 c12c 	str.w	ip, [r3, #300]	@ 0x12c
		voices[i].Ovojnica.decayTime = decay_f;
 8001758:	6218      	str	r0, [r3, #32]
		voices[i].Ovojnica.sustainLevel = sustain_f;
 800175a:	6259      	str	r1, [r3, #36]	@ 0x24
		voices[i].Ovojnica.releaseTime = release_f;
 800175c:	629a      	str	r2, [r3, #40]	@ 0x28
		voices[i].Ovojnica.decayTime = decay_f;
 800175e:	6658      	str	r0, [r3, #100]	@ 0x64
		voices[i].Ovojnica.sustainLevel = sustain_f;
 8001760:	6699      	str	r1, [r3, #104]	@ 0x68
		voices[i].Ovojnica.releaseTime = release_f;
 8001762:	66da      	str	r2, [r3, #108]	@ 0x6c
		voices[i].Ovojnica.decayTime = decay_f;
 8001764:	f8c3 00a8 	str.w	r0, [r3, #168]	@ 0xa8
		voices[i].Ovojnica.sustainLevel = sustain_f;
 8001768:	f8c3 10ac 	str.w	r1, [r3, #172]	@ 0xac
		voices[i].Ovojnica.releaseTime = release_f;
 800176c:	f8c3 20b0 	str.w	r2, [r3, #176]	@ 0xb0
		voices[i].Ovojnica.decayTime = decay_f;
 8001770:	f8c3 00ec 	str.w	r0, [r3, #236]	@ 0xec
		voices[i].Ovojnica.sustainLevel = sustain_f;
 8001774:	f8c3 10f0 	str.w	r1, [r3, #240]	@ 0xf0
		voices[i].Ovojnica.releaseTime = release_f;
 8001778:	f8c3 20f4 	str.w	r2, [r3, #244]	@ 0xf4
		voices[i].Ovojnica.decayTime = decay_f;
 800177c:	f8c3 0130 	str.w	r0, [r3, #304]	@ 0x130
		voices[i].Ovojnica.sustainLevel = sustain_f;
 8001780:	f8c3 1134 	str.w	r1, [r3, #308]	@ 0x134
		voices[i].Ovojnica.releaseTime = release_f;
 8001784:	f8c3 2138 	str.w	r2, [r3, #312]	@ 0x138
		voices[i].Ovojnica.state = offState;
 8001788:	761c      	strb	r4, [r3, #24]
 800178a:	f883 405c 	strb.w	r4, [r3, #92]	@ 0x5c
 800178e:	f883 40a0 	strb.w	r4, [r3, #160]	@ 0xa0
 8001792:	f883 40e4 	strb.w	r4, [r3, #228]	@ 0xe4
		voices[i].Ovojnica.finished = 1;
 8001796:	f883 6042 	strb.w	r6, [r3, #66]	@ 0x42
 800179a:	f883 6086 	strb.w	r6, [r3, #134]	@ 0x86
 800179e:	f883 60ca 	strb.w	r6, [r3, #202]	@ 0xca
 80017a2:	f883 610e 	strb.w	r6, [r3, #270]	@ 0x10e
		voices[i].Ovojnica.state = offState;
 80017a6:	f883 4128 	strb.w	r4, [r3, #296]	@ 0x128
		voices[i].Ovojnica.attackTime = attack_f;
 80017aa:	f8c3 c170 	str.w	ip, [r3, #368]	@ 0x170
		voices[i].Ovojnica.decayTime = decay_f;
 80017ae:	f8c3 0174 	str.w	r0, [r3, #372]	@ 0x174
		voices[i].Ovojnica.sustainLevel = sustain_f;
 80017b2:	f8c3 1178 	str.w	r1, [r3, #376]	@ 0x178
		voices[i].Ovojnica.releaseTime = release_f;
 80017b6:	f8c3 217c 	str.w	r2, [r3, #380]	@ 0x17c
		voices[i].Ovojnica.finished = 1;
 80017ba:	f883 6152 	strb.w	r6, [r3, #338]	@ 0x152
		voices[i].Ovojnica.state = offState;
 80017be:	f883 416c 	strb.w	r4, [r3, #364]	@ 0x16c
		voices[i].Ovojnica.finished = 1;
 80017c2:	f883 6196 	strb.w	r6, [r3, #406]	@ 0x196
	SystemClock_Config();
 80017c6:	f7ff ff51 	bl	800166c <SystemClock_Config>
	GPIO_InitTypeDef GPIO_InitStruct = {0};
 80017ca:	e9cd 4406 	strd	r4, r4, [sp, #24]
 80017ce:	e9cd 4408 	strd	r4, r4, [sp, #32]
	__HAL_RCC_GPIOC_CLK_ENABLE();
 80017d2:	9402      	str	r4, [sp, #8]
	GPIO_InitTypeDef GPIO_InitStruct = {0};
 80017d4:	940a      	str	r4, [sp, #40]	@ 0x28
	__HAL_RCC_GPIOC_CLK_ENABLE();
 80017d6:	6b2b      	ldr	r3, [r5, #48]	@ 0x30
	HAL_GPIO_WritePin(GPIOC, GPIO_PIN_13, GPIO_PIN_RESET);
 80017d8:	488b      	ldr	r0, [pc, #556]	@ (8001a08 <main+0x2fc>)
	__HAL_RCC_GPIOC_CLK_ENABLE();
 80017da:	f043 0304 	orr.w	r3, r3, #4
 80017de:	632b      	str	r3, [r5, #48]	@ 0x30
 80017e0:	6b2b      	ldr	r3, [r5, #48]	@ 0x30
 80017e2:	f003 0304 	and.w	r3, r3, #4
 80017e6:	9302      	str	r3, [sp, #8]
 80017e8:	9b02      	ldr	r3, [sp, #8]
	__HAL_RCC_GPIOH_CLK_ENABLE();
 80017ea:	9403      	str	r4, [sp, #12]
 80017ec:	6b2b      	ldr	r3, [r5, #48]	@ 0x30
 80017ee:	f043 0380 	orr.w	r3, r3, #128	@ 0x80
 80017f2:	632b      	str	r3, [r5, #48]	@ 0x30
 80017f4:	6b2b      	ldr	r3, [r5, #48]	@ 0x30
 80017f6:	f003 0380 	and.w	r3, r3, #128	@ 0x80
 80017fa:	9303      	str	r3, [sp, #12]
 80017fc:	9b03      	ldr	r3, [sp, #12]
	__HAL_RCC_GPIOA_CLK_ENABLE();
 80017fe:	9404      	str	r4, [sp, #16]
 8001800:	6b2b      	ldr	r3, [r5, #48]	@ 0x30
 8001802:	4333      	orrs	r3, r6
 8001804:	632b      	str	r3, [r5, #48]	@ 0x30
 8001806:	6b2b      	ldr	r3, [r5, #48]	@ 0x30
 8001808:	4033      	ands	r3, r6
 800180a:	9304      	str	r3, [sp, #16]
 800180c:	9b04      	ldr	r3, [sp, #16]
	__HAL_RCC_GPIOB_CLK_ENABLE();
 800180e:	9405      	str	r4, [sp, #20]
 8001810:	6b2b      	ldr	r3, [r5, #48]	@ 0x30
 8001812:	f043 0302 	orr.w	r3, r3, #2
 8001816:	632b      	str	r3, [r5, #48]	@ 0x30
 8001818:	6b2b      	ldr	r3, [r5, #48]	@ 0x30
 800181a:	f003 0302 	and.w	r3, r3, #2
 800181e:	9305      	str	r3, [sp, #20]
	HAL_GPIO_WritePin(GPIOC, GPIO_PIN_13, GPIO_PIN_RESET);
 8001820:	4622      	mov	r2, r4
 8001822:	f44f 5100 	mov.w	r1, #8192	@ 0x2000
	__HAL_RCC_GPIOB_CLK_ENABLE();
 8001826:	9b05      	ldr	r3, [sp, #20]
	HAL_GPIO_WritePin(GPIOC, GPIO_PIN_13, GPIO_PIN_RESET);
 8001828:	f001 f9a8 	bl	8002b7c <HAL_GPIO_WritePin>
	HAL_GPIO_WritePin(GPIOB, GPIO_PIN_2, GPIO_PIN_RESET);
 800182c:	4622      	mov	r2, r4
 800182e:	4877      	ldr	r0, [pc, #476]	@ (8001a0c <main+0x300>)
 8001830:	2104      	movs	r1, #4
 8001832:	f001 f9a3 	bl	8002b7c <HAL_GPIO_WritePin>
	GPIO_InitStruct.Pin = GPIO_PIN_13;
 8001836:	f44f 5700 	mov.w	r7, #8192	@ 0x2000
	HAL_GPIO_Init(GPIOC, &GPIO_InitStruct);
 800183a:	4873      	ldr	r0, [pc, #460]	@ (8001a08 <main+0x2fc>)
 800183c:	a906      	add	r1, sp, #24
	GPIO_InitStruct.Mode = GPIO_MODE_OUTPUT_PP;
 800183e:	e9cd 7606 	strd	r7, r6, [sp, #24]
	GPIO_InitStruct.Speed = GPIO_SPEED_FREQ_LOW;
 8001842:	e9cd 4408 	strd	r4, r4, [sp, #32]
	GPIO_InitStruct.Pin = GPIO_PIN_2;
 8001846:	f04f 0804 	mov.w	r8, #4
	HAL_GPIO_Init(GPIOC, &GPIO_InitStruct);
 800184a:	f001 f8a1 	bl	8002990 <HAL_GPIO_Init>
	HAL_GPIO_Init(GPIOB, &GPIO_InitStruct);
 800184e:	486f      	ldr	r0, [pc, #444]	@ (8001a0c <main+0x300>)
	GPIO_InitStruct.Speed = GPIO_SPEED_FREQ_LOW;
 8001850:	9409      	str	r4, [sp, #36]	@ 0x24
	HAL_GPIO_Init(GPIOB, &GPIO_InitStruct);
 8001852:	a906      	add	r1, sp, #24
	GPIO_InitStruct.Pull = GPIO_NOPULL;
 8001854:	e9cd 6407 	strd	r6, r4, [sp, #28]
	GPIO_InitStruct.Pin = GPIO_PIN_2;
 8001858:	f8cd 8018 	str.w	r8, [sp, #24]
	HAL_GPIO_Init(GPIOB, &GPIO_InitStruct);
 800185c:	f001 f898 	bl	8002990 <HAL_GPIO_Init>
	__HAL_RCC_DMA1_CLK_ENABLE();
 8001860:	9400      	str	r4, [sp, #0]
 8001862:	6b2b      	ldr	r3, [r5, #48]	@ 0x30
 8001864:	f443 1300 	orr.w	r3, r3, #2097152	@ 0x200000
 8001868:	632b      	str	r3, [r5, #48]	@ 0x30
 800186a:	6b2b      	ldr	r3, [r5, #48]	@ 0x30
 800186c:	f403 1300 	and.w	r3, r3, #2097152	@ 0x200000
 8001870:	9300      	str	r3, [sp, #0]
 8001872:	9b00      	ldr	r3, [sp, #0]
	__HAL_RCC_DMA2_CLK_ENABLE();
 8001874:	9401      	str	r4, [sp, #4]
 8001876:	6b2b      	ldr	r3, [r5, #48]	@ 0x30
 8001878:	f443 0380 	orr.w	r3, r3, #4194304	@ 0x400000
 800187c:	632b      	str	r3, [r5, #48]	@ 0x30
 800187e:	6b2b      	ldr	r3, [r5, #48]	@ 0x30
	hi2s2.Instance = SPI2;
 8001880:	4d63      	ldr	r5, [pc, #396]	@ (8001a10 <main+0x304>)
	__HAL_RCC_DMA2_CLK_ENABLE();
 8001882:	f403 0380 	and.w	r3, r3, #4194304	@ 0x400000
	HAL_NVIC_SetPriority(DMA1_Stream4_IRQn, 0, 0);
 8001886:	4622      	mov	r2, r4
 8001888:	4621      	mov	r1, r4
	__HAL_RCC_DMA2_CLK_ENABLE();
 800188a:	9301      	str	r3, [sp, #4]
	HAL_NVIC_SetPriority(DMA1_Stream4_IRQn, 0, 0);
 800188c:	200f      	movs	r0, #15
	__HAL_RCC_DMA2_CLK_ENABLE();
 800188e:	9b01      	ldr	r3, [sp, #4]
	HAL_NVIC_SetPriority(DMA1_Stream4_IRQn, 0, 0);
 8001890:	f000 fe16 	bl	80024c0 <HAL_NVIC_SetPriority>
	HAL_NVIC_EnableIRQ(DMA1_Stream4_IRQn);
 8001894:	200f      	movs	r0, #15
 8001896:	f000 fe4f 	bl	8002538 <HAL_NVIC_EnableIRQ>
	HAL_NVIC_SetPriority(DMA2_Stream0_IRQn, 0, 0);
 800189a:	4622      	mov	r2, r4
 800189c:	4621      	mov	r1, r4
 800189e:	2038      	movs	r0, #56	@ 0x38
 80018a0:	f000 fe0e 	bl	80024c0 <HAL_NVIC_SetPriority>
	HAL_NVIC_EnableIRQ(DMA2_Stream0_IRQn);
 80018a4:	2038      	movs	r0, #56	@ 0x38
 80018a6:	f000 fe47 	bl	8002538 <HAL_NVIC_EnableIRQ>
	HAL_NVIC_SetPriority(DMA2_Stream2_IRQn, 0, 0);
 80018aa:	4622      	mov	r2, r4
 80018ac:	4621      	mov	r1, r4
 80018ae:	203a      	movs	r0, #58	@ 0x3a
 80018b0:	f000 fe06 	bl	80024c0 <HAL_NVIC_SetPriority>
	HAL_NVIC_EnableIRQ(DMA2_Stream2_IRQn);
 80018b4:	203a      	movs	r0, #58	@ 0x3a
 80018b6:	f000 fe3f 	bl	8002538 <HAL_NVIC_EnableIRQ>
	hi2s2.Init.Mode = I2S_MODE_MASTER_TX;
 80018ba:	f44f 7300 	mov.w	r3, #512	@ 0x200
 80018be:	e9c5 9300 	strd	r9, r3, [r5]
	if (HAL_I2S_Init(&hi2s2) != HAL_OK)
 80018c2:	4628      	mov	r0, r5
	hi2s2.Init.AudioFreq = I2S_AUDIOFREQ_44K;
 80018c4:	f64a 4344 	movw	r3, #44100	@ 0xac44
	hi2s2.Init.DataFormat = I2S_DATAFORMAT_16B_EXTENDED;
 80018c8:	e9c5 4602 	strd	r4, r6, [r5, #8]
	hi2s2.Init.ClockSource = I2S_CLOCK_PLL;
 80018cc:	e9c5 4406 	strd	r4, r4, [r5, #24]
	hi2s2.Init.MCLKOutput = I2S_MCLKOUTPUT_DISABLE;
 80018d0:	612c      	str	r4, [r5, #16]
	hi2s2.Init.FullDuplexMode = I2S_FULLDUPLEXMODE_DISABLE;
 80018d2:	622c      	str	r4, [r5, #32]
	hi2s2.Init.AudioFreq = I2S_AUDIOFREQ_44K;
 80018d4:	616b      	str	r3, [r5, #20]
	if (HAL_I2S_Init(&hi2s2) != HAL_OK)
 80018d6:	f001 fbf1 	bl	80030bc <HAL_I2S_Init>
 80018da:	b108      	cbz	r0, 80018e0 <main+0x1d4>
 80018dc:	b672      	cpsid	i
	while (1)
 80018de:	e7fe      	b.n	80018de <main+0x1d2>
	hadc1.Instance = ADC1;
 80018e0:	4c4c      	ldr	r4, [pc, #304]	@ (8001a14 <main+0x308>)
	hadc1.Init.ClockPrescaler = ADC_CLOCK_SYNC_PCLK_DIV8;
 80018e2:	f8df e154 	ldr.w	lr, [pc, #340]	@ 8001a38 <main+0x32c>
	hadc1.Init.ExternalTrigConv = ADC_SOFTWARE_START;
 80018e6:	4a4c      	ldr	r2, [pc, #304]	@ (8001a18 <main+0x30c>)
	hadc1.Init.DiscontinuousConvMode = DISABLE;
 80018e8:	f884 0020 	strb.w	r0, [r4, #32]
	hadc1.Init.ClockPrescaler = ADC_CLOCK_SYNC_PCLK_DIV8;
 80018ec:	f44f 3340 	mov.w	r3, #196608	@ 0x30000
 80018f0:	e9c4 e300 	strd	lr, r3, [r4]
	hadc1.Init.Resolution = ADC_RESOLUTION_10B;
 80018f4:	f04f 7380 	mov.w	r3, #16777216	@ 0x1000000
	ADC_ChannelConfTypeDef sConfig = {0};
 80018f8:	e9cd 0006 	strd	r0, r0, [sp, #24]
 80018fc:	e9cd 0008 	strd	r0, r0, [sp, #32]
	hadc1.Init.DataAlign = ADC_DATAALIGN_RIGHT;
 8001900:	60e0      	str	r0, [r4, #12]
	hadc1.Init.Resolution = ADC_RESOLUTION_10B;
 8001902:	60a3      	str	r3, [r4, #8]
	hadc1.Init.NbrOfConversion = 3;
 8001904:	f04f 0903 	mov.w	r9, #3
	hadc1.Init.ExternalTrigConv = ADC_SOFTWARE_START;
 8001908:	2300      	movs	r3, #0
	if (HAL_ADC_Init(&hadc1) != HAL_OK)
 800190a:	4620      	mov	r0, r4
	hadc1.Init.ExternalTrigConv = ADC_SOFTWARE_START;
 800190c:	e9c4 230a 	strd	r2, r3, [r4, #40]	@ 0x28
	hadc1.Init.ScanConvMode = ENABLE;
 8001910:	6126      	str	r6, [r4, #16]
	hadc1.Init.ContinuousConvMode = ENABLE;
 8001912:	7626      	strb	r6, [r4, #24]
	hadc1.Init.DMAContinuousRequests = ENABLE;
 8001914:	f884 6030 	strb.w	r6, [r4, #48]	@ 0x30
	hadc1.Init.EOCSelection = ADC_EOC_SINGLE_CONV;
 8001918:	6166      	str	r6, [r4, #20]
	hadc1.Init.NbrOfConversion = 3;
 800191a:	f8c4 901c 	str.w	r9, [r4, #28]
	if (HAL_ADC_Init(&hadc1) != HAL_OK)
 800191e:	f000 fb79 	bl	8002014 <HAL_ADC_Init>
 8001922:	b108      	cbz	r0, 8001928 <main+0x21c>
 8001924:	b672      	cpsid	i
	while (1)
 8001926:	e7fe      	b.n	8001926 <main+0x21a>
	sConfig.SamplingTime = ADC_SAMPLETIME_3CYCLES;
 8001928:	9008      	str	r0, [sp, #32]
	sConfig.Channel = ADC_CHANNEL_1;
 800192a:	2201      	movs	r2, #1
 800192c:	2301      	movs	r3, #1
	if (HAL_ADC_ConfigChannel(&hadc1, &sConfig) != HAL_OK)
 800192e:	a906      	add	r1, sp, #24
 8001930:	4620      	mov	r0, r4
	sConfig.Channel = ADC_CHANNEL_1;
 8001932:	e9cd 2306 	strd	r2, r3, [sp, #24]
	if (HAL_ADC_ConfigChannel(&hadc1, &sConfig) != HAL_OK)
 8001936:	f000 fcfb 	bl	8002330 <HAL_ADC_ConfigChannel>
 800193a:	b108      	cbz	r0, 8001940 <main+0x234>
 800193c:	b672      	cpsid	i
	while (1)
 800193e:	e7fe      	b.n	800193e <main+0x232>
	sConfig.Channel = ADC_CHANNEL_6;
 8001940:	2206      	movs	r2, #6
 8001942:	2302      	movs	r3, #2
	if (HAL_ADC_ConfigChannel(&hadc1, &sConfig) != HAL_OK)
 8001944:	a906      	add	r1, sp, #24
 8001946:	4620      	mov	r0, r4
	sConfig.Channel = ADC_CHANNEL_6;
 8001948:	e9cd 2306 	strd	r2, r3, [sp, #24]
	if (HAL_ADC_ConfigChannel(&hadc1, &sConfig) != HAL_OK)
 800194c:	f000 fcf0 	bl	8002330 <HAL_ADC_ConfigChannel>
 8001950:	b108      	cbz	r0, 8001956 <main+0x24a>
 8001952:	b672      	cpsid	i
	while (1)
 8001954:	e7fe      	b.n	8001954 <main+0x248>
	sConfig.Channel = ADC_CHANNEL_7;
 8001956:	2303      	movs	r3, #3
 8001958:	2207      	movs	r2, #7
	if (HAL_ADC_ConfigChannel(&hadc1, &sConfig) != HAL_OK)
 800195a:	a906      	add	r1, sp, #24
 800195c:	4620      	mov	r0, r4
	sConfig.Channel = ADC_CHANNEL_7;
 800195e:	e9cd 2306 	strd	r2, r3, [sp, #24]
	if (HAL_ADC_ConfigChannel(&hadc1, &sConfig) != HAL_OK)
 8001962:	f000 fce5 	bl	8002330 <HAL_ADC_ConfigChannel>
 8001966:	4603      	mov	r3, r0
 8001968:	b108      	cbz	r0, 800196e <main+0x262>
 800196a:	b672      	cpsid	i
	while (1)
 800196c:	e7fe      	b.n	800196c <main+0x260>
	hi2c1.Instance = I2C1;
 800196e:	482b      	ldr	r0, [pc, #172]	@ (8001a1c <main+0x310>)
	hi2c1.Init.ClockSpeed = 100000;
 8001970:	f8df c0c8 	ldr.w	ip, [pc, #200]	@ 8001a3c <main+0x330>
	hi2c1.Init.OwnAddress1 = 0;
 8001974:	e9c0 3302 	strd	r3, r3, [r0, #8]
	hi2c1.Init.OwnAddress2 = 0;
 8001978:	e9c0 3305 	strd	r3, r3, [r0, #20]
	hi2c1.Init.NoStretchMode = I2C_NOSTRETCH_DISABLE;
 800197c:	e9c0 3307 	strd	r3, r3, [r0, #28]
	hi2c1.Init.ClockSpeed = 100000;
 8001980:	4b27      	ldr	r3, [pc, #156]	@ (8001a20 <main+0x314>)
 8001982:	e9c0 c300 	strd	ip, r3, [r0]
	hi2c1.Init.AddressingMode = I2C_ADDRESSINGMODE_7BIT;
 8001986:	f44f 4380 	mov.w	r3, #16384	@ 0x4000
 800198a:	6103      	str	r3, [r0, #16]
	if (HAL_I2C_Init(&hi2c1) != HAL_OK)
 800198c:	f001 f982 	bl	8002c94 <HAL_I2C_Init>
 8001990:	4603      	mov	r3, r0
 8001992:	b108      	cbz	r0, 8001998 <main+0x28c>
 8001994:	b672      	cpsid	i
	while (1)
 8001996:	e7fe      	b.n	8001996 <main+0x28a>
	huart2.Instance = USART2;
 8001998:	4822      	ldr	r0, [pc, #136]	@ (8001a24 <main+0x318>)
	huart2.Init.BaudRate = 2000000;
 800199a:	4923      	ldr	r1, [pc, #140]	@ (8001a28 <main+0x31c>)
	huart2.Init.Parity = UART_PARITY_NONE;
 800199c:	6103      	str	r3, [r0, #16]
	huart2.Init.StopBits = UART_STOPBITS_1;
 800199e:	e9c0 3302 	strd	r3, r3, [r0, #8]
	huart2.Init.OverSampling = UART_OVERSAMPLING_16;
 80019a2:	e9c0 3306 	strd	r3, r3, [r0, #24]
	huart2.Init.BaudRate = 2000000;
 80019a6:	4b21      	ldr	r3, [pc, #132]	@ (8001a2c <main+0x320>)
 80019a8:	e9c0 1300 	strd	r1, r3, [r0]
	huart2.Init.Mode = UART_MODE_TX_RX;
 80019ac:	230c      	movs	r3, #12
 80019ae:	6143      	str	r3, [r0, #20]
	if (HAL_UART_Init(&huart2) != HAL_OK)
 80019b0:	f002 fa1c 	bl	8003dec <HAL_UART_Init>
 80019b4:	b108      	cbz	r0, 80019ba <main+0x2ae>
 80019b6:	b672      	cpsid	i
	while (1)
 80019b8:	e7fe      	b.n	80019b8 <main+0x2ac>
	huart1.Instance = USART1;
 80019ba:	f8df a084 	ldr.w	sl, [pc, #132]	@ 8001a40 <main+0x334>
	huart1.Init.BaudRate = 31250;
 80019be:	4a1c      	ldr	r2, [pc, #112]	@ (8001a30 <main+0x324>)
	huart1.Init.Parity = UART_PARITY_NONE;
 80019c0:	f8ca 0010 	str.w	r0, [sl, #16]
	huart1.Init.StopBits = UART_STOPBITS_1;
 80019c4:	e9ca 0002 	strd	r0, r0, [sl, #8]
	huart1.Init.OverSampling = UART_OVERSAMPLING_16;
 80019c8:	e9ca 0006 	strd	r0, r0, [sl, #24]
	huart1.Init.BaudRate = 31250;
 80019cc:	f647 2312 	movw	r3, #31250	@ 0x7a12
	if (HAL_UART_Init(&huart1) != HAL_OK)
 80019d0:	4650      	mov	r0, sl
	huart1.Init.Mode = UART_MODE_RX;
 80019d2:	f8ca 8014 	str.w	r8, [sl, #20]
	huart1.Init.BaudRate = 31250;
 80019d6:	e9ca 2300 	strd	r2, r3, [sl]
	if (HAL_UART_Init(&huart1) != HAL_OK)
 80019da:	f002 fa07 	bl	8003dec <HAL_UART_Init>
 80019de:	4680      	mov	r8, r0
 80019e0:	b380      	cbz	r0, 8001a44 <main+0x338>
 80019e2:	b672      	cpsid	i
	while (1)
 80019e4:	e7fe      	b.n	80019e4 <main+0x2d8>
 80019e6:	bf00      	nop
 80019e8:	2000008c 	.word	0x2000008c
 80019ec:	20000238 	.word	0x20000238
 80019f0:	2000000c 	.word	0x2000000c
 80019f4:	40023800 	.word	0x40023800
 80019f8:	20000008 	.word	0x20000008
 80019fc:	20000004 	.word	0x20000004
 8001a00:	20000000 	.word	0x20000000
 8001a04:	20000090 	.word	0x20000090
 8001a08:	40020800 	.word	0x40020800
 8001a0c:	40020400 	.word	0x40020400
 8001a10:	20001bd8 	.word	0x20001bd8
 8001a14:	20001cd8 	.word	0x20001cd8
 8001a18:	0f000001 	.word	0x0f000001
 8001a1c:	20001c20 	.word	0x20001c20
 8001a20:	000186a0 	.word	0x000186a0
 8001a24:	20001ae8 	.word	0x20001ae8
 8001a28:	40004400 	.word	0x40004400
 8001a2c:	001e8480 	.word	0x001e8480
 8001a30:	40011000 	.word	0x40011000
 8001a34:	40003800 	.word	0x40003800
 8001a38:	40012000 	.word	0x40012000
 8001a3c:	40005400 	.word	0x40005400
 8001a40:	20001b30 	.word	0x20001b30
	HAL_I2S_Transmit_DMA(&hi2s2, (uint16_t*) dma_out, FULL_BUFFER_SIZE);
 8001a44:	4934      	ldr	r1, [pc, #208]	@ (8001b18 <main+0x40c>)
			int a = ADCGain * 100 * 2;
 8001a46:	ed9f 8a35 	vldr	s16, [pc, #212]	@ 8001b1c <main+0x410>
	HAL_I2S_Transmit_DMA(&hi2s2, (uint16_t*) dma_out, FULL_BUFFER_SIZE);
 8001a4a:	4628      	mov	r0, r5
 8001a4c:	f44f 6200 	mov.w	r2, #2048	@ 0x800
 8001a50:	f001 fbe0 	bl	8003214 <HAL_I2S_Transmit_DMA>
	HAL_ADC_Start_DMA(&hadc1, (uint32_t*) adc1_buf, ADC_BUFFER_SIZE);
 8001a54:	4932      	ldr	r1, [pc, #200]	@ (8001b20 <main+0x414>)
 8001a56:	4d33      	ldr	r5, [pc, #204]	@ (8001b24 <main+0x418>)
 8001a58:	4620      	mov	r0, r4
 8001a5a:	2206      	movs	r2, #6
 8001a5c:	f000 fb86 	bl	800216c <HAL_ADC_Start_DMA>
	HAL_UART_Receive_DMA(&huart1, rxBuff, 3);
 8001a60:	4931      	ldr	r1, [pc, #196]	@ (8001b28 <main+0x41c>)
 8001a62:	4c32      	ldr	r4, [pc, #200]	@ (8001b2c <main+0x420>)
 8001a64:	464a      	mov	r2, r9
 8001a66:	4650      	mov	r0, sl
 8001a68:	f002 fd76 	bl	8004558 <HAL_UART_Receive_DMA>
	HAL_GPIO_WritePin(GPIOC, GPIO_PIN_13, SET);  //LED za debug
 8001a6c:	4632      	mov	r2, r6
 8001a6e:	4639      	mov	r1, r7
 8001a70:	482f      	ldr	r0, [pc, #188]	@ (8001b30 <main+0x424>)
 8001a72:	4f30      	ldr	r7, [pc, #192]	@ (8001b34 <main+0x428>)
 8001a74:	f001 f882 	bl	8002b7c <HAL_GPIO_WritePin>
	I2C_LCD_Init(MyI2C_LCD);
 8001a78:	4640      	mov	r0, r8
 8001a7a:	f002 fe1f 	bl	80046bc <I2C_LCD_Init>
	I2C_LCD_SetCursor(MyI2C_LCD, 0, 0);
 8001a7e:	4642      	mov	r2, r8
 8001a80:	4641      	mov	r1, r8
 8001a82:	4640      	mov	r0, r8
 8001a84:	f002 ff76 	bl	8004974 <I2C_LCD_SetCursor>
	I2C_LCD_WriteString(MyI2C_LCD, "Lero");
 8001a88:	4640      	mov	r0, r8
 8001a8a:	492b      	ldr	r1, [pc, #172]	@ (8001b38 <main+0x42c>)
 8001a8c:	f002 ff9c 	bl	80049c8 <I2C_LCD_WriteString>
	I2C_LCD_SetCursor(MyI2C_LCD, 0, 1);
 8001a90:	4632      	mov	r2, r6
 8001a92:	4641      	mov	r1, r8
 8001a94:	4640      	mov	r0, r8
 8001a96:	f002 ff6d 	bl	8004974 <I2C_LCD_SetCursor>
	I2C_LCD_WriteString(MyI2C_LCD, "synth");
 8001a9a:	4928      	ldr	r1, [pc, #160]	@ (8001b3c <main+0x430>)
			itoa(a, str, 10); //integer to ascii
 8001a9c:	4e28      	ldr	r6, [pc, #160]	@ (8001b40 <main+0x434>)
	I2C_LCD_WriteString(MyI2C_LCD, "synth");
 8001a9e:	4640      	mov	r0, r8
 8001aa0:	f002 ff92 	bl	80049c8 <I2C_LCD_WriteString>
	HAL_Delay(2000);
 8001aa4:	f44f 60fa 	mov.w	r0, #2000	@ 0x7d0
 8001aa8:	f000 faa2 	bl	8001ff0 <HAL_Delay>
	I2C_LCD_Clear(MyI2C_LCD);
 8001aac:	4640      	mov	r0, r8
 8001aae:	f002 ff09 	bl	80048c4 <I2C_LCD_Clear>
	HAL_Delay(500);
 8001ab2:	f44f 70fa 	mov.w	r0, #500	@ 0x1f4
 8001ab6:	f000 fa9b 	bl	8001ff0 <HAL_Delay>
	I2C_LCD_WriteString(MyI2C_LCD, "Volume: ");
 8001aba:	4640      	mov	r0, r8
 8001abc:	4921      	ldr	r1, [pc, #132]	@ (8001b44 <main+0x438>)
			I2C_LCD_WriteString(MyI2C_LCD, "   ");
 8001abe:	f8df 8088 	ldr.w	r8, [pc, #136]	@ 8001b48 <main+0x43c>
	I2C_LCD_WriteString(MyI2C_LCD, "Volume: ");
 8001ac2:	f002 ff81 	bl	80049c8 <I2C_LCD_WriteString>
		HAL_Delay(500);
 8001ac6:	f44f 70fa 	mov.w	r0, #500	@ 0x1f4
 8001aca:	f000 fa91 	bl	8001ff0 <HAL_Delay>
		if(ADCGain_changed_flag){
 8001ace:	682b      	ldr	r3, [r5, #0]
			I2C_LCD_SetCursor(MyI2C_LCD, 7, 0);
 8001ad0:	2200      	movs	r2, #0
		if(ADCGain_changed_flag){
 8001ad2:	b1f3      	cbz	r3, 8001b12 <main+0x406>
			I2C_LCD_SetCursor(MyI2C_LCD, 7, 0);
 8001ad4:	4610      	mov	r0, r2
 8001ad6:	2107      	movs	r1, #7
 8001ad8:	f002 ff4c 	bl	8004974 <I2C_LCD_SetCursor>
			int a = ADCGain * 100 * 2;
 8001adc:	edd4 7a00 	vldr	s15, [r4]
 8001ae0:	ee67 7a88 	vmul.f32	s15, s15, s16
			itoa(a, str, 10); //integer to ascii
 8001ae4:	220a      	movs	r2, #10
 8001ae6:	eefd 7ae7 	vcvt.s32.f32	s15, s15
 8001aea:	4631      	mov	r1, r6
 8001aec:	ee17 0a90 	vmov	r0, s15
 8001af0:	f003 f84a 	bl	8004b88 <itoa>
			I2C_LCD_WriteString(MyI2C_LCD, "   ");
 8001af4:	4641      	mov	r1, r8
 8001af6:	2000      	movs	r0, #0
 8001af8:	f002 ff66 	bl	80049c8 <I2C_LCD_WriteString>
			I2C_LCD_SetCursor(MyI2C_LCD, 7, 0);
 8001afc:	2200      	movs	r2, #0
 8001afe:	4610      	mov	r0, r2
 8001b00:	2107      	movs	r1, #7
 8001b02:	f002 ff37 	bl	8004974 <I2C_LCD_SetCursor>
			I2C_LCD_WriteString(MyI2C_LCD, str);
 8001b06:	4631      	mov	r1, r6
 8001b08:	2000      	movs	r0, #0
 8001b0a:	f002 ff5d 	bl	80049c8 <I2C_LCD_WriteString>
			ADCGain_changed_flag = 0;
 8001b0e:	2300      	movs	r3, #0
 8001b10:	602b      	str	r3, [r5, #0]
		prevADCGain = ADCGain;
 8001b12:	6823      	ldr	r3, [r4, #0]
 8001b14:	603b      	str	r3, [r7, #0]
		HAL_Delay(500);
 8001b16:	e7d6      	b.n	8001ac6 <main+0x3ba>
 8001b18:	20000a88 	.word	0x20000a88
 8001b1c:	43480000 	.word	0x43480000
 8001b20:	20000a7c 	.word	0x20000a7c
 8001b24:	20000a4c 	.word	0x20000a4c
 8001b28:	20000a78 	.word	0x20000a78
 8001b2c:	20000a54 	.word	0x20000a54
 8001b30:	40020800 	.word	0x40020800
 8001b34:	20000a50 	.word	0x20000a50
 8001b38:	08005138 	.word	0x08005138
 8001b3c:	08005140 	.word	0x08005140
 8001b40:	20000228 	.word	0x20000228
 8001b44:	08005148 	.word	0x08005148
 8001b48:	08005154 	.word	0x08005154

08001b4c <Error_Handler>:
 8001b4c:	b672      	cpsid	i
	while (1)
 8001b4e:	e7fe      	b.n	8001b4e <Error_Handler+0x2>

08001b50 <HAL_MspInit>:
/* USER CODE END 0 */
/**
  * Initializes the Global MSP.
  */
void HAL_MspInit(void)
{
 8001b50:	b082      	sub	sp, #8

  /* USER CODE BEGIN MspInit 0 */

  /* USER CODE END MspInit 0 */

  __HAL_RCC_SYSCFG_CLK_ENABLE();
 8001b52:	4b0c      	ldr	r3, [pc, #48]	@ (8001b84 <HAL_MspInit+0x34>)
 8001b54:	2100      	movs	r1, #0
 8001b56:	9100      	str	r1, [sp, #0]
 8001b58:	6c5a      	ldr	r2, [r3, #68]	@ 0x44
 8001b5a:	f442 4280 	orr.w	r2, r2, #16384	@ 0x4000
 8001b5e:	645a      	str	r2, [r3, #68]	@ 0x44
 8001b60:	6c5a      	ldr	r2, [r3, #68]	@ 0x44
 8001b62:	f402 4280 	and.w	r2, r2, #16384	@ 0x4000
 8001b66:	9200      	str	r2, [sp, #0]
 8001b68:	9a00      	ldr	r2, [sp, #0]
  __HAL_RCC_PWR_CLK_ENABLE();
 8001b6a:	9101      	str	r1, [sp, #4]
 8001b6c:	6c1a      	ldr	r2, [r3, #64]	@ 0x40
 8001b6e:	f042 5280 	orr.w	r2, r2, #268435456	@ 0x10000000
 8001b72:	641a      	str	r2, [r3, #64]	@ 0x40
 8001b74:	6c1b      	ldr	r3, [r3, #64]	@ 0x40
 8001b76:	f003 5380 	and.w	r3, r3, #268435456	@ 0x10000000
 8001b7a:	9301      	str	r3, [sp, #4]
 8001b7c:	9b01      	ldr	r3, [sp, #4]
  /* System interrupt init*/

  /* USER CODE BEGIN MspInit 1 */

  /* USER CODE END MspInit 1 */
}
 8001b7e:	b002      	add	sp, #8
 8001b80:	4770      	bx	lr
 8001b82:	bf00      	nop
 8001b84:	40023800 	.word	0x40023800

08001b88 <HAL_ADC_MspInit>:
* This function configures the hardware resources used in this example
* @param hadc: ADC handle pointer
* @retval None
*/
void HAL_ADC_MspInit(ADC_HandleTypeDef* hadc)
{
 8001b88:	b570      	push	{r4, r5, r6, lr}
  GPIO_InitTypeDef GPIO_InitStruct = {0};
  if(hadc->Instance==ADC1)
 8001b8a:	4b25      	ldr	r3, [pc, #148]	@ (8001c20 <HAL_ADC_MspInit+0x98>)
 8001b8c:	6802      	ldr	r2, [r0, #0]
{
 8001b8e:	b088      	sub	sp, #32
  GPIO_InitTypeDef GPIO_InitStruct = {0};
 8001b90:	2400      	movs	r4, #0
  if(hadc->Instance==ADC1)
 8001b92:	429a      	cmp	r2, r3
  GPIO_InitTypeDef GPIO_InitStruct = {0};
 8001b94:	e9cd 4402 	strd	r4, r4, [sp, #8]
 8001b98:	e9cd 4404 	strd	r4, r4, [sp, #16]
 8001b9c:	9406      	str	r4, [sp, #24]
  if(hadc->Instance==ADC1)
 8001b9e:	d001      	beq.n	8001ba4 <HAL_ADC_MspInit+0x1c>

  /* USER CODE END ADC1_MspInit 1 */

  }

}
 8001ba0:	b008      	add	sp, #32
 8001ba2:	bd70      	pop	{r4, r5, r6, pc}
    __HAL_RCC_ADC1_CLK_ENABLE();
 8001ba4:	f503 338c 	add.w	r3, r3, #71680	@ 0x11800
 8001ba8:	9400      	str	r4, [sp, #0]
 8001baa:	6c5a      	ldr	r2, [r3, #68]	@ 0x44
    hdma_adc1.Instance = DMA2_Stream0;
 8001bac:	4e1d      	ldr	r6, [pc, #116]	@ (8001c24 <HAL_ADC_MspInit+0x9c>)
    __HAL_RCC_ADC1_CLK_ENABLE();
 8001bae:	f442 7280 	orr.w	r2, r2, #256	@ 0x100
 8001bb2:	645a      	str	r2, [r3, #68]	@ 0x44
 8001bb4:	6c5a      	ldr	r2, [r3, #68]	@ 0x44
 8001bb6:	f402 7280 	and.w	r2, r2, #256	@ 0x100
 8001bba:	9200      	str	r2, [sp, #0]
 8001bbc:	9a00      	ldr	r2, [sp, #0]
    __HAL_RCC_GPIOA_CLK_ENABLE();
 8001bbe:	9401      	str	r4, [sp, #4]
 8001bc0:	6b1a      	ldr	r2, [r3, #48]	@ 0x30
 8001bc2:	f042 0201 	orr.w	r2, r2, #1
 8001bc6:	631a      	str	r2, [r3, #48]	@ 0x30
 8001bc8:	6b1b      	ldr	r3, [r3, #48]	@ 0x30
 8001bca:	f003 0301 	and.w	r3, r3, #1
 8001bce:	9301      	str	r3, [sp, #4]
    GPIO_InitStruct.Pin = GPIO_PIN_1|GPIO_PIN_6|GPIO_PIN_7;
 8001bd0:	22c2      	movs	r2, #194	@ 0xc2
 8001bd2:	2303      	movs	r3, #3
 8001bd4:	4605      	mov	r5, r0
    HAL_GPIO_Init(GPIOA, &GPIO_InitStruct);
 8001bd6:	a902      	add	r1, sp, #8
 8001bd8:	4813      	ldr	r0, [pc, #76]	@ (8001c28 <HAL_ADC_MspInit+0xa0>)
    GPIO_InitStruct.Pin = GPIO_PIN_1|GPIO_PIN_6|GPIO_PIN_7;
 8001bda:	e9cd 2302 	strd	r2, r3, [sp, #8]
    __HAL_RCC_GPIOA_CLK_ENABLE();
 8001bde:	9b01      	ldr	r3, [sp, #4]
    HAL_GPIO_Init(GPIOA, &GPIO_InitStruct);
 8001be0:	f000 fed6 	bl	8002990 <HAL_GPIO_Init>
    hdma_adc1.Instance = DMA2_Stream0;
 8001be4:	4a11      	ldr	r2, [pc, #68]	@ (8001c2c <HAL_ADC_MspInit+0xa4>)
    hdma_adc1.Init.FIFOMode = DMA_FIFOMODE_DISABLE;
 8001be6:	6274      	str	r4, [r6, #36]	@ 0x24
    hdma_adc1.Init.MemInc = DMA_MINC_ENABLE;
 8001be8:	f44f 6380 	mov.w	r3, #1024	@ 0x400
    hdma_adc1.Init.Channel = DMA_CHANNEL_0;
 8001bec:	e9c6 2400 	strd	r2, r4, [r6]
    hdma_adc1.Init.MemInc = DMA_MINC_ENABLE;
 8001bf0:	6133      	str	r3, [r6, #16]
    hdma_adc1.Init.MemDataAlignment = DMA_MDATAALIGN_HALFWORD;
 8001bf2:	f44f 6200 	mov.w	r2, #2048	@ 0x800
 8001bf6:	f44f 5300 	mov.w	r3, #8192	@ 0x2000
 8001bfa:	e9c6 2305 	strd	r2, r3, [r6, #20]
    if (HAL_DMA_Init(&hdma_adc1) != HAL_OK)
 8001bfe:	4630      	mov	r0, r6
    hdma_adc1.Init.Mode = DMA_CIRCULAR;
 8001c00:	f44f 7380 	mov.w	r3, #256	@ 0x100
    hdma_adc1.Init.PeriphInc = DMA_PINC_DISABLE;
 8001c04:	e9c6 4402 	strd	r4, r4, [r6, #8]
    hdma_adc1.Init.Priority = DMA_PRIORITY_LOW;
 8001c08:	e9c6 3407 	strd	r3, r4, [r6, #28]
    if (HAL_DMA_Init(&hdma_adc1) != HAL_OK)
 8001c0c:	f000 fcbc 	bl	8002588 <HAL_DMA_Init>
 8001c10:	b918      	cbnz	r0, 8001c1a <HAL_ADC_MspInit+0x92>
    __HAL_LINKDMA(hadc,DMA_Handle,hdma_adc1);
 8001c12:	63ae      	str	r6, [r5, #56]	@ 0x38
 8001c14:	63b5      	str	r5, [r6, #56]	@ 0x38
}
 8001c16:	b008      	add	sp, #32
 8001c18:	bd70      	pop	{r4, r5, r6, pc}
      Error_Handler();
 8001c1a:	f7ff ff97 	bl	8001b4c <Error_Handler>
 8001c1e:	e7f8      	b.n	8001c12 <HAL_ADC_MspInit+0x8a>
 8001c20:	40012000 	.word	0x40012000
 8001c24:	20001c74 	.word	0x20001c74
 8001c28:	40020000 	.word	0x40020000
 8001c2c:	40026410 	.word	0x40026410

08001c30 <HAL_I2C_MspInit>:
* This function configures the hardware resources used in this example
* @param hi2c: I2C handle pointer
* @retval None
*/
void HAL_I2C_MspInit(I2C_HandleTypeDef* hi2c)
{
 8001c30:	b530      	push	{r4, r5, lr}
  GPIO_InitTypeDef GPIO_InitStruct = {0};
  if(hi2c->Instance==I2C1)
 8001c32:	4b18      	ldr	r3, [pc, #96]	@ (8001c94 <HAL_I2C_MspInit+0x64>)
 8001c34:	6802      	ldr	r2, [r0, #0]
{
 8001c36:	b089      	sub	sp, #36	@ 0x24
  GPIO_InitTypeDef GPIO_InitStruct = {0};
 8001c38:	2400      	movs	r4, #0
  if(hi2c->Instance==I2C1)
 8001c3a:	429a      	cmp	r2, r3
  GPIO_InitTypeDef GPIO_InitStruct = {0};
 8001c3c:	e9cd 4402 	strd	r4, r4, [sp, #8]
 8001c40:	e9cd 4404 	strd	r4, r4, [sp, #16]
 8001c44:	9406      	str	r4, [sp, #24]
  if(hi2c->Instance==I2C1)
 8001c46:	d001      	beq.n	8001c4c <HAL_I2C_MspInit+0x1c>

  /* USER CODE END I2C1_MspInit 1 */

  }

}
 8001c48:	b009      	add	sp, #36	@ 0x24
 8001c4a:	bd30      	pop	{r4, r5, pc}
    __HAL_RCC_GPIOB_CLK_ENABLE();
 8001c4c:	4d12      	ldr	r5, [pc, #72]	@ (8001c98 <HAL_I2C_MspInit+0x68>)
 8001c4e:	9400      	str	r4, [sp, #0]
 8001c50:	6b2b      	ldr	r3, [r5, #48]	@ 0x30
    HAL_GPIO_Init(GPIOB, &GPIO_InitStruct);
 8001c52:	4812      	ldr	r0, [pc, #72]	@ (8001c9c <HAL_I2C_MspInit+0x6c>)
    __HAL_RCC_GPIOB_CLK_ENABLE();
 8001c54:	f043 0302 	orr.w	r3, r3, #2
 8001c58:	632b      	str	r3, [r5, #48]	@ 0x30
 8001c5a:	6b2b      	ldr	r3, [r5, #48]	@ 0x30
 8001c5c:	f003 0302 	and.w	r3, r3, #2
 8001c60:	9300      	str	r3, [sp, #0]
    GPIO_InitStruct.Pin = GPIO_PIN_6|GPIO_PIN_7;
 8001c62:	22c0      	movs	r2, #192	@ 0xc0
 8001c64:	2312      	movs	r3, #18
 8001c66:	e9cd 2302 	strd	r2, r3, [sp, #8]
    GPIO_InitStruct.Speed = GPIO_SPEED_FREQ_VERY_HIGH;
 8001c6a:	2303      	movs	r3, #3
 8001c6c:	9305      	str	r3, [sp, #20]
    HAL_GPIO_Init(GPIOB, &GPIO_InitStruct);
 8001c6e:	a902      	add	r1, sp, #8
    GPIO_InitStruct.Speed = GPIO_SPEED_FREQ_VERY_HIGH;
 8001c70:	2304      	movs	r3, #4
 8001c72:	9306      	str	r3, [sp, #24]
    __HAL_RCC_GPIOB_CLK_ENABLE();
 8001c74:	9a00      	ldr	r2, [sp, #0]
    HAL_GPIO_Init(GPIOB, &GPIO_InitStruct);
 8001c76:	f000 fe8b 	bl	8002990 <HAL_GPIO_Init>
    __HAL_RCC_I2C1_CLK_ENABLE();
 8001c7a:	9401      	str	r4, [sp, #4]
 8001c7c:	6c2b      	ldr	r3, [r5, #64]	@ 0x40
 8001c7e:	f443 1300 	orr.w	r3, r3, #2097152	@ 0x200000
 8001c82:	642b      	str	r3, [r5, #64]	@ 0x40
 8001c84:	6c2b      	ldr	r3, [r5, #64]	@ 0x40
 8001c86:	f403 1300 	and.w	r3, r3, #2097152	@ 0x200000
 8001c8a:	9301      	str	r3, [sp, #4]
 8001c8c:	9b01      	ldr	r3, [sp, #4]
}
 8001c8e:	b009      	add	sp, #36	@ 0x24
 8001c90:	bd30      	pop	{r4, r5, pc}
 8001c92:	bf00      	nop
 8001c94:	40005400 	.word	0x40005400
 8001c98:	40023800 	.word	0x40023800
 8001c9c:	40020400 	.word	0x40020400

08001ca0 <HAL_I2S_MspInit>:
* This function configures the hardware resources used in this example
* @param hi2s: I2S handle pointer
* @retval None
*/
void HAL_I2S_MspInit(I2S_HandleTypeDef* hi2s)
{
 8001ca0:	b570      	push	{r4, r5, r6, lr}
  GPIO_InitTypeDef GPIO_InitStruct = {0};
  RCC_PeriphCLKInitTypeDef PeriphClkInitStruct = {0};
  if(hi2s->Instance==SPI2)
 8001ca2:	4a32      	ldr	r2, [pc, #200]	@ (8001d6c <HAL_I2S_MspInit+0xcc>)
 8001ca4:	6801      	ldr	r1, [r0, #0]
{
 8001ca6:	b08e      	sub	sp, #56	@ 0x38
  GPIO_InitTypeDef GPIO_InitStruct = {0};
 8001ca8:	2300      	movs	r3, #0
  if(hi2s->Instance==SPI2)
 8001caa:	4291      	cmp	r1, r2
  GPIO_InitTypeDef GPIO_InitStruct = {0};
 8001cac:	e9cd 3302 	strd	r3, r3, [sp, #8]
 8001cb0:	e9cd 3304 	strd	r3, r3, [sp, #16]
  RCC_PeriphCLKInitTypeDef PeriphClkInitStruct = {0};
 8001cb4:	e9cd 330c 	strd	r3, r3, [sp, #48]	@ 0x30
  GPIO_InitTypeDef GPIO_InitStruct = {0};
 8001cb8:	9306      	str	r3, [sp, #24]
  if(hi2s->Instance==SPI2)
 8001cba:	d001      	beq.n	8001cc0 <HAL_I2S_MspInit+0x20>

  /* USER CODE END SPI2_MspInit 1 */

  }

}
 8001cbc:	b00e      	add	sp, #56	@ 0x38
 8001cbe:	bd70      	pop	{r4, r5, r6, pc}
    PeriphClkInitStruct.PeriphClockSelection = RCC_PERIPHCLK_I2S;
 8001cc0:	2201      	movs	r2, #1
 8001cc2:	2319      	movs	r3, #25
 8001cc4:	e9cd 2308 	strd	r2, r3, [sp, #32]
 8001cc8:	4604      	mov	r4, r0
 8001cca:	22d6      	movs	r2, #214	@ 0xd6
 8001ccc:	2302      	movs	r3, #2
    if (HAL_RCCEx_PeriphCLKConfig(&PeriphClkInitStruct) != HAL_OK)
 8001cce:	a808      	add	r0, sp, #32
    PeriphClkInitStruct.PeriphClockSelection = RCC_PERIPHCLK_I2S;
 8001cd0:	e9cd 230a 	strd	r2, r3, [sp, #40]	@ 0x28
    if (HAL_RCCEx_PeriphCLKConfig(&PeriphClkInitStruct) != HAL_OK)
 8001cd4:	f001 ffb4 	bl	8003c40 <HAL_RCCEx_PeriphCLKConfig>
 8001cd8:	2800      	cmp	r0, #0
 8001cda:	d141      	bne.n	8001d60 <HAL_I2S_MspInit+0xc0>
    __HAL_RCC_SPI2_CLK_ENABLE();
 8001cdc:	4b24      	ldr	r3, [pc, #144]	@ (8001d70 <HAL_I2S_MspInit+0xd0>)
    HAL_GPIO_Init(GPIOB, &GPIO_InitStruct);
 8001cde:	4825      	ldr	r0, [pc, #148]	@ (8001d74 <HAL_I2S_MspInit+0xd4>)
    hdma_spi2_tx.Instance = DMA1_Stream4;
 8001ce0:	4d25      	ldr	r5, [pc, #148]	@ (8001d78 <HAL_I2S_MspInit+0xd8>)
    __HAL_RCC_SPI2_CLK_ENABLE();
 8001ce2:	2600      	movs	r6, #0
 8001ce4:	9600      	str	r6, [sp, #0]
 8001ce6:	6c1a      	ldr	r2, [r3, #64]	@ 0x40
 8001ce8:	f442 4280 	orr.w	r2, r2, #16384	@ 0x4000
 8001cec:	641a      	str	r2, [r3, #64]	@ 0x40
 8001cee:	6c1a      	ldr	r2, [r3, #64]	@ 0x40
 8001cf0:	f402 4280 	and.w	r2, r2, #16384	@ 0x4000
 8001cf4:	9200      	str	r2, [sp, #0]
 8001cf6:	9a00      	ldr	r2, [sp, #0]
    __HAL_RCC_GPIOB_CLK_ENABLE();
 8001cf8:	9601      	str	r6, [sp, #4]
 8001cfa:	6b1a      	ldr	r2, [r3, #48]	@ 0x30
 8001cfc:	f042 0202 	orr.w	r2, r2, #2
 8001d00:	631a      	str	r2, [r3, #48]	@ 0x30
 8001d02:	6b1b      	ldr	r3, [r3, #48]	@ 0x30
 8001d04:	f003 0302 	and.w	r3, r3, #2
 8001d08:	9301      	str	r3, [sp, #4]
    GPIO_InitStruct.Pin = GPIO_PIN_10|GPIO_PIN_12|GPIO_PIN_15;
 8001d0a:	f44f 4214 	mov.w	r2, #37888	@ 0x9400
 8001d0e:	2302      	movs	r3, #2
 8001d10:	e9cd 2302 	strd	r2, r3, [sp, #8]
 8001d14:	2200      	movs	r2, #0
 8001d16:	2300      	movs	r3, #0
 8001d18:	e9cd 2304 	strd	r2, r3, [sp, #16]
    HAL_GPIO_Init(GPIOB, &GPIO_InitStruct);
 8001d1c:	a902      	add	r1, sp, #8
    GPIO_InitStruct.Alternate = GPIO_AF5_SPI2;
 8001d1e:	2305      	movs	r3, #5
 8001d20:	9306      	str	r3, [sp, #24]
    __HAL_RCC_GPIOB_CLK_ENABLE();
 8001d22:	9b01      	ldr	r3, [sp, #4]
    HAL_GPIO_Init(GPIOB, &GPIO_InitStruct);
 8001d24:	f000 fe34 	bl	8002990 <HAL_GPIO_Init>
    hdma_spi2_tx.Instance = DMA1_Stream4;
 8001d28:	4a14      	ldr	r2, [pc, #80]	@ (8001d7c <HAL_I2S_MspInit+0xdc>)
    hdma_spi2_tx.Init.Channel = DMA_CHANNEL_0;
 8001d2a:	2340      	movs	r3, #64	@ 0x40
 8001d2c:	e9c5 2600 	strd	r2, r6, [r5]
 8001d30:	60ab      	str	r3, [r5, #8]
 8001d32:	f44f 6280 	mov.w	r2, #1024	@ 0x400
 8001d36:	f44f 6300 	mov.w	r3, #2048	@ 0x800
 8001d3a:	e9c5 6203 	strd	r6, r2, [r5, #12]
 8001d3e:	616b      	str	r3, [r5, #20]
 8001d40:	f44f 5200 	mov.w	r2, #8192	@ 0x2000
 8001d44:	f44f 7380 	mov.w	r3, #256	@ 0x100
    if (HAL_DMA_Init(&hdma_spi2_tx) != HAL_OK)
 8001d48:	4628      	mov	r0, r5
    hdma_spi2_tx.Init.Channel = DMA_CHANNEL_0;
 8001d4a:	e9c5 2306 	strd	r2, r3, [r5, #24]
    hdma_spi2_tx.Init.FIFOMode = DMA_FIFOMODE_DISABLE;
 8001d4e:	e9c5 6608 	strd	r6, r6, [r5, #32]
    if (HAL_DMA_Init(&hdma_spi2_tx) != HAL_OK)
 8001d52:	f000 fc19 	bl	8002588 <HAL_DMA_Init>
 8001d56:	b930      	cbnz	r0, 8001d66 <HAL_I2S_MspInit+0xc6>
    __HAL_LINKDMA(hi2s,hdmatx,hdma_spi2_tx);
 8001d58:	63a5      	str	r5, [r4, #56]	@ 0x38
 8001d5a:	63ac      	str	r4, [r5, #56]	@ 0x38
}
 8001d5c:	b00e      	add	sp, #56	@ 0x38
 8001d5e:	bd70      	pop	{r4, r5, r6, pc}
      Error_Handler();
 8001d60:	f7ff fef4 	bl	8001b4c <Error_Handler>
 8001d64:	e7ba      	b.n	8001cdc <HAL_I2S_MspInit+0x3c>
      Error_Handler();
 8001d66:	f7ff fef1 	bl	8001b4c <Error_Handler>
 8001d6a:	e7f5      	b.n	8001d58 <HAL_I2S_MspInit+0xb8>
 8001d6c:	40003800 	.word	0x40003800
 8001d70:	40023800 	.word	0x40023800
 8001d74:	40020400 	.word	0x40020400
 8001d78:	20001b78 	.word	0x20001b78
 8001d7c:	40026070 	.word	0x40026070

08001d80 <HAL_UART_MspInit>:
* This function configures the hardware resources used in this example
* @param huart: UART handle pointer
* @retval None
*/
void HAL_UART_MspInit(UART_HandleTypeDef* huart)
{
 8001d80:	b570      	push	{r4, r5, r6, lr}
  GPIO_InitTypeDef GPIO_InitStruct = {0};
  if(huart->Instance==USART1)
 8001d82:	6803      	ldr	r3, [r0, #0]
 8001d84:	4a3d      	ldr	r2, [pc, #244]	@ (8001e7c <HAL_UART_MspInit+0xfc>)
{
 8001d86:	b08a      	sub	sp, #40	@ 0x28
  GPIO_InitTypeDef GPIO_InitStruct = {0};
 8001d88:	2400      	movs	r4, #0
  if(huart->Instance==USART1)
 8001d8a:	4293      	cmp	r3, r2
  GPIO_InitTypeDef GPIO_InitStruct = {0};
 8001d8c:	e9cd 4404 	strd	r4, r4, [sp, #16]
 8001d90:	e9cd 4406 	strd	r4, r4, [sp, #24]
 8001d94:	9408      	str	r4, [sp, #32]
  if(huart->Instance==USART1)
 8001d96:	d004      	beq.n	8001da2 <HAL_UART_MspInit+0x22>
    HAL_NVIC_EnableIRQ(USART1_IRQn);
  /* USER CODE BEGIN USART1_MspInit 1 */

  /* USER CODE END USART1_MspInit 1 */
  }
  else if(huart->Instance==USART2)
 8001d98:	4a39      	ldr	r2, [pc, #228]	@ (8001e80 <HAL_UART_MspInit+0x100>)
 8001d9a:	4293      	cmp	r3, r2
 8001d9c:	d047      	beq.n	8001e2e <HAL_UART_MspInit+0xae>
  /* USER CODE BEGIN USART2_MspInit 1 */

  /* USER CODE END USART2_MspInit 1 */
  }

}
 8001d9e:	b00a      	add	sp, #40	@ 0x28
 8001da0:	bd70      	pop	{r4, r5, r6, pc}
    __HAL_RCC_USART1_CLK_ENABLE();
 8001da2:	4b38      	ldr	r3, [pc, #224]	@ (8001e84 <HAL_UART_MspInit+0x104>)
 8001da4:	9400      	str	r4, [sp, #0]
 8001da6:	6c5a      	ldr	r2, [r3, #68]	@ 0x44
    hdma_usart1_rx.Instance = DMA2_Stream2;
 8001da8:	4e37      	ldr	r6, [pc, #220]	@ (8001e88 <HAL_UART_MspInit+0x108>)
    __HAL_RCC_USART1_CLK_ENABLE();
 8001daa:	f042 0210 	orr.w	r2, r2, #16
 8001dae:	645a      	str	r2, [r3, #68]	@ 0x44
 8001db0:	6c5a      	ldr	r2, [r3, #68]	@ 0x44
 8001db2:	f002 0210 	and.w	r2, r2, #16
 8001db6:	9200      	str	r2, [sp, #0]
 8001db8:	9a00      	ldr	r2, [sp, #0]
    __HAL_RCC_GPIOA_CLK_ENABLE();
 8001dba:	9401      	str	r4, [sp, #4]
 8001dbc:	6b1a      	ldr	r2, [r3, #48]	@ 0x30
 8001dbe:	f042 0201 	orr.w	r2, r2, #1
 8001dc2:	631a      	str	r2, [r3, #48]	@ 0x30
 8001dc4:	6b1b      	ldr	r3, [r3, #48]	@ 0x30
 8001dc6:	f003 0301 	and.w	r3, r3, #1
 8001dca:	9301      	str	r3, [sp, #4]
    GPIO_InitStruct.Pin = GPIO_PIN_9|GPIO_PIN_10;
 8001dcc:	f44f 62c0 	mov.w	r2, #1536	@ 0x600
 8001dd0:	2302      	movs	r3, #2
 8001dd2:	e9cd 2304 	strd	r2, r3, [sp, #16]
    GPIO_InitStruct.Speed = GPIO_SPEED_FREQ_VERY_HIGH;
 8001dd6:	2303      	movs	r3, #3
 8001dd8:	9307      	str	r3, [sp, #28]
 8001dda:	4605      	mov	r5, r0
    __HAL_RCC_GPIOA_CLK_ENABLE();
 8001ddc:	9b01      	ldr	r3, [sp, #4]
    HAL_GPIO_Init(GPIOA, &GPIO_InitStruct);
 8001dde:	482b      	ldr	r0, [pc, #172]	@ (8001e8c <HAL_UART_MspInit+0x10c>)
    GPIO_InitStruct.Speed = GPIO_SPEED_FREQ_VERY_HIGH;
 8001de0:	2307      	movs	r3, #7
    HAL_GPIO_Init(GPIOA, &GPIO_InitStruct);
 8001de2:	a904      	add	r1, sp, #16
    GPIO_InitStruct.Speed = GPIO_SPEED_FREQ_VERY_HIGH;
 8001de4:	9308      	str	r3, [sp, #32]
    HAL_GPIO_Init(GPIOA, &GPIO_InitStruct);
 8001de6:	f000 fdd3 	bl	8002990 <HAL_GPIO_Init>
    hdma_usart1_rx.Init.Channel = DMA_CHANNEL_4;
 8001dea:	4a29      	ldr	r2, [pc, #164]	@ (8001e90 <HAL_UART_MspInit+0x110>)
 8001dec:	f04f 6300 	mov.w	r3, #134217728	@ 0x8000000
 8001df0:	e9c6 2300 	strd	r2, r3, [r6]
    if (HAL_DMA_Init(&hdma_usart1_rx) != HAL_OK)
 8001df4:	4630      	mov	r0, r6
    hdma_usart1_rx.Init.MemInc = DMA_MINC_ENABLE;
 8001df6:	f44f 6280 	mov.w	r2, #1024	@ 0x400
    hdma_usart1_rx.Init.Mode = DMA_CIRCULAR;
 8001dfa:	f44f 7380 	mov.w	r3, #256	@ 0x100
    hdma_usart1_rx.Init.PeriphInc = DMA_PINC_DISABLE;
 8001dfe:	e9c6 4402 	strd	r4, r4, [r6, #8]
    hdma_usart1_rx.Init.PeriphDataAlignment = DMA_PDATAALIGN_BYTE;
 8001e02:	e9c6 2404 	strd	r2, r4, [r6, #16]
    hdma_usart1_rx.Init.Mode = DMA_CIRCULAR;
 8001e06:	e9c6 4306 	strd	r4, r3, [r6, #24]
    hdma_usart1_rx.Init.FIFOMode = DMA_FIFOMODE_DISABLE;
 8001e0a:	e9c6 4408 	strd	r4, r4, [r6, #32]
    if (HAL_DMA_Init(&hdma_usart1_rx) != HAL_OK)
 8001e0e:	f000 fbbb 	bl	8002588 <HAL_DMA_Init>
 8001e12:	2800      	cmp	r0, #0
 8001e14:	d12e      	bne.n	8001e74 <HAL_UART_MspInit+0xf4>
    HAL_NVIC_SetPriority(USART1_IRQn, 0, 0);
 8001e16:	2200      	movs	r2, #0
 8001e18:	4611      	mov	r1, r2
    __HAL_LINKDMA(huart,hdmarx,hdma_usart1_rx);
 8001e1a:	63ee      	str	r6, [r5, #60]	@ 0x3c
    HAL_NVIC_SetPriority(USART1_IRQn, 0, 0);
 8001e1c:	2025      	movs	r0, #37	@ 0x25
    __HAL_LINKDMA(huart,hdmarx,hdma_usart1_rx);
 8001e1e:	63b5      	str	r5, [r6, #56]	@ 0x38
    HAL_NVIC_SetPriority(USART1_IRQn, 0, 0);
 8001e20:	f000 fb4e 	bl	80024c0 <HAL_NVIC_SetPriority>
    HAL_NVIC_EnableIRQ(USART1_IRQn);
 8001e24:	2025      	movs	r0, #37	@ 0x25
 8001e26:	f000 fb87 	bl	8002538 <HAL_NVIC_EnableIRQ>
}
 8001e2a:	b00a      	add	sp, #40	@ 0x28
 8001e2c:	bd70      	pop	{r4, r5, r6, pc}
    __HAL_RCC_USART2_CLK_ENABLE();
 8001e2e:	4b15      	ldr	r3, [pc, #84]	@ (8001e84 <HAL_UART_MspInit+0x104>)
 8001e30:	9402      	str	r4, [sp, #8]
 8001e32:	6c1a      	ldr	r2, [r3, #64]	@ 0x40
    HAL_GPIO_Init(GPIOA, &GPIO_InitStruct);
 8001e34:	4815      	ldr	r0, [pc, #84]	@ (8001e8c <HAL_UART_MspInit+0x10c>)
    __HAL_RCC_USART2_CLK_ENABLE();
 8001e36:	f442 3200 	orr.w	r2, r2, #131072	@ 0x20000
 8001e3a:	641a      	str	r2, [r3, #64]	@ 0x40
 8001e3c:	6c1a      	ldr	r2, [r3, #64]	@ 0x40
 8001e3e:	f402 3200 	and.w	r2, r2, #131072	@ 0x20000
 8001e42:	9202      	str	r2, [sp, #8]
 8001e44:	9a02      	ldr	r2, [sp, #8]
    __HAL_RCC_GPIOA_CLK_ENABLE();
 8001e46:	9403      	str	r4, [sp, #12]
 8001e48:	6b1a      	ldr	r2, [r3, #48]	@ 0x30
 8001e4a:	f042 0201 	orr.w	r2, r2, #1
 8001e4e:	631a      	str	r2, [r3, #48]	@ 0x30
 8001e50:	6b1b      	ldr	r3, [r3, #48]	@ 0x30
 8001e52:	f003 0301 	and.w	r3, r3, #1
 8001e56:	9303      	str	r3, [sp, #12]
    GPIO_InitStruct.Speed = GPIO_SPEED_FREQ_VERY_HIGH;
 8001e58:	2203      	movs	r2, #3
 8001e5a:	2307      	movs	r3, #7
    HAL_GPIO_Init(GPIOA, &GPIO_InitStruct);
 8001e5c:	a904      	add	r1, sp, #16
    GPIO_InitStruct.Pin = GPIO_PIN_2|GPIO_PIN_3;
 8001e5e:	240c      	movs	r4, #12
 8001e60:	2502      	movs	r5, #2
 8001e62:	e9cd 4504 	strd	r4, r5, [sp, #16]
    GPIO_InitStruct.Speed = GPIO_SPEED_FREQ_VERY_HIGH;
 8001e66:	e9cd 2307 	strd	r2, r3, [sp, #28]
    __HAL_RCC_GPIOA_CLK_ENABLE();
 8001e6a:	9c03      	ldr	r4, [sp, #12]
    HAL_GPIO_Init(GPIOA, &GPIO_InitStruct);
 8001e6c:	f000 fd90 	bl	8002990 <HAL_GPIO_Init>
}
 8001e70:	b00a      	add	sp, #40	@ 0x28
 8001e72:	bd70      	pop	{r4, r5, r6, pc}
      Error_Handler();
 8001e74:	f7ff fe6a 	bl	8001b4c <Error_Handler>
 8001e78:	e7cd      	b.n	8001e16 <HAL_UART_MspInit+0x96>
 8001e7a:	bf00      	nop
 8001e7c:	40011000 	.word	0x40011000
 8001e80:	40004400 	.word	0x40004400
 8001e84:	40023800 	.word	0x40023800
 8001e88:	20001a88 	.word	0x20001a88
 8001e8c:	40020000 	.word	0x40020000
 8001e90:	40026440 	.word	0x40026440

08001e94 <NMI_Handler>:
{
  /* USER CODE BEGIN NonMaskableInt_IRQn 0 */

  /* USER CODE END NonMaskableInt_IRQn 0 */
  /* USER CODE BEGIN NonMaskableInt_IRQn 1 */
   while (1)
 8001e94:	e7fe      	b.n	8001e94 <NMI_Handler>
 8001e96:	bf00      	nop

08001e98 <HardFault_Handler>:
void HardFault_Handler(void)
{
  /* USER CODE BEGIN HardFault_IRQn 0 */

  /* USER CODE END HardFault_IRQn 0 */
  while (1)
 8001e98:	e7fe      	b.n	8001e98 <HardFault_Handler>
 8001e9a:	bf00      	nop

08001e9c <MemManage_Handler>:
void MemManage_Handler(void)
{
  /* USER CODE BEGIN MemoryManagement_IRQn 0 */

  /* USER CODE END MemoryManagement_IRQn 0 */
  while (1)
 8001e9c:	e7fe      	b.n	8001e9c <MemManage_Handler>
 8001e9e:	bf00      	nop

08001ea0 <BusFault_Handler>:
void BusFault_Handler(void)
{
  /* USER CODE BEGIN BusFault_IRQn 0 */

  /* USER CODE END BusFault_IRQn 0 */
  while (1)
 8001ea0:	e7fe      	b.n	8001ea0 <BusFault_Handler>
 8001ea2:	bf00      	nop

08001ea4 <UsageFault_Handler>:
void UsageFault_Handler(void)
{
  /* USER CODE BEGIN UsageFault_IRQn 0 */

  /* USER CODE END UsageFault_IRQn 0 */
  while (1)
 8001ea4:	e7fe      	b.n	8001ea4 <UsageFault_Handler>
 8001ea6:	bf00      	nop

08001ea8 <SVC_Handler>:

  /* USER CODE END SVCall_IRQn 0 */
  /* USER CODE BEGIN SVCall_IRQn 1 */

  /* USER CODE END SVCall_IRQn 1 */
}
 8001ea8:	4770      	bx	lr
 8001eaa:	bf00      	nop

08001eac <DebugMon_Handler>:

/**
  * @brief This function handles Debug monitor.
  */
void DebugMon_Handler(void)
 8001eac:	4770      	bx	lr
 8001eae:	bf00      	nop

08001eb0 <PendSV_Handler>:
}

/**
  * @brief This function handles Pendable request for system service.
  */
void PendSV_Handler(void)
 8001eb0:	4770      	bx	lr
 8001eb2:	bf00      	nop

08001eb4 <SysTick_Handler>:
void SysTick_Handler(void)
{
  /* USER CODE BEGIN SysTick_IRQn 0 */

  /* USER CODE END SysTick_IRQn 0 */
  HAL_IncTick();
 8001eb4:	f000 b88a 	b.w	8001fcc <HAL_IncTick>

08001eb8 <DMA1_Stream4_IRQHandler>:
void DMA1_Stream4_IRQHandler(void)
{
  /* USER CODE BEGIN DMA1_Stream4_IRQn 0 */

  /* USER CODE END DMA1_Stream4_IRQn 0 */
  HAL_DMA_IRQHandler(&hdma_spi2_tx);
 8001eb8:	4801      	ldr	r0, [pc, #4]	@ (8001ec0 <DMA1_Stream4_IRQHandler+0x8>)
 8001eba:	f000 bc93 	b.w	80027e4 <HAL_DMA_IRQHandler>
 8001ebe:	bf00      	nop
 8001ec0:	20001b78 	.word	0x20001b78

08001ec4 <USART1_IRQHandler>:
void USART1_IRQHandler(void)
{
  /* USER CODE BEGIN USART1_IRQn 0 */

  /* USER CODE END USART1_IRQn 0 */
  HAL_UART_IRQHandler(&huart1);
 8001ec4:	4801      	ldr	r0, [pc, #4]	@ (8001ecc <USART1_IRQHandler+0x8>)
 8001ec6:	f002 b94d 	b.w	8004164 <HAL_UART_IRQHandler>
 8001eca:	bf00      	nop
 8001ecc:	20001b30 	.word	0x20001b30

08001ed0 <DMA2_Stream0_IRQHandler>:
void DMA2_Stream0_IRQHandler(void)
{
  /* USER CODE BEGIN DMA2_Stream0_IRQn 0 */

  /* USER CODE END DMA2_Stream0_IRQn 0 */
  HAL_DMA_IRQHandler(&hdma_adc1);
 8001ed0:	4801      	ldr	r0, [pc, #4]	@ (8001ed8 <DMA2_Stream0_IRQHandler+0x8>)
 8001ed2:	f000 bc87 	b.w	80027e4 <HAL_DMA_IRQHandler>
 8001ed6:	bf00      	nop
 8001ed8:	20001c74 	.word	0x20001c74

08001edc <DMA2_Stream2_IRQHandler>:
void DMA2_Stream2_IRQHandler(void)
{
  /* USER CODE BEGIN DMA2_Stream2_IRQn 0 */

  /* USER CODE END DMA2_Stream2_IRQn 0 */
  HAL_DMA_IRQHandler(&hdma_usart1_rx);
 8001edc:	4801      	ldr	r0, [pc, #4]	@ (8001ee4 <DMA2_Stream2_IRQHandler+0x8>)
 8001ede:	f000 bc81 	b.w	80027e4 <HAL_DMA_IRQHandler>
 8001ee2:	bf00      	nop
 8001ee4:	20001a88 	.word	0x20001a88

08001ee8 <SystemInit>:
  */
void SystemInit(void)
{
  /* FPU settings ------------------------------------------------------------*/
  #if (__FPU_PRESENT == 1) && (__FPU_USED == 1)
    SCB->CPACR |= ((3UL << 10*2)|(3UL << 11*2));  /* set CP10 and CP11 Full Access */
 8001ee8:	4a03      	ldr	r2, [pc, #12]	@ (8001ef8 <SystemInit+0x10>)
 8001eea:	f8d2 3088 	ldr.w	r3, [r2, #136]	@ 0x88
 8001eee:	f443 0370 	orr.w	r3, r3, #15728640	@ 0xf00000
 8001ef2:	f8c2 3088 	str.w	r3, [r2, #136]	@ 0x88

  /* Configure the Vector Table location -------------------------------------*/
#if defined(USER_VECT_TAB_ADDRESS)
  SCB->VTOR = VECT_TAB_BASE_ADDRESS | VECT_TAB_OFFSET; /* Vector Table Relocation in Internal SRAM */
#endif /* USER_VECT_TAB_ADDRESS */
}
 8001ef6:	4770      	bx	lr
 8001ef8:	e000ed00 	.word	0xe000ed00

08001efc <Reset_Handler>:
*/

    .section  .text.Reset_Handler
  .weak  Reset_Handler
  .type  Reset_Handler, %function
Reset_Handler:    ldr   sp, =_estack    		 /* set stack pointer */
 8001efc:	f8df d034 	ldr.w	sp, [pc, #52]	@ 8001f34 <LoopFillZerobss+0xe>

/* Call the clock system initialization function.*/
  bl  SystemInit   
 8001f00:	f7ff fff2 	bl	8001ee8 <SystemInit>

/* Copy the data segment initializers from flash to SRAM */  
  ldr r0, =_sdata
 8001f04:	480c      	ldr	r0, [pc, #48]	@ (8001f38 <LoopFillZerobss+0x12>)
  ldr r1, =_edata
 8001f06:	490d      	ldr	r1, [pc, #52]	@ (8001f3c <LoopFillZerobss+0x16>)
  ldr r2, =_sidata
 8001f08:	4a0d      	ldr	r2, [pc, #52]	@ (8001f40 <LoopFillZerobss+0x1a>)
  movs r3, #0
 8001f0a:	2300      	movs	r3, #0
  b LoopCopyDataInit
 8001f0c:	e002      	b.n	8001f14 <LoopCopyDataInit>

08001f0e <CopyDataInit>:

CopyDataInit:
  ldr r4, [r2, r3]
 8001f0e:	58d4      	ldr	r4, [r2, r3]
  str r4, [r0, r3]
 8001f10:	50c4      	str	r4, [r0, r3]
  adds r3, r3, #4
 8001f12:	3304      	adds	r3, #4

08001f14 <LoopCopyDataInit>:

LoopCopyDataInit:
  adds r4, r0, r3
 8001f14:	18c4      	adds	r4, r0, r3
  cmp r4, r1
 8001f16:	428c      	cmp	r4, r1
  bcc CopyDataInit
 8001f18:	d3f9      	bcc.n	8001f0e <CopyDataInit>
  
/* Zero fill the bss segment. */
  ldr r2, =_sbss
 8001f1a:	4a0a      	ldr	r2, [pc, #40]	@ (8001f44 <LoopFillZerobss+0x1e>)
  ldr r4, =_ebss
 8001f1c:	4c0a      	ldr	r4, [pc, #40]	@ (8001f48 <LoopFillZerobss+0x22>)
  movs r3, #0
 8001f1e:	2300      	movs	r3, #0
  b LoopFillZerobss
 8001f20:	e001      	b.n	8001f26 <LoopFillZerobss>

08001f22 <FillZerobss>:

FillZerobss:
  str  r3, [r2]
 8001f22:	6013      	str	r3, [r2, #0]
  adds r2, r2, #4
 8001f24:	3204      	adds	r2, #4

08001f26 <LoopFillZerobss>:

LoopFillZerobss:
  cmp r2, r4
 8001f26:	42a2      	cmp	r2, r4
  bcc FillZerobss
 8001f28:	d3fb      	bcc.n	8001f22 <FillZerobss>

/* Call static constructors */
    bl __libc_init_array
 8001f2a:	f002 fe77 	bl	8004c1c <__libc_init_array>
/* Call the application's entry point.*/
  bl  main
 8001f2e:	f7ff fbed 	bl	800170c <main>
  bx  lr    
 8001f32:	4770      	bx	lr
Reset_Handler:    ldr   sp, =_estack    		 /* set stack pointer */
 8001f34:	20020000 	.word	0x20020000
  ldr r0, =_sdata
 8001f38:	20000000 	.word	0x20000000
  ldr r1, =_edata
 8001f3c:	2000006c 	.word	0x2000006c
  ldr r2, =_sidata
 8001f40:	080071f0 	.word	0x080071f0
  ldr r2, =_sbss
 8001f44:	20000070 	.word	0x20000070
  ldr r4, =_ebss
 8001f48:	20001e60 	.word	0x20001e60

08001f4c <ADC_IRQHandler>:
 * @retval None       
*/
    .section  .text.Default_Handler,"ax",%progbits
Default_Handler:
Infinite_Loop:
  b  Infinite_Loop
 8001f4c:	e7fe      	b.n	8001f4c <ADC_IRQHandler>
	...

08001f50 <HAL_InitTick>:
  *       implementation  in user file.
  * @param TickPriority Tick interrupt priority.
  * @retval HAL status
  */
__weak HAL_StatusTypeDef HAL_InitTick(uint32_t TickPriority)
{
 8001f50:	b538      	push	{r3, r4, r5, lr}
  /* Configure the SysTick to have interrupt in 1ms time basis*/
  if (HAL_SYSTICK_Config(SystemCoreClock / (1000U / uwTickFreq)) > 0U)
 8001f52:	4a0e      	ldr	r2, [pc, #56]	@ (8001f8c <HAL_InitTick+0x3c>)
 8001f54:	4b0e      	ldr	r3, [pc, #56]	@ (8001f90 <HAL_InitTick+0x40>)
 8001f56:	7812      	ldrb	r2, [r2, #0]
 8001f58:	681b      	ldr	r3, [r3, #0]
{
 8001f5a:	4605      	mov	r5, r0
  if (HAL_SYSTICK_Config(SystemCoreClock / (1000U / uwTickFreq)) > 0U)
 8001f5c:	f44f 707a 	mov.w	r0, #1000	@ 0x3e8
 8001f60:	fbb0 f0f2 	udiv	r0, r0, r2
 8001f64:	fbb3 f0f0 	udiv	r0, r3, r0
 8001f68:	f000 faf4 	bl	8002554 <HAL_SYSTICK_Config>
 8001f6c:	b908      	cbnz	r0, 8001f72 <HAL_InitTick+0x22>
  {
    return HAL_ERROR;
  }

  /* Configure the SysTick IRQ priority */
  if (TickPriority < (1UL << __NVIC_PRIO_BITS))
 8001f6e:	2d0f      	cmp	r5, #15
 8001f70:	d901      	bls.n	8001f76 <HAL_InitTick+0x26>
    return HAL_ERROR;
 8001f72:	2001      	movs	r0, #1
    return HAL_ERROR;
  }

  /* Return function status */
  return HAL_OK;
}
 8001f74:	bd38      	pop	{r3, r4, r5, pc}
 8001f76:	4604      	mov	r4, r0
    HAL_NVIC_SetPriority(SysTick_IRQn, TickPriority, 0U);
 8001f78:	4602      	mov	r2, r0
 8001f7a:	4629      	mov	r1, r5
 8001f7c:	f04f 30ff 	mov.w	r0, #4294967295
 8001f80:	f000 fa9e 	bl	80024c0 <HAL_NVIC_SetPriority>
    uwTickPrio = TickPriority;
 8001f84:	4b03      	ldr	r3, [pc, #12]	@ (8001f94 <HAL_InitTick+0x44>)
 8001f86:	4620      	mov	r0, r4
 8001f88:	601d      	str	r5, [r3, #0]
}
 8001f8a:	bd38      	pop	{r3, r4, r5, pc}
 8001f8c:	20000014 	.word	0x20000014
 8001f90:	20000010 	.word	0x20000010
 8001f94:	20000018 	.word	0x20000018

08001f98 <HAL_Init>:
{
 8001f98:	b508      	push	{r3, lr}
  __HAL_FLASH_INSTRUCTION_CACHE_ENABLE();
 8001f9a:	4b0b      	ldr	r3, [pc, #44]	@ (8001fc8 <HAL_Init+0x30>)
 8001f9c:	681a      	ldr	r2, [r3, #0]
 8001f9e:	f442 7200 	orr.w	r2, r2, #512	@ 0x200
 8001fa2:	601a      	str	r2, [r3, #0]
  __HAL_FLASH_DATA_CACHE_ENABLE();
 8001fa4:	681a      	ldr	r2, [r3, #0]
 8001fa6:	f442 6280 	orr.w	r2, r2, #1024	@ 0x400
 8001faa:	601a      	str	r2, [r3, #0]
  __HAL_FLASH_PREFETCH_BUFFER_ENABLE();
 8001fac:	681a      	ldr	r2, [r3, #0]
 8001fae:	f442 7280 	orr.w	r2, r2, #256	@ 0x100
 8001fb2:	601a      	str	r2, [r3, #0]
  HAL_NVIC_SetPriorityGrouping(NVIC_PRIORITYGROUP_4);
 8001fb4:	2003      	movs	r0, #3
 8001fb6:	f000 fa71 	bl	800249c <HAL_NVIC_SetPriorityGrouping>
  HAL_InitTick(TICK_INT_PRIORITY);
 8001fba:	200f      	movs	r0, #15
 8001fbc:	f7ff ffc8 	bl	8001f50 <HAL_InitTick>
  HAL_MspInit();
 8001fc0:	f7ff fdc6 	bl	8001b50 <HAL_MspInit>
}
 8001fc4:	2000      	movs	r0, #0
 8001fc6:	bd08      	pop	{r3, pc}
 8001fc8:	40023c00 	.word	0x40023c00

08001fcc <HAL_IncTick>:
  *      implementations in user file.
  * @retval None
  */
__weak void HAL_IncTick(void)
{
  uwTick += uwTickFreq;
 8001fcc:	4a03      	ldr	r2, [pc, #12]	@ (8001fdc <HAL_IncTick+0x10>)
 8001fce:	4b04      	ldr	r3, [pc, #16]	@ (8001fe0 <HAL_IncTick+0x14>)
 8001fd0:	6811      	ldr	r1, [r2, #0]
 8001fd2:	781b      	ldrb	r3, [r3, #0]
 8001fd4:	440b      	add	r3, r1
 8001fd6:	6013      	str	r3, [r2, #0]
}
 8001fd8:	4770      	bx	lr
 8001fda:	bf00      	nop
 8001fdc:	20001d20 	.word	0x20001d20
 8001fe0:	20000014 	.word	0x20000014

08001fe4 <HAL_GetTick>:
  *       implementations in user file.
  * @retval tick value
  */
__weak uint32_t HAL_GetTick(void)
{
  return uwTick;
 8001fe4:	4b01      	ldr	r3, [pc, #4]	@ (8001fec <HAL_GetTick+0x8>)
 8001fe6:	6818      	ldr	r0, [r3, #0]
}
 8001fe8:	4770      	bx	lr
 8001fea:	bf00      	nop
 8001fec:	20001d20 	.word	0x20001d20

08001ff0 <HAL_Delay>:
  *       implementations in user file.
  * @param Delay specifies the delay time length, in milliseconds.
  * @retval None
  */
__weak void HAL_Delay(uint32_t Delay)
{
 8001ff0:	b538      	push	{r3, r4, r5, lr}
 8001ff2:	4604      	mov	r4, r0
  uint32_t tickstart = HAL_GetTick();
 8001ff4:	f7ff fff6 	bl	8001fe4 <HAL_GetTick>
  uint32_t wait = Delay;

  /* Add a freq to guarantee minimum wait */
  if (wait < HAL_MAX_DELAY)
 8001ff8:	1c63      	adds	r3, r4, #1
  uint32_t tickstart = HAL_GetTick();
 8001ffa:	4605      	mov	r5, r0
  if (wait < HAL_MAX_DELAY)
 8001ffc:	d002      	beq.n	8002004 <HAL_Delay+0x14>
  {
    wait += (uint32_t)(uwTickFreq);
 8001ffe:	4b04      	ldr	r3, [pc, #16]	@ (8002010 <HAL_Delay+0x20>)
 8002000:	781b      	ldrb	r3, [r3, #0]
 8002002:	441c      	add	r4, r3
  }

  while((HAL_GetTick() - tickstart) < wait)
 8002004:	f7ff ffee 	bl	8001fe4 <HAL_GetTick>
 8002008:	1b40      	subs	r0, r0, r5
 800200a:	42a0      	cmp	r0, r4
 800200c:	d3fa      	bcc.n	8002004 <HAL_Delay+0x14>
  {
  }
}
 800200e:	bd38      	pop	{r3, r4, r5, pc}
 8002010:	20000014 	.word	0x20000014

08002014 <HAL_ADC_Init>:
HAL_StatusTypeDef HAL_ADC_Init(ADC_HandleTypeDef *hadc)
{
  HAL_StatusTypeDef tmp_hal_status = HAL_OK;

  /* Check ADC handle */
  if (hadc == NULL)
 8002014:	2800      	cmp	r0, #0
 8002016:	f000 809e 	beq.w	8002156 <HAL_ADC_Init+0x142>
{
 800201a:	b538      	push	{r3, r4, r5, lr}
  if (hadc->Init.ExternalTrigConv != ADC_SOFTWARE_START)
  {
    assert_param(IS_ADC_EXT_TRIG_EDGE(hadc->Init.ExternalTrigConvEdge));
  }

  if (hadc->State == HAL_ADC_STATE_RESET)
 800201c:	6c05      	ldr	r5, [r0, #64]	@ 0x40
 800201e:	4604      	mov	r4, r0
 8002020:	b13d      	cbz	r5, 8002032 <HAL_ADC_Init+0x1e>
    hadc->Lock = HAL_UNLOCKED;
  }

  /* Configuration of ADC parameters if previous preliminary actions are      */
  /* correctly completed.                                                     */
  if (HAL_IS_BIT_CLR(hadc->State, HAL_ADC_STATE_ERROR_INTERNAL))
 8002022:	6c23      	ldr	r3, [r4, #64]	@ 0x40
 8002024:	06db      	lsls	r3, r3, #27
 8002026:	d50c      	bpl.n	8002042 <HAL_ADC_Init+0x2e>
  {
    tmp_hal_status = HAL_ERROR;
  }

  /* Release Lock */
  __HAL_UNLOCK(hadc);
 8002028:	2300      	movs	r3, #0
 800202a:	f884 303c 	strb.w	r3, [r4, #60]	@ 0x3c
    tmp_hal_status = HAL_ERROR;
 800202e:	2001      	movs	r0, #1

  /* Return function status */
  return tmp_hal_status;
}
 8002030:	bd38      	pop	{r3, r4, r5, pc}
    HAL_ADC_MspInit(hadc);
 8002032:	f7ff fda9 	bl	8001b88 <HAL_ADC_MspInit>
    ADC_CLEAR_ERRORCODE(hadc);
 8002036:	6465      	str	r5, [r4, #68]	@ 0x44
  if (HAL_IS_BIT_CLR(hadc->State, HAL_ADC_STATE_ERROR_INTERNAL))
 8002038:	6c23      	ldr	r3, [r4, #64]	@ 0x40
    hadc->Lock = HAL_UNLOCKED;
 800203a:	f884 503c 	strb.w	r5, [r4, #60]	@ 0x3c
  if (HAL_IS_BIT_CLR(hadc->State, HAL_ADC_STATE_ERROR_INTERNAL))
 800203e:	06db      	lsls	r3, r3, #27
 8002040:	d4f2      	bmi.n	8002028 <HAL_ADC_Init+0x14>
    ADC_STATE_CLR_SET(hadc->State,
 8002042:	6c23      	ldr	r3, [r4, #64]	@ 0x40
  /* (Depending on STM32F4 product, there may be up to 3 ADCs and 1 common */
  /* control register)                                                    */
  tmpADC_Common = ADC_COMMON_REGISTER(hadc);

  /* Set the ADC clock prescaler */
  tmpADC_Common->CCR &= ~(ADC_CCR_ADCPRE);
 8002044:	4a47      	ldr	r2, [pc, #284]	@ (8002164 <HAL_ADC_Init+0x150>)
    ADC_STATE_CLR_SET(hadc->State,
 8002046:	f423 5388 	bic.w	r3, r3, #4352	@ 0x1100
 800204a:	f023 0302 	bic.w	r3, r3, #2
 800204e:	f043 0302 	orr.w	r3, r3, #2
 8002052:	6423      	str	r3, [r4, #64]	@ 0x40
  tmpADC_Common->CCR &= ~(ADC_CCR_ADCPRE);
 8002054:	6851      	ldr	r1, [r2, #4]
  tmpADC_Common->CCR |=  hadc->Init.ClockPrescaler;

  /* Set ADC scan mode */
  hadc->Instance->CR1 &= ~(ADC_CR1_SCAN);
 8002056:	6823      	ldr	r3, [r4, #0]
  tmpADC_Common->CCR &= ~(ADC_CCR_ADCPRE);
 8002058:	f421 3140 	bic.w	r1, r1, #196608	@ 0x30000
 800205c:	6051      	str	r1, [r2, #4]
  tmpADC_Common->CCR |=  hadc->Init.ClockPrescaler;
 800205e:	6851      	ldr	r1, [r2, #4]
 8002060:	6860      	ldr	r0, [r4, #4]
 8002062:	4301      	orrs	r1, r0
 8002064:	6051      	str	r1, [r2, #4]
  hadc->Instance->CR1 &= ~(ADC_CR1_SCAN);
 8002066:	685a      	ldr	r2, [r3, #4]
  hadc->Instance->CR1 |=  ADC_CR1_SCANCONV(hadc->Init.ScanConvMode);
 8002068:	6920      	ldr	r0, [r4, #16]

  /* Set ADC resolution */
  hadc->Instance->CR1 &= ~(ADC_CR1_RES);
  hadc->Instance->CR1 |=  hadc->Init.Resolution;
 800206a:	68a1      	ldr	r1, [r4, #8]
  hadc->Instance->CR1 &= ~(ADC_CR1_SCAN);
 800206c:	f422 7280 	bic.w	r2, r2, #256	@ 0x100
 8002070:	605a      	str	r2, [r3, #4]
  hadc->Instance->CR1 |=  ADC_CR1_SCANCONV(hadc->Init.ScanConvMode);
 8002072:	685a      	ldr	r2, [r3, #4]
 8002074:	ea42 2200 	orr.w	r2, r2, r0, lsl #8
 8002078:	605a      	str	r2, [r3, #4]
  hadc->Instance->CR1 &= ~(ADC_CR1_RES);
 800207a:	685a      	ldr	r2, [r3, #4]

  /* Set ADC data alignment */
  hadc->Instance->CR2 &= ~(ADC_CR2_ALIGN);
  hadc->Instance->CR2 |= hadc->Init.DataAlign;
 800207c:	68e0      	ldr	r0, [r4, #12]
  hadc->Instance->CR1 &= ~(ADC_CR1_RES);
 800207e:	f022 7240 	bic.w	r2, r2, #50331648	@ 0x3000000
 8002082:	605a      	str	r2, [r3, #4]
  hadc->Instance->CR1 |=  hadc->Init.Resolution;
 8002084:	685a      	ldr	r2, [r3, #4]
 8002086:	430a      	orrs	r2, r1
 8002088:	605a      	str	r2, [r3, #4]
  hadc->Instance->CR2 &= ~(ADC_CR2_ALIGN);
 800208a:	689a      	ldr	r2, [r3, #8]
  /* Enable external trigger if trigger selection is different of software  */
  /* start.                                                                 */
  /* Note: This configuration keeps the hardware feature of parameter       */
  /*       ExternalTrigConvEdge "trigger edge none" equivalent to           */
  /*       software start.                                                  */
  if (hadc->Init.ExternalTrigConv != ADC_SOFTWARE_START)
 800208c:	6aa1      	ldr	r1, [r4, #40]	@ 0x28
  hadc->Instance->CR2 &= ~(ADC_CR2_ALIGN);
 800208e:	f422 6200 	bic.w	r2, r2, #2048	@ 0x800
 8002092:	609a      	str	r2, [r3, #8]
  hadc->Instance->CR2 |= hadc->Init.DataAlign;
 8002094:	689a      	ldr	r2, [r3, #8]
 8002096:	4302      	orrs	r2, r0
 8002098:	609a      	str	r2, [r3, #8]
  if (hadc->Init.ExternalTrigConv != ADC_SOFTWARE_START)
 800209a:	4a33      	ldr	r2, [pc, #204]	@ (8002168 <HAL_ADC_Init+0x154>)
 800209c:	4291      	cmp	r1, r2
  {
    /* Select external trigger to start conversion */
    hadc->Instance->CR2 &= ~(ADC_CR2_EXTSEL);
 800209e:	689a      	ldr	r2, [r3, #8]
  if (hadc->Init.ExternalTrigConv != ADC_SOFTWARE_START)
 80020a0:	d051      	beq.n	8002146 <HAL_ADC_Init+0x132>
    hadc->Instance->CR2 &= ~(ADC_CR2_EXTSEL);
 80020a2:	f022 6270 	bic.w	r2, r2, #251658240	@ 0xf000000
    hadc->Instance->CR2 |= hadc->Init.ExternalTrigConv;

    /* Select external trigger polarity */
    hadc->Instance->CR2 &= ~(ADC_CR2_EXTEN);
    hadc->Instance->CR2 |= hadc->Init.ExternalTrigConvEdge;
 80020a6:	6ae0      	ldr	r0, [r4, #44]	@ 0x2c
    hadc->Instance->CR2 &= ~(ADC_CR2_EXTSEL);
 80020a8:	609a      	str	r2, [r3, #8]
    hadc->Instance->CR2 |= hadc->Init.ExternalTrigConv;
 80020aa:	689a      	ldr	r2, [r3, #8]
 80020ac:	4311      	orrs	r1, r2
 80020ae:	6099      	str	r1, [r3, #8]
    hadc->Instance->CR2 &= ~(ADC_CR2_EXTEN);
 80020b0:	689a      	ldr	r2, [r3, #8]
 80020b2:	f022 5240 	bic.w	r2, r2, #805306368	@ 0x30000000
 80020b6:	609a      	str	r2, [r3, #8]
    hadc->Instance->CR2 |= hadc->Init.ExternalTrigConvEdge;
 80020b8:	689a      	ldr	r2, [r3, #8]
 80020ba:	4302      	orrs	r2, r0
 80020bc:	609a      	str	r2, [r3, #8]
    hadc->Instance->CR2 &= ~(ADC_CR2_EXTSEL);
    hadc->Instance->CR2 &= ~(ADC_CR2_EXTEN);
  }

  /* Enable or disable ADC continuous conversion mode */
  hadc->Instance->CR2 &= ~(ADC_CR2_CONT);
 80020be:	689a      	ldr	r2, [r3, #8]
 80020c0:	f022 0202 	bic.w	r2, r2, #2
 80020c4:	609a      	str	r2, [r3, #8]
  hadc->Instance->CR2 |= ADC_CR2_CONTINUOUS((uint32_t)hadc->Init.ContinuousConvMode);
 80020c6:	689a      	ldr	r2, [r3, #8]
 80020c8:	7e21      	ldrb	r1, [r4, #24]
 80020ca:	ea42 0241 	orr.w	r2, r2, r1, lsl #1
 80020ce:	609a      	str	r2, [r3, #8]

  if (hadc->Init.DiscontinuousConvMode != DISABLE)
 80020d0:	f894 2020 	ldrb.w	r2, [r4, #32]
 80020d4:	2a00      	cmp	r2, #0
 80020d6:	d040      	beq.n	800215a <HAL_ADC_Init+0x146>
  {
    assert_param(IS_ADC_REGULAR_DISC_NUMBER(hadc->Init.NbrOfDiscConversion));

    /* Enable the selected ADC regular discontinuous mode */
    hadc->Instance->CR1 |= (uint32_t)ADC_CR1_DISCEN;
 80020d8:	685a      	ldr	r2, [r3, #4]

    /* Set the number of channels to be converted in discontinuous mode */
    hadc->Instance->CR1 &= ~(ADC_CR1_DISCNUM);
    hadc->Instance->CR1 |=  ADC_CR1_DISCONTINUOUS(hadc->Init.NbrOfDiscConversion);
 80020da:	6a61      	ldr	r1, [r4, #36]	@ 0x24
    hadc->Instance->CR1 |= (uint32_t)ADC_CR1_DISCEN;
 80020dc:	f442 6200 	orr.w	r2, r2, #2048	@ 0x800
 80020e0:	605a      	str	r2, [r3, #4]
    hadc->Instance->CR1 &= ~(ADC_CR1_DISCNUM);
 80020e2:	685a      	ldr	r2, [r3, #4]
 80020e4:	f422 4260 	bic.w	r2, r2, #57344	@ 0xe000
 80020e8:	605a      	str	r2, [r3, #4]
    hadc->Instance->CR1 |=  ADC_CR1_DISCONTINUOUS(hadc->Init.NbrOfDiscConversion);
 80020ea:	685a      	ldr	r2, [r3, #4]
 80020ec:	3901      	subs	r1, #1
 80020ee:	ea42 3241 	orr.w	r2, r2, r1, lsl #13
 80020f2:	605a      	str	r2, [r3, #4]
    /* Disable the selected ADC regular discontinuous mode */
    hadc->Instance->CR1 &= ~(ADC_CR1_DISCEN);
  }

  /* Set ADC number of conversion */
  hadc->Instance->SQR1 &= ~(ADC_SQR1_L);
 80020f4:	6ada      	ldr	r2, [r3, #44]	@ 0x2c
  hadc->Instance->SQR1 |=  ADC_SQR1(hadc->Init.NbrOfConversion);
 80020f6:	69e1      	ldr	r1, [r4, #28]
  hadc->Instance->SQR1 &= ~(ADC_SQR1_L);
 80020f8:	f422 0270 	bic.w	r2, r2, #15728640	@ 0xf00000
 80020fc:	62da      	str	r2, [r3, #44]	@ 0x2c
  hadc->Instance->SQR1 |=  ADC_SQR1(hadc->Init.NbrOfConversion);
 80020fe:	6ada      	ldr	r2, [r3, #44]	@ 0x2c
 8002100:	3901      	subs	r1, #1
 8002102:	ea42 5201 	orr.w	r2, r2, r1, lsl #20
 8002106:	62da      	str	r2, [r3, #44]	@ 0x2c

  /* Enable or disable ADC DMA continuous request */
  hadc->Instance->CR2 &= ~(ADC_CR2_DDS);
 8002108:	689a      	ldr	r2, [r3, #8]
  hadc->Instance->CR2 |= ADC_CR2_DMAContReq((uint32_t)hadc->Init.DMAContinuousRequests);

  /* Enable or disable ADC end of conversion selection */
  hadc->Instance->CR2 &= ~(ADC_CR2_EOCS);
  hadc->Instance->CR2 |= ADC_CR2_EOCSelection(hadc->Init.EOCSelection);
 800210a:	6961      	ldr	r1, [r4, #20]
  hadc->Instance->CR2 &= ~(ADC_CR2_DDS);
 800210c:	f422 7200 	bic.w	r2, r2, #512	@ 0x200
 8002110:	609a      	str	r2, [r3, #8]
  hadc->Instance->CR2 |= ADC_CR2_DMAContReq((uint32_t)hadc->Init.DMAContinuousRequests);
 8002112:	689a      	ldr	r2, [r3, #8]
 8002114:	f894 0030 	ldrb.w	r0, [r4, #48]	@ 0x30
 8002118:	ea42 2240 	orr.w	r2, r2, r0, lsl #9
 800211c:	609a      	str	r2, [r3, #8]
  hadc->Instance->CR2 &= ~(ADC_CR2_EOCS);
 800211e:	689a      	ldr	r2, [r3, #8]
 8002120:	f422 6280 	bic.w	r2, r2, #1024	@ 0x400
 8002124:	609a      	str	r2, [r3, #8]
  hadc->Instance->CR2 |= ADC_CR2_EOCSelection(hadc->Init.EOCSelection);
 8002126:	689a      	ldr	r2, [r3, #8]
    ADC_CLEAR_ERRORCODE(hadc);
 8002128:	2000      	movs	r0, #0
  hadc->Instance->CR2 |= ADC_CR2_EOCSelection(hadc->Init.EOCSelection);
 800212a:	ea42 2281 	orr.w	r2, r2, r1, lsl #10
 800212e:	609a      	str	r2, [r3, #8]
    ADC_CLEAR_ERRORCODE(hadc);
 8002130:	6460      	str	r0, [r4, #68]	@ 0x44
    ADC_STATE_CLR_SET(hadc->State,
 8002132:	6c23      	ldr	r3, [r4, #64]	@ 0x40
 8002134:	f023 0303 	bic.w	r3, r3, #3
 8002138:	f043 0301 	orr.w	r3, r3, #1
 800213c:	6423      	str	r3, [r4, #64]	@ 0x40
  __HAL_UNLOCK(hadc);
 800213e:	2300      	movs	r3, #0
 8002140:	f884 303c 	strb.w	r3, [r4, #60]	@ 0x3c
}
 8002144:	bd38      	pop	{r3, r4, r5, pc}
    hadc->Instance->CR2 &= ~(ADC_CR2_EXTSEL);
 8002146:	f022 6270 	bic.w	r2, r2, #251658240	@ 0xf000000
 800214a:	609a      	str	r2, [r3, #8]
    hadc->Instance->CR2 &= ~(ADC_CR2_EXTEN);
 800214c:	689a      	ldr	r2, [r3, #8]
 800214e:	f022 5240 	bic.w	r2, r2, #805306368	@ 0x30000000
 8002152:	609a      	str	r2, [r3, #8]
 8002154:	e7b3      	b.n	80020be <HAL_ADC_Init+0xaa>
    return HAL_ERROR;
 8002156:	2001      	movs	r0, #1
}
 8002158:	4770      	bx	lr
    hadc->Instance->CR1 &= ~(ADC_CR1_DISCEN);
 800215a:	685a      	ldr	r2, [r3, #4]
 800215c:	f422 6200 	bic.w	r2, r2, #2048	@ 0x800
 8002160:	605a      	str	r2, [r3, #4]
 8002162:	e7c7      	b.n	80020f4 <HAL_ADC_Init+0xe0>
 8002164:	40012300 	.word	0x40012300
 8002168:	0f000001 	.word	0x0f000001

0800216c <HAL_ADC_Start_DMA>:
{
 800216c:	b570      	push	{r4, r5, r6, lr}
 800216e:	4605      	mov	r5, r0
  __HAL_LOCK(hadc);
 8002170:	f890 003c 	ldrb.w	r0, [r0, #60]	@ 0x3c
{
 8002174:	b082      	sub	sp, #8
  __IO uint32_t counter = 0U;
 8002176:	2300      	movs	r3, #0
  __HAL_LOCK(hadc);
 8002178:	2801      	cmp	r0, #1
  __IO uint32_t counter = 0U;
 800217a:	9301      	str	r3, [sp, #4]
  __HAL_LOCK(hadc);
 800217c:	d07b      	beq.n	8002276 <HAL_ADC_Start_DMA+0x10a>
  if ((hadc->Instance->CR2 & ADC_CR2_ADON) != ADC_CR2_ADON)
 800217e:	682e      	ldr	r6, [r5, #0]
 8002180:	4613      	mov	r3, r2
  __HAL_LOCK(hadc);
 8002182:	2201      	movs	r2, #1
 8002184:	f885 203c 	strb.w	r2, [r5, #60]	@ 0x3c
  if ((hadc->Instance->CR2 & ADC_CR2_ADON) != ADC_CR2_ADON)
 8002188:	68b2      	ldr	r2, [r6, #8]
 800218a:	07d2      	lsls	r2, r2, #31
 800218c:	d414      	bmi.n	80021b8 <HAL_ADC_Start_DMA+0x4c>
    __HAL_ADC_ENABLE(hadc);
 800218e:	68b2      	ldr	r2, [r6, #8]
 8002190:	f042 0201 	orr.w	r2, r2, #1
 8002194:	60b2      	str	r2, [r6, #8]
    counter = (ADC_STAB_DELAY_US * (SystemCoreClock / 1000000U));
 8002196:	4a39      	ldr	r2, [pc, #228]	@ (800227c <HAL_ADC_Start_DMA+0x110>)
 8002198:	6810      	ldr	r0, [r2, #0]
 800219a:	4a39      	ldr	r2, [pc, #228]	@ (8002280 <HAL_ADC_Start_DMA+0x114>)
 800219c:	fba2 2000 	umull	r2, r0, r2, r0
 80021a0:	0c80      	lsrs	r0, r0, #18
 80021a2:	eb00 0040 	add.w	r0, r0, r0, lsl #1
 80021a6:	9001      	str	r0, [sp, #4]
    while (counter != 0U)
 80021a8:	9a01      	ldr	r2, [sp, #4]
 80021aa:	b12a      	cbz	r2, 80021b8 <HAL_ADC_Start_DMA+0x4c>
      counter--;
 80021ac:	9c01      	ldr	r4, [sp, #4]
 80021ae:	3c01      	subs	r4, #1
 80021b0:	9401      	str	r4, [sp, #4]
    while (counter != 0U)
 80021b2:	9801      	ldr	r0, [sp, #4]
 80021b4:	2800      	cmp	r0, #0
 80021b6:	d1f9      	bne.n	80021ac <HAL_ADC_Start_DMA+0x40>
  if ((hadc->Instance->CR2 & ADC_CR2_DMA) == ADC_CR2_DMA)
 80021b8:	68b2      	ldr	r2, [r6, #8]
 80021ba:	05d4      	lsls	r4, r2, #23
 80021bc:	d503      	bpl.n	80021c6 <HAL_ADC_Start_DMA+0x5a>
    CLEAR_BIT(hadc->Instance->CR2, ADC_CR2_DMA);
 80021be:	68b2      	ldr	r2, [r6, #8]
 80021c0:	f422 7280 	bic.w	r2, r2, #256	@ 0x100
 80021c4:	60b2      	str	r2, [r6, #8]
  if (HAL_IS_BIT_SET(hadc->Instance->CR2, ADC_CR2_ADON))
 80021c6:	68b2      	ldr	r2, [r6, #8]
 80021c8:	07d0      	lsls	r0, r2, #31
 80021ca:	d540      	bpl.n	800224e <HAL_ADC_Start_DMA+0xe2>
    ADC_STATE_CLR_SET(hadc->State,
 80021cc:	6c28      	ldr	r0, [r5, #64]	@ 0x40
 80021ce:	f420 60e0 	bic.w	r0, r0, #1792	@ 0x700
 80021d2:	f020 0001 	bic.w	r0, r0, #1
 80021d6:	f440 7080 	orr.w	r0, r0, #256	@ 0x100
 80021da:	6428      	str	r0, [r5, #64]	@ 0x40
    if (READ_BIT(hadc->Instance->CR1, ADC_CR1_JAUTO) != RESET)
 80021dc:	6872      	ldr	r2, [r6, #4]
 80021de:	0552      	lsls	r2, r2, #21
 80021e0:	d505      	bpl.n	80021ee <HAL_ADC_Start_DMA+0x82>
      ADC_STATE_CLR_SET(hadc->State, HAL_ADC_STATE_INJ_EOC, HAL_ADC_STATE_INJ_BUSY);
 80021e2:	6c2a      	ldr	r2, [r5, #64]	@ 0x40
 80021e4:	f422 5240 	bic.w	r2, r2, #12288	@ 0x3000
 80021e8:	f442 5280 	orr.w	r2, r2, #4096	@ 0x1000
 80021ec:	642a      	str	r2, [r5, #64]	@ 0x40
    if (HAL_IS_BIT_SET(hadc->State, HAL_ADC_STATE_INJ_BUSY))
 80021ee:	6c2a      	ldr	r2, [r5, #64]	@ 0x40
    hadc->DMA_Handle->XferCpltCallback = ADC_DMAConvCplt;
 80021f0:	6ba8      	ldr	r0, [r5, #56]	@ 0x38
    if (HAL_IS_BIT_SET(hadc->State, HAL_ADC_STATE_INJ_BUSY))
 80021f2:	f412 5280 	ands.w	r2, r2, #4096	@ 0x1000
      CLEAR_BIT(hadc->ErrorCode, (HAL_ADC_ERROR_OVR | HAL_ADC_ERROR_DMA));
 80021f6:	bf1c      	itt	ne
 80021f8:	6c6a      	ldrne	r2, [r5, #68]	@ 0x44
 80021fa:	f022 0206 	bicne.w	r2, r2, #6
      ADC_CLEAR_ERRORCODE(hadc);
 80021fe:	646a      	str	r2, [r5, #68]	@ 0x44
    __HAL_UNLOCK(hadc);
 8002200:	2200      	movs	r2, #0
 8002202:	f885 203c 	strb.w	r2, [r5, #60]	@ 0x3c
    HAL_DMA_Start_IT(hadc->DMA_Handle, (uint32_t)&hadc->Instance->DR, (uint32_t)pData, Length);
 8002206:	460a      	mov	r2, r1
    hadc->DMA_Handle->XferCpltCallback = ADC_DMAConvCplt;
 8002208:	491e      	ldr	r1, [pc, #120]	@ (8002284 <HAL_ADC_Start_DMA+0x118>)
 800220a:	63c1      	str	r1, [r0, #60]	@ 0x3c
    hadc->DMA_Handle->XferHalfCpltCallback = ADC_DMAHalfConvCplt;
 800220c:	491e      	ldr	r1, [pc, #120]	@ (8002288 <HAL_ADC_Start_DMA+0x11c>)
 800220e:	6401      	str	r1, [r0, #64]	@ 0x40
    hadc->DMA_Handle->XferErrorCallback = ADC_DMAError;
 8002210:	491e      	ldr	r1, [pc, #120]	@ (800228c <HAL_ADC_Start_DMA+0x120>)
 8002212:	64c1      	str	r1, [r0, #76]	@ 0x4c
    __HAL_ADC_CLEAR_FLAG(hadc, ADC_FLAG_EOC | ADC_FLAG_OVR);
 8002214:	f06f 0122 	mvn.w	r1, #34	@ 0x22
 8002218:	6031      	str	r1, [r6, #0]
    __HAL_ADC_ENABLE_IT(hadc, ADC_IT_OVR);
 800221a:	6871      	ldr	r1, [r6, #4]
 800221c:	f041 6180 	orr.w	r1, r1, #67108864	@ 0x4000000
 8002220:	6071      	str	r1, [r6, #4]
    hadc->Instance->CR2 |= ADC_CR2_DMA;
 8002222:	68b1      	ldr	r1, [r6, #8]
 8002224:	f441 7180 	orr.w	r1, r1, #256	@ 0x100
 8002228:	60b1      	str	r1, [r6, #8]
    HAL_DMA_Start_IT(hadc->DMA_Handle, (uint32_t)&hadc->Instance->DR, (uint32_t)pData, Length);
 800222a:	f106 014c 	add.w	r1, r6, #76	@ 0x4c
 800222e:	f000 fa41 	bl	80026b4 <HAL_DMA_Start_IT>
    if (HAL_IS_BIT_CLR(tmpADC_Common->CCR, ADC_CCR_MULTI))
 8002232:	4b17      	ldr	r3, [pc, #92]	@ (8002290 <HAL_ADC_Start_DMA+0x124>)
 8002234:	685b      	ldr	r3, [r3, #4]
 8002236:	06db      	lsls	r3, r3, #27
 8002238:	d114      	bne.n	8002264 <HAL_ADC_Start_DMA+0xf8>
        if ((hadc->Instance->CR2 & ADC_CR2_EXTEN) == RESET)
 800223a:	682b      	ldr	r3, [r5, #0]
 800223c:	689a      	ldr	r2, [r3, #8]
 800223e:	f012 5f40 	tst.w	r2, #805306368	@ 0x30000000
 8002242:	d10c      	bne.n	800225e <HAL_ADC_Start_DMA+0xf2>
        hadc->Instance->CR2 |= (uint32_t)ADC_CR2_SWSTART;
 8002244:	689a      	ldr	r2, [r3, #8]
 8002246:	f042 4280 	orr.w	r2, r2, #1073741824	@ 0x40000000
 800224a:	609a      	str	r2, [r3, #8]
 800224c:	e007      	b.n	800225e <HAL_ADC_Start_DMA+0xf2>
    SET_BIT(hadc->State, HAL_ADC_STATE_ERROR_INTERNAL);
 800224e:	6c2b      	ldr	r3, [r5, #64]	@ 0x40
 8002250:	f043 0310 	orr.w	r3, r3, #16
 8002254:	642b      	str	r3, [r5, #64]	@ 0x40
    SET_BIT(hadc->ErrorCode, HAL_ADC_ERROR_INTERNAL);
 8002256:	6c6b      	ldr	r3, [r5, #68]	@ 0x44
 8002258:	f043 0301 	orr.w	r3, r3, #1
 800225c:	646b      	str	r3, [r5, #68]	@ 0x44
  return HAL_OK;
 800225e:	2000      	movs	r0, #0
}
 8002260:	b002      	add	sp, #8
 8002262:	bd70      	pop	{r4, r5, r6, pc}
      if ((hadc->Instance == ADC1) && ((hadc->Instance->CR2 & ADC_CR2_EXTEN) == RESET))
 8002264:	4a0b      	ldr	r2, [pc, #44]	@ (8002294 <HAL_ADC_Start_DMA+0x128>)
 8002266:	682b      	ldr	r3, [r5, #0]
 8002268:	4293      	cmp	r3, r2
 800226a:	d1f8      	bne.n	800225e <HAL_ADC_Start_DMA+0xf2>
 800226c:	689a      	ldr	r2, [r3, #8]
 800226e:	f012 5f40 	tst.w	r2, #805306368	@ 0x30000000
 8002272:	d1f4      	bne.n	800225e <HAL_ADC_Start_DMA+0xf2>
 8002274:	e7e6      	b.n	8002244 <HAL_ADC_Start_DMA+0xd8>
  __HAL_LOCK(hadc);
 8002276:	2002      	movs	r0, #2
}
 8002278:	b002      	add	sp, #8
 800227a:	bd70      	pop	{r4, r5, r6, pc}
 800227c:	20000010 	.word	0x20000010
 8002280:	431bde83 	.word	0x431bde83
 8002284:	080022c5 	.word	0x080022c5
 8002288:	0800229d 	.word	0x0800229d
 800228c:	080022ad 	.word	0x080022ad
 8002290:	40012300 	.word	0x40012300
 8002294:	40012000 	.word	0x40012000

08002298 <HAL_ADC_ConvHalfCpltCallback>:
__weak void HAL_ADC_ConvHalfCpltCallback(ADC_HandleTypeDef *hadc)
 8002298:	4770      	bx	lr
 800229a:	bf00      	nop

0800229c <ADC_DMAHalfConvCplt>:
  * @param  hdma pointer to a DMA_HandleTypeDef structure that contains
  *                the configuration information for the specified DMA module.
  * @retval None
  */
static void ADC_DMAHalfConvCplt(DMA_HandleTypeDef *hdma)
{
 800229c:	b508      	push	{r3, lr}
  ADC_HandleTypeDef *hadc = (ADC_HandleTypeDef *)((DMA_HandleTypeDef *)hdma)->Parent;
  /* Half conversion callback */
#if (USE_HAL_ADC_REGISTER_CALLBACKS == 1)
  hadc->ConvHalfCpltCallback(hadc);
#else
  HAL_ADC_ConvHalfCpltCallback(hadc);
 800229e:	6b80      	ldr	r0, [r0, #56]	@ 0x38
 80022a0:	f7ff fffa 	bl	8002298 <HAL_ADC_ConvHalfCpltCallback>
#endif /* USE_HAL_ADC_REGISTER_CALLBACKS */
}
 80022a4:	bd08      	pop	{r3, pc}
 80022a6:	bf00      	nop

080022a8 <HAL_ADC_ErrorCallback>:
__weak void HAL_ADC_ErrorCallback(ADC_HandleTypeDef *hadc)
 80022a8:	4770      	bx	lr
 80022aa:	bf00      	nop

080022ac <ADC_DMAError>:
  *                the configuration information for the specified DMA module.
  * @retval None
  */
static void ADC_DMAError(DMA_HandleTypeDef *hdma)
{
  ADC_HandleTypeDef *hadc = (ADC_HandleTypeDef *)((DMA_HandleTypeDef *)hdma)->Parent;
 80022ac:	6b80      	ldr	r0, [r0, #56]	@ 0x38
{
 80022ae:	b508      	push	{r3, lr}
  hadc->State = HAL_ADC_STATE_ERROR_DMA;
 80022b0:	2340      	movs	r3, #64	@ 0x40
 80022b2:	6403      	str	r3, [r0, #64]	@ 0x40
  /* Set ADC error code to DMA error */
  hadc->ErrorCode |= HAL_ADC_ERROR_DMA;
 80022b4:	6c43      	ldr	r3, [r0, #68]	@ 0x44
 80022b6:	f043 0304 	orr.w	r3, r3, #4
 80022ba:	6443      	str	r3, [r0, #68]	@ 0x44
  /* Error callback */
#if (USE_HAL_ADC_REGISTER_CALLBACKS == 1)
  hadc->ErrorCallback(hadc);
#else
  HAL_ADC_ErrorCallback(hadc);
 80022bc:	f7ff fff4 	bl	80022a8 <HAL_ADC_ErrorCallback>
#endif /* USE_HAL_ADC_REGISTER_CALLBACKS */
}
 80022c0:	bd08      	pop	{r3, pc}
 80022c2:	bf00      	nop

080022c4 <ADC_DMAConvCplt>:
  ADC_HandleTypeDef *hadc = (ADC_HandleTypeDef *)((DMA_HandleTypeDef *)hdma)->Parent;
 80022c4:	6b83      	ldr	r3, [r0, #56]	@ 0x38
  if (HAL_IS_BIT_CLR(hadc->State, HAL_ADC_STATE_ERROR_INTERNAL | HAL_ADC_STATE_ERROR_DMA))
 80022c6:	6c1a      	ldr	r2, [r3, #64]	@ 0x40
 80022c8:	f012 0f50 	tst.w	r2, #80	@ 0x50
{
 80022cc:	b510      	push	{r4, lr}
    SET_BIT(hadc->State, HAL_ADC_STATE_REG_EOC);
 80022ce:	6c1a      	ldr	r2, [r3, #64]	@ 0x40
  if (HAL_IS_BIT_CLR(hadc->State, HAL_ADC_STATE_ERROR_INTERNAL | HAL_ADC_STATE_ERROR_DMA))
 80022d0:	d123      	bne.n	800231a <ADC_DMAConvCplt+0x56>
    SET_BIT(hadc->State, HAL_ADC_STATE_REG_EOC);
 80022d2:	f442 7200 	orr.w	r2, r2, #512	@ 0x200
    if (ADC_IS_SOFTWARE_START_REGULAR(hadc)                   &&
 80022d6:	6819      	ldr	r1, [r3, #0]
    SET_BIT(hadc->State, HAL_ADC_STATE_REG_EOC);
 80022d8:	641a      	str	r2, [r3, #64]	@ 0x40
    if (ADC_IS_SOFTWARE_START_REGULAR(hadc)                   &&
 80022da:	688a      	ldr	r2, [r1, #8]
 80022dc:	f012 5f40 	tst.w	r2, #805306368	@ 0x30000000
 80022e0:	d117      	bne.n	8002312 <ADC_DMAConvCplt+0x4e>
 80022e2:	7e1a      	ldrb	r2, [r3, #24]
 80022e4:	b9aa      	cbnz	r2, 8002312 <ADC_DMAConvCplt+0x4e>
        (HAL_IS_BIT_CLR(hadc->Instance->SQR1, ADC_SQR1_L) ||
 80022e6:	6aca      	ldr	r2, [r1, #44]	@ 0x2c
        (hadc->Init.ContinuousConvMode == DISABLE)            &&
 80022e8:	f412 0f70 	tst.w	r2, #15728640	@ 0xf00000
 80022ec:	d002      	beq.n	80022f4 <ADC_DMAConvCplt+0x30>
         HAL_IS_BIT_CLR(hadc->Instance->CR2, ADC_CR2_EOCS)))
 80022ee:	688a      	ldr	r2, [r1, #8]
        (HAL_IS_BIT_CLR(hadc->Instance->SQR1, ADC_SQR1_L) ||
 80022f0:	0550      	lsls	r0, r2, #21
 80022f2:	d40e      	bmi.n	8002312 <ADC_DMAConvCplt+0x4e>
      __HAL_ADC_DISABLE_IT(hadc, ADC_IT_EOC);
 80022f4:	684a      	ldr	r2, [r1, #4]
 80022f6:	f022 0220 	bic.w	r2, r2, #32
 80022fa:	604a      	str	r2, [r1, #4]
      CLEAR_BIT(hadc->State, HAL_ADC_STATE_REG_BUSY);
 80022fc:	6c1a      	ldr	r2, [r3, #64]	@ 0x40
 80022fe:	f422 7280 	bic.w	r2, r2, #256	@ 0x100
 8002302:	641a      	str	r2, [r3, #64]	@ 0x40
      if (HAL_IS_BIT_CLR(hadc->State, HAL_ADC_STATE_INJ_BUSY))
 8002304:	6c1a      	ldr	r2, [r3, #64]	@ 0x40
 8002306:	04d1      	lsls	r1, r2, #19
 8002308:	d403      	bmi.n	8002312 <ADC_DMAConvCplt+0x4e>
        SET_BIT(hadc->State, HAL_ADC_STATE_READY);
 800230a:	6c1a      	ldr	r2, [r3, #64]	@ 0x40
 800230c:	f042 0201 	orr.w	r2, r2, #1
 8002310:	641a      	str	r2, [r3, #64]	@ 0x40
    HAL_ADC_ConvCpltCallback(hadc);
 8002312:	4618      	mov	r0, r3
 8002314:	f7fe fde0 	bl	8000ed8 <HAL_ADC_ConvCpltCallback>
}
 8002318:	bd10      	pop	{r4, pc}
    if ((hadc->State & HAL_ADC_STATE_ERROR_INTERNAL) != 0UL)
 800231a:	06d2      	lsls	r2, r2, #27
 800231c:	d404      	bmi.n	8002328 <ADC_DMAConvCplt+0x64>
      hadc->DMA_Handle->XferErrorCallback(hdma);
 800231e:	6b9b      	ldr	r3, [r3, #56]	@ 0x38
}
 8002320:	e8bd 4010 	ldmia.w	sp!, {r4, lr}
      hadc->DMA_Handle->XferErrorCallback(hdma);
 8002324:	6cdb      	ldr	r3, [r3, #76]	@ 0x4c
 8002326:	4718      	bx	r3
      HAL_ADC_ErrorCallback(hadc);
 8002328:	4618      	mov	r0, r3
 800232a:	f7ff ffbd 	bl	80022a8 <HAL_ADC_ErrorCallback>
}
 800232e:	bd10      	pop	{r4, pc}

08002330 <HAL_ADC_ConfigChannel>:
{
 8002330:	b570      	push	{r4, r5, r6, lr}
  __HAL_LOCK(hadc);
 8002332:	f890 303c 	ldrb.w	r3, [r0, #60]	@ 0x3c
{
 8002336:	b082      	sub	sp, #8
 8002338:	4602      	mov	r2, r0
  __HAL_LOCK(hadc);
 800233a:	2b01      	cmp	r3, #1
  __IO uint32_t counter = 0U;
 800233c:	f04f 0000 	mov.w	r0, #0
 8002340:	9001      	str	r0, [sp, #4]
  __HAL_LOCK(hadc);
 8002342:	f000 809e 	beq.w	8002482 <HAL_ADC_ConfigChannel+0x152>
 8002346:	2301      	movs	r3, #1
 8002348:	f882 303c 	strb.w	r3, [r2, #60]	@ 0x3c
  if (sConfig->Channel > ADC_CHANNEL_9)
 800234c:	680d      	ldr	r5, [r1, #0]
    hadc->Instance->SMPR1 &= ~ADC_SMPR1(ADC_SMPR1_SMP10, sConfig->Channel);
 800234e:	6813      	ldr	r3, [r2, #0]
    hadc->Instance->SMPR1 |= ADC_SMPR1(sConfig->SamplingTime, sConfig->Channel);
 8002350:	688c      	ldr	r4, [r1, #8]
  if (sConfig->Channel > ADC_CHANNEL_9)
 8002352:	2d09      	cmp	r5, #9
 8002354:	b2a8      	uxth	r0, r5
 8002356:	d828      	bhi.n	80023aa <HAL_ADC_ConfigChannel+0x7a>
    hadc->Instance->SMPR2 &= ~ADC_SMPR2(ADC_SMPR2_SMP0, sConfig->Channel);
 8002358:	691e      	ldr	r6, [r3, #16]
 800235a:	eb05 0e45 	add.w	lr, r5, r5, lsl #1
 800235e:	f04f 0c07 	mov.w	ip, #7
 8002362:	fa0c fc0e 	lsl.w	ip, ip, lr
 8002366:	ea26 060c 	bic.w	r6, r6, ip
 800236a:	611e      	str	r6, [r3, #16]
    hadc->Instance->SMPR2 |= ADC_SMPR2(sConfig->SamplingTime, sConfig->Channel);
 800236c:	691e      	ldr	r6, [r3, #16]
 800236e:	fa04 f40e 	lsl.w	r4, r4, lr
 8002372:	4334      	orrs	r4, r6
 8002374:	611c      	str	r4, [r3, #16]
  if (sConfig->Rank < 7U)
 8002376:	684c      	ldr	r4, [r1, #4]
 8002378:	2c06      	cmp	r4, #6
    hadc->Instance->SQR3 &= ~ADC_SQR3_RK(ADC_SQR3_SQ1, sConfig->Rank);
 800237a:	eb04 0184 	add.w	r1, r4, r4, lsl #2
  if (sConfig->Rank < 7U)
 800237e:	d82a      	bhi.n	80023d6 <HAL_ADC_ConfigChannel+0xa6>
    hadc->Instance->SQR3 &= ~ADC_SQR3_RK(ADC_SQR3_SQ1, sConfig->Rank);
 8002380:	6b5c      	ldr	r4, [r3, #52]	@ 0x34
 8002382:	3905      	subs	r1, #5
 8002384:	f04f 0c1f 	mov.w	ip, #31
    hadc->Instance->SQR3 |= ADC_SQR3_RK(sConfig->Channel, sConfig->Rank);
 8002388:	4088      	lsls	r0, r1
    hadc->Instance->SQR3 &= ~ADC_SQR3_RK(ADC_SQR3_SQ1, sConfig->Rank);
 800238a:	fa0c f101 	lsl.w	r1, ip, r1
 800238e:	ea24 0101 	bic.w	r1, r4, r1
 8002392:	6359      	str	r1, [r3, #52]	@ 0x34
    hadc->Instance->SQR3 |= ADC_SQR3_RK(sConfig->Channel, sConfig->Rank);
 8002394:	6b59      	ldr	r1, [r3, #52]	@ 0x34
 8002396:	4308      	orrs	r0, r1
 8002398:	6358      	str	r0, [r3, #52]	@ 0x34
  if ((hadc->Instance == ADC1) && (sConfig->Channel == ADC_CHANNEL_VBAT))
 800239a:	493b      	ldr	r1, [pc, #236]	@ (8002488 <HAL_ADC_ConfigChannel+0x158>)
 800239c:	428b      	cmp	r3, r1
 800239e:	d02b      	beq.n	80023f8 <HAL_ADC_ConfigChannel+0xc8>
  __HAL_UNLOCK(hadc);
 80023a0:	2000      	movs	r0, #0
 80023a2:	f882 003c 	strb.w	r0, [r2, #60]	@ 0x3c
}
 80023a6:	b002      	add	sp, #8
 80023a8:	bd70      	pop	{r4, r5, r6, pc}
    hadc->Instance->SMPR1 &= ~ADC_SMPR1(ADC_SMPR1_SMP10, sConfig->Channel);
 80023aa:	eb00 0c40 	add.w	ip, r0, r0, lsl #1
 80023ae:	68de      	ldr	r6, [r3, #12]
 80023b0:	f1ac 0c1e 	sub.w	ip, ip, #30
 80023b4:	f04f 0e07 	mov.w	lr, #7
    hadc->Instance->SMPR1 |= ADC_SMPR1(sConfig->SamplingTime, sConfig->Channel);
 80023b8:	fa04 f40c 	lsl.w	r4, r4, ip
    hadc->Instance->SMPR1 &= ~ADC_SMPR1(ADC_SMPR1_SMP10, sConfig->Channel);
 80023bc:	fa0e fc0c 	lsl.w	ip, lr, ip
 80023c0:	ea26 060c 	bic.w	r6, r6, ip
 80023c4:	60de      	str	r6, [r3, #12]
    hadc->Instance->SMPR1 |= ADC_SMPR1(sConfig->SamplingTime, sConfig->Channel);
 80023c6:	68de      	ldr	r6, [r3, #12]
 80023c8:	4334      	orrs	r4, r6
 80023ca:	60dc      	str	r4, [r3, #12]
  if (sConfig->Rank < 7U)
 80023cc:	684c      	ldr	r4, [r1, #4]
 80023ce:	2c06      	cmp	r4, #6
    hadc->Instance->SQR3 &= ~ADC_SQR3_RK(ADC_SQR3_SQ1, sConfig->Rank);
 80023d0:	eb04 0184 	add.w	r1, r4, r4, lsl #2
  if (sConfig->Rank < 7U)
 80023d4:	d9d4      	bls.n	8002380 <HAL_ADC_ConfigChannel+0x50>
  else if (sConfig->Rank < 13U)
 80023d6:	2c0c      	cmp	r4, #12
 80023d8:	d81f      	bhi.n	800241a <HAL_ADC_ConfigChannel+0xea>
    hadc->Instance->SQR2 &= ~ADC_SQR2_RK(ADC_SQR2_SQ7, sConfig->Rank);
 80023da:	6b1c      	ldr	r4, [r3, #48]	@ 0x30
 80023dc:	3923      	subs	r1, #35	@ 0x23
 80023de:	261f      	movs	r6, #31
    hadc->Instance->SQR2 |= ADC_SQR2_RK(sConfig->Channel, sConfig->Rank);
 80023e0:	4088      	lsls	r0, r1
    hadc->Instance->SQR2 &= ~ADC_SQR2_RK(ADC_SQR2_SQ7, sConfig->Rank);
 80023e2:	fa06 f101 	lsl.w	r1, r6, r1
 80023e6:	ea24 0101 	bic.w	r1, r4, r1
 80023ea:	6319      	str	r1, [r3, #48]	@ 0x30
    hadc->Instance->SQR2 |= ADC_SQR2_RK(sConfig->Channel, sConfig->Rank);
 80023ec:	6b19      	ldr	r1, [r3, #48]	@ 0x30
 80023ee:	4308      	orrs	r0, r1
  if ((hadc->Instance == ADC1) && (sConfig->Channel == ADC_CHANNEL_VBAT))
 80023f0:	4925      	ldr	r1, [pc, #148]	@ (8002488 <HAL_ADC_ConfigChannel+0x158>)
    hadc->Instance->SQR2 |= ADC_SQR2_RK(sConfig->Channel, sConfig->Rank);
 80023f2:	6318      	str	r0, [r3, #48]	@ 0x30
  if ((hadc->Instance == ADC1) && (sConfig->Channel == ADC_CHANNEL_VBAT))
 80023f4:	428b      	cmp	r3, r1
 80023f6:	d1d3      	bne.n	80023a0 <HAL_ADC_ConfigChannel+0x70>
 80023f8:	2d12      	cmp	r5, #18
 80023fa:	d01b      	beq.n	8002434 <HAL_ADC_ConfigChannel+0x104>
  if ((hadc->Instance == ADC1) && ((sConfig->Channel == ADC_CHANNEL_TEMPSENSOR) || (sConfig->Channel == ADC_CHANNEL_VREFINT)))
 80023fc:	4b23      	ldr	r3, [pc, #140]	@ (800248c <HAL_ADC_ConfigChannel+0x15c>)
 80023fe:	429d      	cmp	r5, r3
 8002400:	d022      	beq.n	8002448 <HAL_ADC_ConfigChannel+0x118>
 8002402:	2d11      	cmp	r5, #17
 8002404:	d1cc      	bne.n	80023a0 <HAL_ADC_ConfigChannel+0x70>
      tmpADC_Common->CCR &= ~ADC_CCR_VBATE;
 8002406:	4b22      	ldr	r3, [pc, #136]	@ (8002490 <HAL_ADC_ConfigChannel+0x160>)
 8002408:	6859      	ldr	r1, [r3, #4]
 800240a:	f421 0180 	bic.w	r1, r1, #4194304	@ 0x400000
 800240e:	6059      	str	r1, [r3, #4]
    tmpADC_Common->CCR |= ADC_CCR_TSVREFE;
 8002410:	6859      	ldr	r1, [r3, #4]
 8002412:	f441 0100 	orr.w	r1, r1, #8388608	@ 0x800000
 8002416:	6059      	str	r1, [r3, #4]
    if (sConfig->Channel == ADC_CHANNEL_TEMPSENSOR)
 8002418:	e7c2      	b.n	80023a0 <HAL_ADC_ConfigChannel+0x70>
    hadc->Instance->SQR1 &= ~ADC_SQR1_RK(ADC_SQR1_SQ13, sConfig->Rank);
 800241a:	6adc      	ldr	r4, [r3, #44]	@ 0x2c
 800241c:	3941      	subs	r1, #65	@ 0x41
 800241e:	261f      	movs	r6, #31
    hadc->Instance->SQR1 |= ADC_SQR1_RK(sConfig->Channel, sConfig->Rank);
 8002420:	4088      	lsls	r0, r1
    hadc->Instance->SQR1 &= ~ADC_SQR1_RK(ADC_SQR1_SQ13, sConfig->Rank);
 8002422:	fa06 f101 	lsl.w	r1, r6, r1
 8002426:	ea24 0101 	bic.w	r1, r4, r1
 800242a:	62d9      	str	r1, [r3, #44]	@ 0x2c
    hadc->Instance->SQR1 |= ADC_SQR1_RK(sConfig->Channel, sConfig->Rank);
 800242c:	6ad9      	ldr	r1, [r3, #44]	@ 0x2c
 800242e:	4308      	orrs	r0, r1
 8002430:	62d8      	str	r0, [r3, #44]	@ 0x2c
 8002432:	e7b2      	b.n	800239a <HAL_ADC_ConfigChannel+0x6a>
      tmpADC_Common->CCR &= ~ADC_CCR_TSVREFE;
 8002434:	4b16      	ldr	r3, [pc, #88]	@ (8002490 <HAL_ADC_ConfigChannel+0x160>)
 8002436:	6859      	ldr	r1, [r3, #4]
 8002438:	f421 0100 	bic.w	r1, r1, #8388608	@ 0x800000
 800243c:	6059      	str	r1, [r3, #4]
    tmpADC_Common->CCR |= ADC_CCR_VBATE;
 800243e:	6859      	ldr	r1, [r3, #4]
 8002440:	f441 0180 	orr.w	r1, r1, #4194304	@ 0x400000
 8002444:	6059      	str	r1, [r3, #4]
  if ((hadc->Instance == ADC1) && ((sConfig->Channel == ADC_CHANNEL_TEMPSENSOR) || (sConfig->Channel == ADC_CHANNEL_VREFINT)))
 8002446:	e7ab      	b.n	80023a0 <HAL_ADC_ConfigChannel+0x70>
      tmpADC_Common->CCR &= ~ADC_CCR_VBATE;
 8002448:	4b11      	ldr	r3, [pc, #68]	@ (8002490 <HAL_ADC_ConfigChannel+0x160>)
      counter = (ADC_TEMPSENSOR_DELAY_US * (SystemCoreClock / 1000000U));
 800244a:	4c12      	ldr	r4, [pc, #72]	@ (8002494 <HAL_ADC_ConfigChannel+0x164>)
      tmpADC_Common->CCR &= ~ADC_CCR_VBATE;
 800244c:	6859      	ldr	r1, [r3, #4]
      counter = (ADC_TEMPSENSOR_DELAY_US * (SystemCoreClock / 1000000U));
 800244e:	4812      	ldr	r0, [pc, #72]	@ (8002498 <HAL_ADC_ConfigChannel+0x168>)
      tmpADC_Common->CCR &= ~ADC_CCR_VBATE;
 8002450:	f421 0180 	bic.w	r1, r1, #4194304	@ 0x400000
 8002454:	6059      	str	r1, [r3, #4]
    tmpADC_Common->CCR |= ADC_CCR_TSVREFE;
 8002456:	6859      	ldr	r1, [r3, #4]
 8002458:	f441 0100 	orr.w	r1, r1, #8388608	@ 0x800000
 800245c:	6059      	str	r1, [r3, #4]
      counter = (ADC_TEMPSENSOR_DELAY_US * (SystemCoreClock / 1000000U));
 800245e:	6823      	ldr	r3, [r4, #0]
 8002460:	fba0 0303 	umull	r0, r3, r0, r3
 8002464:	0c9b      	lsrs	r3, r3, #18
 8002466:	eb03 0383 	add.w	r3, r3, r3, lsl #2
 800246a:	005b      	lsls	r3, r3, #1
 800246c:	9301      	str	r3, [sp, #4]
      while (counter != 0U)
 800246e:	9b01      	ldr	r3, [sp, #4]
 8002470:	2b00      	cmp	r3, #0
 8002472:	d095      	beq.n	80023a0 <HAL_ADC_ConfigChannel+0x70>
        counter--;
 8002474:	9b01      	ldr	r3, [sp, #4]
 8002476:	3b01      	subs	r3, #1
 8002478:	9301      	str	r3, [sp, #4]
      while (counter != 0U)
 800247a:	9b01      	ldr	r3, [sp, #4]
 800247c:	2b00      	cmp	r3, #0
 800247e:	d1f9      	bne.n	8002474 <HAL_ADC_ConfigChannel+0x144>
 8002480:	e78e      	b.n	80023a0 <HAL_ADC_ConfigChannel+0x70>
  __HAL_LOCK(hadc);
 8002482:	2002      	movs	r0, #2
}
 8002484:	b002      	add	sp, #8
 8002486:	bd70      	pop	{r4, r5, r6, pc}
 8002488:	40012000 	.word	0x40012000
 800248c:	10000012 	.word	0x10000012
 8002490:	40012300 	.word	0x40012300
 8002494:	20000010 	.word	0x20000010
 8002498:	431bde83 	.word	0x431bde83

0800249c <HAL_NVIC_SetPriorityGrouping>:
__STATIC_INLINE void __NVIC_SetPriorityGrouping(uint32_t PriorityGroup)
{
  uint32_t reg_value;
  uint32_t PriorityGroupTmp = (PriorityGroup & (uint32_t)0x07UL);             /* only values 0..7 are used          */

  reg_value  =  SCB->AIRCR;                                                   /* read old register configuration    */
 800249c:	4907      	ldr	r1, [pc, #28]	@ (80024bc <HAL_NVIC_SetPriorityGrouping+0x20>)
 800249e:	68ca      	ldr	r2, [r1, #12]
  reg_value &= ~((uint32_t)(SCB_AIRCR_VECTKEY_Msk | SCB_AIRCR_PRIGROUP_Msk)); /* clear bits to change               */
  reg_value  =  (reg_value                                   |
                ((uint32_t)0x5FAUL << SCB_AIRCR_VECTKEY_Pos) |
                (PriorityGroupTmp << SCB_AIRCR_PRIGROUP_Pos)  );              /* Insert write key and priority group */
 80024a0:	0203      	lsls	r3, r0, #8
  reg_value &= ~((uint32_t)(SCB_AIRCR_VECTKEY_Msk | SCB_AIRCR_PRIGROUP_Msk)); /* clear bits to change               */
 80024a2:	f64f 00ff 	movw	r0, #63743	@ 0xf8ff
                (PriorityGroupTmp << SCB_AIRCR_PRIGROUP_Pos)  );              /* Insert write key and priority group */
 80024a6:	f403 63e0 	and.w	r3, r3, #1792	@ 0x700
  reg_value &= ~((uint32_t)(SCB_AIRCR_VECTKEY_Msk | SCB_AIRCR_PRIGROUP_Msk)); /* clear bits to change               */
 80024aa:	4002      	ands	r2, r0
                ((uint32_t)0x5FAUL << SCB_AIRCR_VECTKEY_Pos) |
 80024ac:	4313      	orrs	r3, r2
  reg_value  =  (reg_value                                   |
 80024ae:	f043 63bf 	orr.w	r3, r3, #100139008	@ 0x5f80000
 80024b2:	f443 3300 	orr.w	r3, r3, #131072	@ 0x20000
  SCB->AIRCR =  reg_value;
 80024b6:	60cb      	str	r3, [r1, #12]
  /* Check the parameters */
  assert_param(IS_NVIC_PRIORITY_GROUP(PriorityGroup));
  
  /* Set the PRIGROUP[10:8] bits according to the PriorityGroup parameter value */
  NVIC_SetPriorityGrouping(PriorityGroup);
}
 80024b8:	4770      	bx	lr
 80024ba:	bf00      	nop
 80024bc:	e000ed00 	.word	0xe000ed00

080024c0 <HAL_NVIC_SetPriority>:
  \details Reads the priority grouping field from the NVIC Interrupt Controller.
  \return                Priority grouping field (SCB->AIRCR [10:8] PRIGROUP field).
 */
__STATIC_INLINE uint32_t __NVIC_GetPriorityGrouping(void)
{
  return ((uint32_t)((SCB->AIRCR & SCB_AIRCR_PRIGROUP_Msk) >> SCB_AIRCR_PRIGROUP_Pos));
 80024c0:	4b1b      	ldr	r3, [pc, #108]	@ (8002530 <HAL_NVIC_SetPriority+0x70>)
 80024c2:	68db      	ldr	r3, [r3, #12]
 80024c4:	f3c3 2302 	ubfx	r3, r3, #8, #3
  *         This parameter can be a value between 0 and 15
  *         A lower priority value indicates a higher priority.          
  * @retval None
  */
void HAL_NVIC_SetPriority(IRQn_Type IRQn, uint32_t PreemptPriority, uint32_t SubPriority)
{ 
 80024c8:	b500      	push	{lr}
{
  uint32_t PriorityGroupTmp = (PriorityGroup & (uint32_t)0x07UL);   /* only values 0..7 are used          */
  uint32_t PreemptPriorityBits;
  uint32_t SubPriorityBits;

  PreemptPriorityBits = ((7UL - PriorityGroupTmp) > (uint32_t)(__NVIC_PRIO_BITS)) ? (uint32_t)(__NVIC_PRIO_BITS) : (uint32_t)(7UL - PriorityGroupTmp);
 80024ca:	f1c3 0e07 	rsb	lr, r3, #7
 80024ce:	f1be 0f04 	cmp.w	lr, #4
  SubPriorityBits     = ((PriorityGroupTmp + (uint32_t)(__NVIC_PRIO_BITS)) < (uint32_t)7UL) ? (uint32_t)0UL : (uint32_t)((PriorityGroupTmp - 7UL) + (uint32_t)(__NVIC_PRIO_BITS));
 80024d2:	f103 0c04 	add.w	ip, r3, #4
  PreemptPriorityBits = ((7UL - PriorityGroupTmp) > (uint32_t)(__NVIC_PRIO_BITS)) ? (uint32_t)(__NVIC_PRIO_BITS) : (uint32_t)(7UL - PriorityGroupTmp);
 80024d6:	bf28      	it	cs
 80024d8:	f04f 0e04 	movcs.w	lr, #4
  SubPriorityBits     = ((PriorityGroupTmp + (uint32_t)(__NVIC_PRIO_BITS)) < (uint32_t)7UL) ? (uint32_t)0UL : (uint32_t)((PriorityGroupTmp - 7UL) + (uint32_t)(__NVIC_PRIO_BITS));
 80024dc:	f1bc 0f06 	cmp.w	ip, #6
 80024e0:	d91c      	bls.n	800251c <HAL_NVIC_SetPriority+0x5c>
 80024e2:	f1a3 0c03 	sub.w	ip, r3, #3

  return (
           ((PreemptPriority & (uint32_t)((1UL << (PreemptPriorityBits)) - 1UL)) << SubPriorityBits) |
           ((SubPriority     & (uint32_t)((1UL << (SubPriorityBits    )) - 1UL)))
 80024e6:	f04f 33ff 	mov.w	r3, #4294967295
 80024ea:	fa03 f30c 	lsl.w	r3, r3, ip
 80024ee:	ea22 0203 	bic.w	r2, r2, r3
           ((PreemptPriority & (uint32_t)((1UL << (PreemptPriorityBits)) - 1UL)) << SubPriorityBits) |
 80024f2:	f04f 33ff 	mov.w	r3, #4294967295
 80024f6:	fa03 f30e 	lsl.w	r3, r3, lr
 80024fa:	ea21 0303 	bic.w	r3, r1, r3
 80024fe:	fa03 f30c 	lsl.w	r3, r3, ip
 8002502:	4313      	orrs	r3, r2
    NVIC->IP[((uint32_t)IRQn)]               = (uint8_t)((priority << (8U - __NVIC_PRIO_BITS)) & (uint32_t)0xFFUL);
 8002504:	011b      	lsls	r3, r3, #4
  if ((int32_t)(IRQn) >= 0)
 8002506:	2800      	cmp	r0, #0
    NVIC->IP[((uint32_t)IRQn)]               = (uint8_t)((priority << (8U - __NVIC_PRIO_BITS)) & (uint32_t)0xFFUL);
 8002508:	b2db      	uxtb	r3, r3
  if ((int32_t)(IRQn) >= 0)
 800250a:	db0a      	blt.n	8002522 <HAL_NVIC_SetPriority+0x62>
    NVIC->IP[((uint32_t)IRQn)]               = (uint8_t)((priority << (8U - __NVIC_PRIO_BITS)) & (uint32_t)0xFFUL);
 800250c:	f100 4060 	add.w	r0, r0, #3758096384	@ 0xe0000000
 8002510:	f500 4061 	add.w	r0, r0, #57600	@ 0xe100
 8002514:	f880 3300 	strb.w	r3, [r0, #768]	@ 0x300
  assert_param(IS_NVIC_PREEMPTION_PRIORITY(PreemptPriority));
  
  prioritygroup = NVIC_GetPriorityGrouping();
  
  NVIC_SetPriority(IRQn, NVIC_EncodePriority(prioritygroup, PreemptPriority, SubPriority));
}
 8002518:	f85d fb04 	ldr.w	pc, [sp], #4
 800251c:	2200      	movs	r2, #0
  SubPriorityBits     = ((PriorityGroupTmp + (uint32_t)(__NVIC_PRIO_BITS)) < (uint32_t)7UL) ? (uint32_t)0UL : (uint32_t)((PriorityGroupTmp - 7UL) + (uint32_t)(__NVIC_PRIO_BITS));
 800251e:	4694      	mov	ip, r2
 8002520:	e7e7      	b.n	80024f2 <HAL_NVIC_SetPriority+0x32>
    SCB->SHP[(((uint32_t)IRQn) & 0xFUL)-4UL] = (uint8_t)((priority << (8U - __NVIC_PRIO_BITS)) & (uint32_t)0xFFUL);
 8002522:	4a04      	ldr	r2, [pc, #16]	@ (8002534 <HAL_NVIC_SetPriority+0x74>)
 8002524:	f000 000f 	and.w	r0, r0, #15
 8002528:	4402      	add	r2, r0
 800252a:	7613      	strb	r3, [r2, #24]
 800252c:	f85d fb04 	ldr.w	pc, [sp], #4
 8002530:	e000ed00 	.word	0xe000ed00
 8002534:	e000ecfc 	.word	0xe000ecfc

08002538 <HAL_NVIC_EnableIRQ>:
  if ((int32_t)(IRQn) >= 0)
 8002538:	2800      	cmp	r0, #0
 800253a:	db07      	blt.n	800254c <HAL_NVIC_EnableIRQ+0x14>
    NVIC->ISER[(((uint32_t)IRQn) >> 5UL)] = (uint32_t)(1UL << (((uint32_t)IRQn) & 0x1FUL));
 800253c:	4a04      	ldr	r2, [pc, #16]	@ (8002550 <HAL_NVIC_EnableIRQ+0x18>)
 800253e:	0941      	lsrs	r1, r0, #5
 8002540:	2301      	movs	r3, #1
 8002542:	f000 001f 	and.w	r0, r0, #31
 8002546:	4083      	lsls	r3, r0
 8002548:	f842 3021 	str.w	r3, [r2, r1, lsl #2]
  /* Check the parameters */
  assert_param(IS_NVIC_DEVICE_IRQ(IRQn));
  
  /* Enable interrupt */
  NVIC_EnableIRQ(IRQn);
}
 800254c:	4770      	bx	lr
 800254e:	bf00      	nop
 8002550:	e000e100 	.word	0xe000e100

08002554 <HAL_SYSTICK_Config>:
           function <b>SysTick_Config</b> is not included. In this case, the file <b><i>device</i>.h</b>
           must contain a vendor-specific implementation of this function.
 */
__STATIC_INLINE uint32_t SysTick_Config(uint32_t ticks)
{
  if ((ticks - 1UL) > SysTick_LOAD_RELOAD_Msk)
 8002554:	3801      	subs	r0, #1
 8002556:	f1b0 7f80 	cmp.w	r0, #16777216	@ 0x1000000
 800255a:	d301      	bcc.n	8002560 <HAL_SYSTICK_Config+0xc>
  {
    return (1UL);                                                   /* Reload value impossible */
 800255c:	2001      	movs	r0, #1
  *                  - 1  Function failed.
  */
uint32_t HAL_SYSTICK_Config(uint32_t TicksNumb)
{
   return SysTick_Config(TicksNumb);
}
 800255e:	4770      	bx	lr
{
 8002560:	b410      	push	{r4}
  }

  SysTick->LOAD  = (uint32_t)(ticks - 1UL);                         /* set reload register */
 8002562:	f04f 23e0 	mov.w	r3, #3758153728	@ 0xe000e000
    SCB->SHP[(((uint32_t)IRQn) & 0xFUL)-4UL] = (uint8_t)((priority << (8U - __NVIC_PRIO_BITS)) & (uint32_t)0xFFUL);
 8002566:	4c07      	ldr	r4, [pc, #28]	@ (8002584 <HAL_SYSTICK_Config+0x30>)
  SysTick->LOAD  = (uint32_t)(ticks - 1UL);                         /* set reload register */
 8002568:	6158      	str	r0, [r3, #20]
    SCB->SHP[(((uint32_t)IRQn) & 0xFUL)-4UL] = (uint8_t)((priority << (8U - __NVIC_PRIO_BITS)) & (uint32_t)0xFFUL);
 800256a:	f04f 0cf0 	mov.w	ip, #240	@ 0xf0
 800256e:	f884 c023 	strb.w	ip, [r4, #35]	@ 0x23
  NVIC_SetPriority (SysTick_IRQn, (1UL << __NVIC_PRIO_BITS) - 1UL); /* set Priority for Systick Interrupt */
  SysTick->VAL   = 0UL;                                             /* Load the SysTick Counter Value */
 8002572:	2200      	movs	r2, #0
  SysTick->CTRL  = SysTick_CTRL_CLKSOURCE_Msk |
 8002574:	2107      	movs	r1, #7
                   SysTick_CTRL_TICKINT_Msk   |
                   SysTick_CTRL_ENABLE_Msk;                         /* Enable SysTick IRQ and SysTick Timer */
  return (0UL);                                                     /* Function successful */
 8002576:	4610      	mov	r0, r2
  SysTick->VAL   = 0UL;                                             /* Load the SysTick Counter Value */
 8002578:	619a      	str	r2, [r3, #24]
}
 800257a:	f85d 4b04 	ldr.w	r4, [sp], #4
  SysTick->CTRL  = SysTick_CTRL_CLKSOURCE_Msk |
 800257e:	6119      	str	r1, [r3, #16]
 8002580:	4770      	bx	lr
 8002582:	bf00      	nop
 8002584:	e000ed00 	.word	0xe000ed00

08002588 <HAL_DMA_Init>:
  * @param  hdma Pointer to a DMA_HandleTypeDef structure that contains
  *               the configuration information for the specified DMA Stream.  
  * @retval HAL status
  */
HAL_StatusTypeDef HAL_DMA_Init(DMA_HandleTypeDef *hdma)
{
 8002588:	b538      	push	{r3, r4, r5, lr}
 800258a:	4604      	mov	r4, r0
  uint32_t tmp = 0U;
  uint32_t tickstart = HAL_GetTick();
 800258c:	f7ff fd2a 	bl	8001fe4 <HAL_GetTick>
  DMA_Base_Registers *regs;

  /* Check the DMA peripheral state */
  if(hdma == NULL)
 8002590:	2c00      	cmp	r4, #0
 8002592:	d06f      	beq.n	8002674 <HAL_DMA_Init+0xec>

  /* Allocate lock resource */
  __HAL_UNLOCK(hdma);
  
  /* Disable the peripheral */
  __HAL_DMA_DISABLE(hdma);
 8002594:	6823      	ldr	r3, [r4, #0]
  __HAL_UNLOCK(hdma);
 8002596:	2200      	movs	r2, #0
  hdma->State = HAL_DMA_STATE_BUSY;
 8002598:	2102      	movs	r1, #2
 800259a:	f884 1035 	strb.w	r1, [r4, #53]	@ 0x35
  __HAL_UNLOCK(hdma);
 800259e:	f884 2034 	strb.w	r2, [r4, #52]	@ 0x34
  __HAL_DMA_DISABLE(hdma);
 80025a2:	681a      	ldr	r2, [r3, #0]
 80025a4:	f022 0201 	bic.w	r2, r2, #1
 80025a8:	4605      	mov	r5, r0
 80025aa:	601a      	str	r2, [r3, #0]
  
  /* Check if the DMA Stream is effectively disabled */
  while((hdma->Instance->CR & DMA_SxCR_EN) != RESET)
 80025ac:	e005      	b.n	80025ba <HAL_DMA_Init+0x32>
  {
    /* Check for the Timeout */
    if((HAL_GetTick() - tickstart ) > HAL_TIMEOUT_DMA_ABORT)
 80025ae:	f7ff fd19 	bl	8001fe4 <HAL_GetTick>
 80025b2:	1b43      	subs	r3, r0, r5
 80025b4:	2b05      	cmp	r3, #5
 80025b6:	d839      	bhi.n	800262c <HAL_DMA_Init+0xa4>
  while((hdma->Instance->CR & DMA_SxCR_EN) != RESET)
 80025b8:	6823      	ldr	r3, [r4, #0]
 80025ba:	681a      	ldr	r2, [r3, #0]
 80025bc:	07d1      	lsls	r1, r2, #31
 80025be:	d4f6      	bmi.n	80025ae <HAL_DMA_Init+0x26>
                      DMA_SxCR_PL    | DMA_SxCR_MSIZE  | DMA_SxCR_PSIZE  | \
                      DMA_SxCR_MINC  | DMA_SxCR_PINC   | DMA_SxCR_CIRC   | \
                      DMA_SxCR_DIR   | DMA_SxCR_CT     | DMA_SxCR_DBM));

  /* Prepare the DMA Stream configuration */
  tmp |=  hdma->Init.Channel             | hdma->Init.Direction        |
 80025c0:	e9d4 2001 	ldrd	r2, r0, [r4, #4]
 80025c4:	68e1      	ldr	r1, [r4, #12]
 80025c6:	4302      	orrs	r2, r0
 80025c8:	430a      	orrs	r2, r1
          hdma->Init.PeriphInc           | hdma->Init.MemInc           |
 80025ca:	e9d4 5104 	ldrd	r5, r1, [r4, #16]
          hdma->Init.PeriphDataAlignment | hdma->Init.MemDataAlignment |
 80025ce:	69a0      	ldr	r0, [r4, #24]
          hdma->Init.PeriphInc           | hdma->Init.MemInc           |
 80025d0:	432a      	orrs	r2, r5
 80025d2:	430a      	orrs	r2, r1
          hdma->Init.PeriphDataAlignment | hdma->Init.MemDataAlignment |
 80025d4:	69e1      	ldr	r1, [r4, #28]
  tmp = hdma->Instance->CR;
 80025d6:	681d      	ldr	r5, [r3, #0]
          hdma->Init.PeriphDataAlignment | hdma->Init.MemDataAlignment |
 80025d8:	4302      	orrs	r2, r0
 80025da:	430a      	orrs	r2, r1
  tmp &= ((uint32_t)~(DMA_SxCR_CHSEL | DMA_SxCR_MBURST | DMA_SxCR_PBURST | \
 80025dc:	4932      	ldr	r1, [pc, #200]	@ (80026a8 <HAL_DMA_Init+0x120>)
 80025de:	4029      	ands	r1, r5
          hdma->Init.Mode                | hdma->Init.Priority;
 80025e0:	6a25      	ldr	r5, [r4, #32]
 80025e2:	432a      	orrs	r2, r5
  tmp |=  hdma->Init.Channel             | hdma->Init.Direction        |
 80025e4:	430a      	orrs	r2, r1

  /* the Memory burst and peripheral burst are not used when the FIFO is disabled */
  if(hdma->Init.FIFOMode == DMA_FIFOMODE_ENABLE)
 80025e6:	6a61      	ldr	r1, [r4, #36]	@ 0x24
 80025e8:	2904      	cmp	r1, #4
 80025ea:	d026      	beq.n	800263a <HAL_DMA_Init+0xb2>
    /* Get memory burst and peripheral burst */
    tmp |=  hdma->Init.MemBurst | hdma->Init.PeriphBurst;
  }
  
  /* Write to DMA Stream CR register */
  hdma->Instance->CR = tmp;  
 80025ec:	601a      	str	r2, [r3, #0]

  /* Get the FCR register value */
  tmp = hdma->Instance->FCR;
 80025ee:	695a      	ldr	r2, [r3, #20]

  /* Clear Direct mode and FIFO threshold bits */
  tmp &= (uint32_t)~(DMA_SxFCR_DMDIS | DMA_SxFCR_FTH);
 80025f0:	f022 0207 	bic.w	r2, r2, #7

  /* Prepare the DMA Stream FIFO configuration */
  tmp |= hdma->Init.FIFOMode;
 80025f4:	4311      	orrs	r1, r2
  *                     the configuration information for the specified DMA Stream. 
  * @retval Stream base address
  */
static uint32_t DMA_CalcBaseAndBitshift(DMA_HandleTypeDef *hdma)
{
  uint32_t stream_number = (((uint32_t)hdma->Instance & 0xFFU) - 16U) / 24U;
 80025f6:	b2d8      	uxtb	r0, r3
 80025f8:	4a2c      	ldr	r2, [pc, #176]	@ (80026ac <HAL_DMA_Init+0x124>)
  hdma->Instance->FCR = tmp;
 80025fa:	6159      	str	r1, [r3, #20]
  uint32_t stream_number = (((uint32_t)hdma->Instance & 0xFFU) - 16U) / 24U;
 80025fc:	3810      	subs	r0, #16
 80025fe:	fba2 5200 	umull	r5, r2, r2, r0
 8002602:	0912      	lsrs	r2, r2, #4
  
  /* lookup table for necessary bitshift of flags within status registers */
  static const uint8_t flagBitshiftOffset[8U] = {0U, 6U, 16U, 22U, 0U, 6U, 16U, 22U};
  hdma->StreamIndex = flagBitshiftOffset[stream_number];
 8002604:	492a      	ldr	r1, [pc, #168]	@ (80026b0 <HAL_DMA_Init+0x128>)
  
  if (stream_number > 3U)
  {
    /* return pointer to HISR and HIFCR */
    hdma->StreamBaseAddress = (((uint32_t)hdma->Instance & (uint32_t)(~0x3FFU)) + 4U);
 8002606:	f423 737f 	bic.w	r3, r3, #1020	@ 0x3fc
  hdma->StreamIndex = flagBitshiftOffset[stream_number];
 800260a:	5c89      	ldrb	r1, [r1, r2]
 800260c:	65e1      	str	r1, [r4, #92]	@ 0x5c
    hdma->StreamBaseAddress = (((uint32_t)hdma->Instance & (uint32_t)(~0x3FFU)) + 4U);
 800260e:	f023 0303 	bic.w	r3, r3, #3
  if (stream_number > 3U)
 8002612:	285f      	cmp	r0, #95	@ 0x5f
    hdma->StreamBaseAddress = (((uint32_t)hdma->Instance & (uint32_t)(~0x3FFU)) + 4U);
 8002614:	bf88      	it	hi
 8002616:	3304      	addhi	r3, #4
  regs->IFCR = 0x3FU << hdma->StreamIndex;
 8002618:	223f      	movs	r2, #63	@ 0x3f
 800261a:	408a      	lsls	r2, r1
 800261c:	65a3      	str	r3, [r4, #88]	@ 0x58
  hdma->ErrorCode = HAL_DMA_ERROR_NONE;
 800261e:	2000      	movs	r0, #0
  regs->IFCR = 0x3FU << hdma->StreamIndex;
 8002620:	609a      	str	r2, [r3, #8]
  hdma->State = HAL_DMA_STATE_READY;
 8002622:	2301      	movs	r3, #1
  hdma->ErrorCode = HAL_DMA_ERROR_NONE;
 8002624:	6560      	str	r0, [r4, #84]	@ 0x54
  hdma->State = HAL_DMA_STATE_READY;
 8002626:	f884 3035 	strb.w	r3, [r4, #53]	@ 0x35
}
 800262a:	bd38      	pop	{r3, r4, r5, pc}
      hdma->State = HAL_DMA_STATE_TIMEOUT;
 800262c:	2303      	movs	r3, #3
      hdma->ErrorCode = HAL_DMA_ERROR_TIMEOUT;
 800262e:	2220      	movs	r2, #32
 8002630:	6562      	str	r2, [r4, #84]	@ 0x54
      hdma->State = HAL_DMA_STATE_TIMEOUT;
 8002632:	f884 3035 	strb.w	r3, [r4, #53]	@ 0x35
      return HAL_TIMEOUT;
 8002636:	4618      	mov	r0, r3
}
 8002638:	bd38      	pop	{r3, r4, r5, pc}
    tmp |=  hdma->Init.MemBurst | hdma->Init.PeriphBurst;
 800263a:	e9d4 510b 	ldrd	r5, r1, [r4, #44]	@ 0x2c
 800263e:	4329      	orrs	r1, r5
 8002640:	4311      	orrs	r1, r2
  hdma->Instance->CR = tmp;  
 8002642:	6019      	str	r1, [r3, #0]
  tmp = hdma->Instance->FCR;
 8002644:	6959      	ldr	r1, [r3, #20]
    tmp |= hdma->Init.FIFOThreshold;
 8002646:	6aa2      	ldr	r2, [r4, #40]	@ 0x28
  tmp &= (uint32_t)~(DMA_SxFCR_DMDIS | DMA_SxFCR_FTH);
 8002648:	f021 0107 	bic.w	r1, r1, #7
 800264c:	4311      	orrs	r1, r2
    tmp |= hdma->Init.FIFOThreshold;
 800264e:	f041 0104 	orr.w	r1, r1, #4
    if (hdma->Init.MemBurst != DMA_MBURST_SINGLE)
 8002652:	2d00      	cmp	r5, #0
 8002654:	d0cf      	beq.n	80025f6 <HAL_DMA_Init+0x6e>
{
  HAL_StatusTypeDef status = HAL_OK;
  uint32_t tmp = hdma->Init.FIFOThreshold;
  
  /* Memory Data size equal to Byte */
  if(hdma->Init.MemDataAlignment == DMA_MDATAALIGN_BYTE)
 8002656:	b178      	cbz	r0, 8002678 <HAL_DMA_Init+0xf0>
      break;
    }
  }
  
  /* Memory Data size equal to Half-Word */
  else if (hdma->Init.MemDataAlignment == DMA_MDATAALIGN_HALFWORD)
 8002658:	f5b0 5f00 	cmp.w	r0, #8192	@ 0x2000
 800265c:	d016      	beq.n	800268c <HAL_DMA_Init+0x104>
  }
  
  /* Memory Data size equal to Word */
  else
  {
    switch (tmp)
 800265e:	2a02      	cmp	r2, #2
 8002660:	d903      	bls.n	800266a <HAL_DMA_Init+0xe2>
 8002662:	2a03      	cmp	r2, #3
 8002664:	d1c7      	bne.n	80025f6 <HAL_DMA_Init+0x6e>
    case DMA_FIFO_THRESHOLD_HALFFULL:
    case DMA_FIFO_THRESHOLD_3QUARTERSFULL:
      status = HAL_ERROR;
      break;
    case DMA_FIFO_THRESHOLD_FULL:
      if ((hdma->Init.MemBurst & DMA_SxCR_MBURST_1) == DMA_SxCR_MBURST_1)
 8002666:	01ea      	lsls	r2, r5, #7
 8002668:	d5c5      	bpl.n	80025f6 <HAL_DMA_Init+0x6e>
        hdma->ErrorCode = HAL_DMA_ERROR_PARAM;
 800266a:	2240      	movs	r2, #64	@ 0x40
        hdma->State = HAL_DMA_STATE_READY;
 800266c:	2301      	movs	r3, #1
        hdma->ErrorCode = HAL_DMA_ERROR_PARAM;
 800266e:	6562      	str	r2, [r4, #84]	@ 0x54
        hdma->State = HAL_DMA_STATE_READY;
 8002670:	f884 3035 	strb.w	r3, [r4, #53]	@ 0x35
    return HAL_ERROR;
 8002674:	2001      	movs	r0, #1
}
 8002676:	bd38      	pop	{r3, r4, r5, pc}
    switch (tmp)
 8002678:	2a01      	cmp	r2, #1
 800267a:	d003      	beq.n	8002684 <HAL_DMA_Init+0xfc>
 800267c:	f032 0202 	bics.w	r2, r2, #2
 8002680:	d1b9      	bne.n	80025f6 <HAL_DMA_Init+0x6e>
 8002682:	e7f0      	b.n	8002666 <HAL_DMA_Init+0xde>
      if (hdma->Init.MemBurst == DMA_MBURST_INC16)
 8002684:	f1b5 7fc0 	cmp.w	r5, #25165824	@ 0x1800000
 8002688:	d1b5      	bne.n	80025f6 <HAL_DMA_Init+0x6e>
 800268a:	e7ee      	b.n	800266a <HAL_DMA_Init+0xe2>
    switch (tmp)
 800268c:	2a03      	cmp	r2, #3
 800268e:	d8b2      	bhi.n	80025f6 <HAL_DMA_Init+0x6e>
 8002690:	a001      	add	r0, pc, #4	@ (adr r0, 8002698 <HAL_DMA_Init+0x110>)
 8002692:	f850 f022 	ldr.w	pc, [r0, r2, lsl #2]
 8002696:	bf00      	nop
 8002698:	0800266b 	.word	0x0800266b
 800269c:	08002667 	.word	0x08002667
 80026a0:	0800266b 	.word	0x0800266b
 80026a4:	08002685 	.word	0x08002685
 80026a8:	f010803f 	.word	0xf010803f
 80026ac:	aaaaaaab 	.word	0xaaaaaaab
 80026b0:	08007170 	.word	0x08007170

080026b4 <HAL_DMA_Start_IT>:
{
 80026b4:	b470      	push	{r4, r5, r6}
  __HAL_LOCK(hdma);
 80026b6:	f890 4034 	ldrb.w	r4, [r0, #52]	@ 0x34
  DMA_Base_Registers *regs = (DMA_Base_Registers *)hdma->StreamBaseAddress;
 80026ba:	6d85      	ldr	r5, [r0, #88]	@ 0x58
  __HAL_LOCK(hdma);
 80026bc:	2c01      	cmp	r4, #1
 80026be:	d00a      	beq.n	80026d6 <HAL_DMA_Start_IT+0x22>
  if(HAL_DMA_STATE_READY == hdma->State)
 80026c0:	f890 4035 	ldrb.w	r4, [r0, #53]	@ 0x35
  __HAL_LOCK(hdma);
 80026c4:	f04f 0c01 	mov.w	ip, #1
  if(HAL_DMA_STATE_READY == hdma->State)
 80026c8:	4564      	cmp	r4, ip
  __HAL_LOCK(hdma);
 80026ca:	f880 c034 	strb.w	ip, [r0, #52]	@ 0x34
  if(HAL_DMA_STATE_READY == hdma->State)
 80026ce:	d005      	beq.n	80026dc <HAL_DMA_Start_IT+0x28>
    __HAL_UNLOCK(hdma);	  
 80026d0:	2300      	movs	r3, #0
 80026d2:	f880 3034 	strb.w	r3, [r0, #52]	@ 0x34
  __HAL_LOCK(hdma);
 80026d6:	2002      	movs	r0, #2
}
 80026d8:	bc70      	pop	{r4, r5, r6}
 80026da:	4770      	bx	lr
    hdma->State = HAL_DMA_STATE_BUSY;
 80026dc:	2602      	movs	r6, #2
 80026de:	f880 6035 	strb.w	r6, [r0, #53]	@ 0x35
  hdma->Instance->CR &= (uint32_t)(~DMA_SxCR_DBM);
 80026e2:	6804      	ldr	r4, [r0, #0]
    hdma->ErrorCode = HAL_DMA_ERROR_NONE;
 80026e4:	2600      	movs	r6, #0
 80026e6:	6546      	str	r6, [r0, #84]	@ 0x54
  hdma->Instance->CR &= (uint32_t)(~DMA_SxCR_DBM);
 80026e8:	6826      	ldr	r6, [r4, #0]
 80026ea:	f426 2680 	bic.w	r6, r6, #262144	@ 0x40000
 80026ee:	6026      	str	r6, [r4, #0]
  hdma->Instance->NDTR = DataLength;
 80026f0:	6063      	str	r3, [r4, #4]
  if((hdma->Init.Direction) == DMA_MEMORY_TO_PERIPH)
 80026f2:	6883      	ldr	r3, [r0, #8]
 80026f4:	2b40      	cmp	r3, #64	@ 0x40
    hdma->Instance->PAR = DstAddress;
 80026f6:	bf0e      	itee	eq
 80026f8:	60a2      	streq	r2, [r4, #8]
    hdma->Instance->PAR = SrcAddress;
 80026fa:	60a1      	strne	r1, [r4, #8]
    hdma->Instance->M0AR = DstAddress;
 80026fc:	60e2      	strne	r2, [r4, #12]
    regs->IFCR = 0x3FU << hdma->StreamIndex;
 80026fe:	6dc2      	ldr	r2, [r0, #92]	@ 0x5c
    hdma->Instance->M0AR = SrcAddress;
 8002700:	bf08      	it	eq
 8002702:	60e1      	streq	r1, [r4, #12]
    regs->IFCR = 0x3FU << hdma->StreamIndex;
 8002704:	233f      	movs	r3, #63	@ 0x3f
 8002706:	4093      	lsls	r3, r2
 8002708:	60ab      	str	r3, [r5, #8]
    hdma->Instance->CR  |= DMA_IT_TC | DMA_IT_TE | DMA_IT_DME;
 800270a:	6823      	ldr	r3, [r4, #0]
    if(hdma->XferHalfCpltCallback != NULL)
 800270c:	6c02      	ldr	r2, [r0, #64]	@ 0x40
    hdma->Instance->CR  |= DMA_IT_TC | DMA_IT_TE | DMA_IT_DME;
 800270e:	f043 0316 	orr.w	r3, r3, #22
 8002712:	6023      	str	r3, [r4, #0]
    if(hdma->XferHalfCpltCallback != NULL)
 8002714:	b11a      	cbz	r2, 800271e <HAL_DMA_Start_IT+0x6a>
      hdma->Instance->CR  |= DMA_IT_HT;
 8002716:	6823      	ldr	r3, [r4, #0]
 8002718:	f043 0308 	orr.w	r3, r3, #8
 800271c:	6023      	str	r3, [r4, #0]
    __HAL_DMA_ENABLE(hdma);
 800271e:	6823      	ldr	r3, [r4, #0]
 8002720:	f043 0301 	orr.w	r3, r3, #1
  HAL_StatusTypeDef status = HAL_OK;
 8002724:	2000      	movs	r0, #0
    __HAL_DMA_ENABLE(hdma);
 8002726:	6023      	str	r3, [r4, #0]
}
 8002728:	bc70      	pop	{r4, r5, r6}
 800272a:	4770      	bx	lr

0800272c <HAL_DMA_Abort>:
{
 800272c:	b570      	push	{r4, r5, r6, lr}
 800272e:	4604      	mov	r4, r0
  DMA_Base_Registers *regs = (DMA_Base_Registers *)hdma->StreamBaseAddress;
 8002730:	6d86      	ldr	r6, [r0, #88]	@ 0x58
  uint32_t tickstart = HAL_GetTick();
 8002732:	f7ff fc57 	bl	8001fe4 <HAL_GetTick>
  if(hdma->State != HAL_DMA_STATE_BUSY)
 8002736:	f894 3035 	ldrb.w	r3, [r4, #53]	@ 0x35
 800273a:	2b02      	cmp	r3, #2
 800273c:	d006      	beq.n	800274c <HAL_DMA_Abort+0x20>
    hdma->ErrorCode = HAL_DMA_ERROR_NO_XFER;
 800273e:	2380      	movs	r3, #128	@ 0x80
 8002740:	6563      	str	r3, [r4, #84]	@ 0x54
    __HAL_UNLOCK(hdma);
 8002742:	2300      	movs	r3, #0
 8002744:	f884 3034 	strb.w	r3, [r4, #52]	@ 0x34
    return HAL_ERROR;
 8002748:	2001      	movs	r0, #1
}
 800274a:	bd70      	pop	{r4, r5, r6, pc}
    hdma->Instance->CR  &= ~(DMA_IT_TC | DMA_IT_TE | DMA_IT_DME);
 800274c:	6823      	ldr	r3, [r4, #0]
 800274e:	681a      	ldr	r2, [r3, #0]
 8002750:	f022 0216 	bic.w	r2, r2, #22
 8002754:	601a      	str	r2, [r3, #0]
    hdma->Instance->FCR &= ~(DMA_IT_FE);
 8002756:	695a      	ldr	r2, [r3, #20]
 8002758:	f022 0280 	bic.w	r2, r2, #128	@ 0x80
 800275c:	615a      	str	r2, [r3, #20]
    if((hdma->XferHalfCpltCallback != NULL) || (hdma->XferM1HalfCpltCallback != NULL))
 800275e:	6c22      	ldr	r2, [r4, #64]	@ 0x40
 8002760:	4605      	mov	r5, r0
 8002762:	b342      	cbz	r2, 80027b6 <HAL_DMA_Abort+0x8a>
      hdma->Instance->CR  &= ~(DMA_IT_HT);
 8002764:	681a      	ldr	r2, [r3, #0]
 8002766:	f022 0208 	bic.w	r2, r2, #8
 800276a:	601a      	str	r2, [r3, #0]
    __HAL_DMA_DISABLE(hdma);
 800276c:	681a      	ldr	r2, [r3, #0]
 800276e:	f022 0201 	bic.w	r2, r2, #1
 8002772:	601a      	str	r2, [r3, #0]
    while((hdma->Instance->CR & DMA_SxCR_EN) != RESET)
 8002774:	e005      	b.n	8002782 <HAL_DMA_Abort+0x56>
      if((HAL_GetTick() - tickstart ) > HAL_TIMEOUT_DMA_ABORT)
 8002776:	f7ff fc35 	bl	8001fe4 <HAL_GetTick>
 800277a:	1b43      	subs	r3, r0, r5
 800277c:	2b05      	cmp	r3, #5
 800277e:	d810      	bhi.n	80027a2 <HAL_DMA_Abort+0x76>
    while((hdma->Instance->CR & DMA_SxCR_EN) != RESET)
 8002780:	6823      	ldr	r3, [r4, #0]
 8002782:	681b      	ldr	r3, [r3, #0]
 8002784:	f013 0301 	ands.w	r3, r3, #1
 8002788:	d1f5      	bne.n	8002776 <HAL_DMA_Abort+0x4a>
    regs->IFCR = 0x3FU << hdma->StreamIndex;
 800278a:	6de1      	ldr	r1, [r4, #92]	@ 0x5c
 800278c:	223f      	movs	r2, #63	@ 0x3f
 800278e:	408a      	lsls	r2, r1
  return HAL_OK;
 8002790:	4618      	mov	r0, r3
    hdma->State = HAL_DMA_STATE_READY;
 8002792:	2101      	movs	r1, #1
    __HAL_UNLOCK(hdma);
 8002794:	2300      	movs	r3, #0
    regs->IFCR = 0x3FU << hdma->StreamIndex;
 8002796:	60b2      	str	r2, [r6, #8]
    hdma->State = HAL_DMA_STATE_READY;
 8002798:	f884 1035 	strb.w	r1, [r4, #53]	@ 0x35
    __HAL_UNLOCK(hdma);
 800279c:	f884 3034 	strb.w	r3, [r4, #52]	@ 0x34
}
 80027a0:	bd70      	pop	{r4, r5, r6, pc}
        hdma->State = HAL_DMA_STATE_TIMEOUT;
 80027a2:	2303      	movs	r3, #3
        hdma->ErrorCode = HAL_DMA_ERROR_TIMEOUT;
 80027a4:	2220      	movs	r2, #32
 80027a6:	6562      	str	r2, [r4, #84]	@ 0x54
        return HAL_TIMEOUT;
 80027a8:	4618      	mov	r0, r3
        hdma->State = HAL_DMA_STATE_TIMEOUT;
 80027aa:	f884 3035 	strb.w	r3, [r4, #53]	@ 0x35
    __HAL_UNLOCK(hdma);
 80027ae:	2300      	movs	r3, #0
 80027b0:	f884 3034 	strb.w	r3, [r4, #52]	@ 0x34
}
 80027b4:	bd70      	pop	{r4, r5, r6, pc}
    if((hdma->XferHalfCpltCallback != NULL) || (hdma->XferM1HalfCpltCallback != NULL))
 80027b6:	6ca2      	ldr	r2, [r4, #72]	@ 0x48
 80027b8:	2a00      	cmp	r2, #0
 80027ba:	d1d3      	bne.n	8002764 <HAL_DMA_Abort+0x38>
 80027bc:	e7d6      	b.n	800276c <HAL_DMA_Abort+0x40>
 80027be:	bf00      	nop

080027c0 <HAL_DMA_Abort_IT>:
  if(hdma->State != HAL_DMA_STATE_BUSY)
 80027c0:	f890 3035 	ldrb.w	r3, [r0, #53]	@ 0x35
 80027c4:	2b02      	cmp	r3, #2
 80027c6:	d003      	beq.n	80027d0 <HAL_DMA_Abort_IT+0x10>
    hdma->ErrorCode = HAL_DMA_ERROR_NO_XFER;
 80027c8:	2380      	movs	r3, #128	@ 0x80
 80027ca:	6543      	str	r3, [r0, #84]	@ 0x54
    return HAL_ERROR;
 80027cc:	2001      	movs	r0, #1
 80027ce:	4770      	bx	lr
    __HAL_DMA_DISABLE(hdma);
 80027d0:	6802      	ldr	r2, [r0, #0]
    hdma->State = HAL_DMA_STATE_ABORT;
 80027d2:	2305      	movs	r3, #5
 80027d4:	f880 3035 	strb.w	r3, [r0, #53]	@ 0x35
    __HAL_DMA_DISABLE(hdma);
 80027d8:	6813      	ldr	r3, [r2, #0]
 80027da:	f023 0301 	bic.w	r3, r3, #1
  return HAL_OK;
 80027de:	2000      	movs	r0, #0
    __HAL_DMA_DISABLE(hdma);
 80027e0:	6013      	str	r3, [r2, #0]
}
 80027e2:	4770      	bx	lr

080027e4 <HAL_DMA_IRQHandler>:
{
 80027e4:	b5f0      	push	{r4, r5, r6, r7, lr}
 80027e6:	b083      	sub	sp, #12
  uint32_t timeout = SystemCoreClock / 9600U;
 80027e8:	4a67      	ldr	r2, [pc, #412]	@ (8002988 <HAL_DMA_IRQHandler+0x1a4>)
  DMA_Base_Registers *regs = (DMA_Base_Registers *)hdma->StreamBaseAddress;
 80027ea:	6d87      	ldr	r7, [r0, #88]	@ 0x58
  uint32_t timeout = SystemCoreClock / 9600U;
 80027ec:	6816      	ldr	r6, [r2, #0]
  __IO uint32_t count = 0U;
 80027ee:	2300      	movs	r3, #0
 80027f0:	9301      	str	r3, [sp, #4]
  if ((tmpisr & (DMA_FLAG_TEIF0_4 << hdma->StreamIndex)) != RESET)
 80027f2:	6dc3      	ldr	r3, [r0, #92]	@ 0x5c
  tmpisr = regs->ISR;
 80027f4:	683d      	ldr	r5, [r7, #0]
  if ((tmpisr & (DMA_FLAG_TEIF0_4 << hdma->StreamIndex)) != RESET)
 80027f6:	2208      	movs	r2, #8
 80027f8:	409a      	lsls	r2, r3
 80027fa:	422a      	tst	r2, r5
{
 80027fc:	4604      	mov	r4, r0
  if ((tmpisr & (DMA_FLAG_TEIF0_4 << hdma->StreamIndex)) != RESET)
 80027fe:	d003      	beq.n	8002808 <HAL_DMA_IRQHandler+0x24>
    if(__HAL_DMA_GET_IT_SOURCE(hdma, DMA_IT_TE) != RESET)
 8002800:	6801      	ldr	r1, [r0, #0]
 8002802:	6808      	ldr	r0, [r1, #0]
 8002804:	0740      	lsls	r0, r0, #29
 8002806:	d478      	bmi.n	80028fa <HAL_DMA_IRQHandler+0x116>
  if ((tmpisr & (DMA_FLAG_FEIF0_4 << hdma->StreamIndex)) != RESET)
 8002808:	2201      	movs	r2, #1
 800280a:	409a      	lsls	r2, r3
 800280c:	422a      	tst	r2, r5
 800280e:	d003      	beq.n	8002818 <HAL_DMA_IRQHandler+0x34>
    if(__HAL_DMA_GET_IT_SOURCE(hdma, DMA_IT_FE) != RESET)
 8002810:	6821      	ldr	r1, [r4, #0]
 8002812:	6949      	ldr	r1, [r1, #20]
 8002814:	0608      	lsls	r0, r1, #24
 8002816:	d46a      	bmi.n	80028ee <HAL_DMA_IRQHandler+0x10a>
  if ((tmpisr & (DMA_FLAG_DMEIF0_4 << hdma->StreamIndex)) != RESET)
 8002818:	2204      	movs	r2, #4
 800281a:	409a      	lsls	r2, r3
 800281c:	422a      	tst	r2, r5
 800281e:	d003      	beq.n	8002828 <HAL_DMA_IRQHandler+0x44>
    if(__HAL_DMA_GET_IT_SOURCE(hdma, DMA_IT_DME) != RESET)
 8002820:	6821      	ldr	r1, [r4, #0]
 8002822:	6809      	ldr	r1, [r1, #0]
 8002824:	0789      	lsls	r1, r1, #30
 8002826:	d45c      	bmi.n	80028e2 <HAL_DMA_IRQHandler+0xfe>
  if ((tmpisr & (DMA_FLAG_HTIF0_4 << hdma->StreamIndex)) != RESET)
 8002828:	2210      	movs	r2, #16
 800282a:	409a      	lsls	r2, r3
 800282c:	422a      	tst	r2, r5
 800282e:	d003      	beq.n	8002838 <HAL_DMA_IRQHandler+0x54>
    if(__HAL_DMA_GET_IT_SOURCE(hdma, DMA_IT_HT) != RESET)
 8002830:	6821      	ldr	r1, [r4, #0]
 8002832:	6808      	ldr	r0, [r1, #0]
 8002834:	0700      	lsls	r0, r0, #28
 8002836:	d441      	bmi.n	80028bc <HAL_DMA_IRQHandler+0xd8>
  if ((tmpisr & (DMA_FLAG_TCIF0_4 << hdma->StreamIndex)) != RESET)
 8002838:	2220      	movs	r2, #32
 800283a:	409a      	lsls	r2, r3
 800283c:	422a      	tst	r2, r5
 800283e:	d014      	beq.n	800286a <HAL_DMA_IRQHandler+0x86>
    if(__HAL_DMA_GET_IT_SOURCE(hdma, DMA_IT_TC) != RESET)
 8002840:	6821      	ldr	r1, [r4, #0]
 8002842:	6808      	ldr	r0, [r1, #0]
 8002844:	06c0      	lsls	r0, r0, #27
 8002846:	d510      	bpl.n	800286a <HAL_DMA_IRQHandler+0x86>
      regs->IFCR = DMA_FLAG_TCIF0_4 << hdma->StreamIndex;
 8002848:	60ba      	str	r2, [r7, #8]
      if(HAL_DMA_STATE_ABORT == hdma->State)
 800284a:	f894 2035 	ldrb.w	r2, [r4, #53]	@ 0x35
 800284e:	2a05      	cmp	r2, #5
 8002850:	d063      	beq.n	800291a <HAL_DMA_IRQHandler+0x136>
      if(((hdma->Instance->CR) & (uint32_t)(DMA_SxCR_DBM)) != RESET)
 8002852:	680b      	ldr	r3, [r1, #0]
 8002854:	f413 2f80 	tst.w	r3, #262144	@ 0x40000
        if((hdma->Instance->CR & DMA_SxCR_CT) == RESET)
 8002858:	680b      	ldr	r3, [r1, #0]
      if(((hdma->Instance->CR) & (uint32_t)(DMA_SxCR_DBM)) != RESET)
 800285a:	d07e      	beq.n	800295a <HAL_DMA_IRQHandler+0x176>
        if((hdma->Instance->CR & DMA_SxCR_CT) == RESET)
 800285c:	0319      	lsls	r1, r3, #12
 800285e:	f140 8089 	bpl.w	8002974 <HAL_DMA_IRQHandler+0x190>
        if(hdma->XferCpltCallback != NULL)
 8002862:	6be3      	ldr	r3, [r4, #60]	@ 0x3c
 8002864:	b10b      	cbz	r3, 800286a <HAL_DMA_IRQHandler+0x86>
          hdma->XferCpltCallback(hdma);
 8002866:	4620      	mov	r0, r4
 8002868:	4798      	blx	r3
  if(hdma->ErrorCode != HAL_DMA_ERROR_NONE)
 800286a:	6d63      	ldr	r3, [r4, #84]	@ 0x54
 800286c:	b323      	cbz	r3, 80028b8 <HAL_DMA_IRQHandler+0xd4>
    if((hdma->ErrorCode & HAL_DMA_ERROR_TE) != RESET)
 800286e:	6d63      	ldr	r3, [r4, #84]	@ 0x54
 8002870:	07da      	lsls	r2, r3, #31
 8002872:	d51a      	bpl.n	80028aa <HAL_DMA_IRQHandler+0xc6>
      __HAL_DMA_DISABLE(hdma);
 8002874:	6822      	ldr	r2, [r4, #0]
  uint32_t timeout = SystemCoreClock / 9600U;
 8002876:	4945      	ldr	r1, [pc, #276]	@ (800298c <HAL_DMA_IRQHandler+0x1a8>)
      hdma->State = HAL_DMA_STATE_ABORT;
 8002878:	2305      	movs	r3, #5
 800287a:	f884 3035 	strb.w	r3, [r4, #53]	@ 0x35
      __HAL_DMA_DISABLE(hdma);
 800287e:	6813      	ldr	r3, [r2, #0]
  uint32_t timeout = SystemCoreClock / 9600U;
 8002880:	fba1 1606 	umull	r1, r6, r1, r6
      __HAL_DMA_DISABLE(hdma);
 8002884:	f023 0301 	bic.w	r3, r3, #1
  uint32_t timeout = SystemCoreClock / 9600U;
 8002888:	0ab6      	lsrs	r6, r6, #10
      __HAL_DMA_DISABLE(hdma);
 800288a:	6013      	str	r3, [r2, #0]
 800288c:	e002      	b.n	8002894 <HAL_DMA_IRQHandler+0xb0>
      while((hdma->Instance->CR & DMA_SxCR_EN) != RESET);
 800288e:	6813      	ldr	r3, [r2, #0]
 8002890:	07db      	lsls	r3, r3, #31
 8002892:	d504      	bpl.n	800289e <HAL_DMA_IRQHandler+0xba>
        if (++count > timeout)
 8002894:	9b01      	ldr	r3, [sp, #4]
 8002896:	3301      	adds	r3, #1
 8002898:	42b3      	cmp	r3, r6
 800289a:	9301      	str	r3, [sp, #4]
 800289c:	d9f7      	bls.n	800288e <HAL_DMA_IRQHandler+0xaa>
      hdma->State = HAL_DMA_STATE_READY;
 800289e:	2201      	movs	r2, #1
      __HAL_UNLOCK(hdma);
 80028a0:	2300      	movs	r3, #0
      hdma->State = HAL_DMA_STATE_READY;
 80028a2:	f884 2035 	strb.w	r2, [r4, #53]	@ 0x35
      __HAL_UNLOCK(hdma);
 80028a6:	f884 3034 	strb.w	r3, [r4, #52]	@ 0x34
    if(hdma->XferErrorCallback != NULL)
 80028aa:	6ce3      	ldr	r3, [r4, #76]	@ 0x4c
 80028ac:	b123      	cbz	r3, 80028b8 <HAL_DMA_IRQHandler+0xd4>
      hdma->XferErrorCallback(hdma);
 80028ae:	4620      	mov	r0, r4
}
 80028b0:	b003      	add	sp, #12
 80028b2:	e8bd 40f0 	ldmia.w	sp!, {r4, r5, r6, r7, lr}
      hdma->XferErrorCallback(hdma);
 80028b6:	4718      	bx	r3
}
 80028b8:	b003      	add	sp, #12
 80028ba:	bdf0      	pop	{r4, r5, r6, r7, pc}
      regs->IFCR = DMA_FLAG_HTIF0_4 << hdma->StreamIndex;
 80028bc:	60ba      	str	r2, [r7, #8]
      if(((hdma->Instance->CR) & (uint32_t)(DMA_SxCR_DBM)) != RESET)
 80028be:	680a      	ldr	r2, [r1, #0]
 80028c0:	f412 2f80 	tst.w	r2, #262144	@ 0x40000
        if((hdma->Instance->CR & DMA_SxCR_CT) == RESET)
 80028c4:	680a      	ldr	r2, [r1, #0]
      if(((hdma->Instance->CR) & (uint32_t)(DMA_SxCR_DBM)) != RESET)
 80028c6:	d122      	bne.n	800290e <HAL_DMA_IRQHandler+0x12a>
        if((hdma->Instance->CR & DMA_SxCR_CIRC) == RESET)
 80028c8:	05d2      	lsls	r2, r2, #23
 80028ca:	d403      	bmi.n	80028d4 <HAL_DMA_IRQHandler+0xf0>
          hdma->Instance->CR  &= ~(DMA_IT_HT);
 80028cc:	680a      	ldr	r2, [r1, #0]
 80028ce:	f022 0208 	bic.w	r2, r2, #8
 80028d2:	600a      	str	r2, [r1, #0]
        if(hdma->XferHalfCpltCallback != NULL)
 80028d4:	6c22      	ldr	r2, [r4, #64]	@ 0x40
 80028d6:	2a00      	cmp	r2, #0
 80028d8:	d0ae      	beq.n	8002838 <HAL_DMA_IRQHandler+0x54>
          hdma->XferHalfCpltCallback(hdma);
 80028da:	4620      	mov	r0, r4
 80028dc:	4790      	blx	r2
  if ((tmpisr & (DMA_FLAG_TCIF0_4 << hdma->StreamIndex)) != RESET)
 80028de:	6de3      	ldr	r3, [r4, #92]	@ 0x5c
 80028e0:	e7aa      	b.n	8002838 <HAL_DMA_IRQHandler+0x54>
      regs->IFCR = DMA_FLAG_DMEIF0_4 << hdma->StreamIndex;
 80028e2:	60ba      	str	r2, [r7, #8]
      hdma->ErrorCode |= HAL_DMA_ERROR_DME;
 80028e4:	6d62      	ldr	r2, [r4, #84]	@ 0x54
 80028e6:	f042 0204 	orr.w	r2, r2, #4
 80028ea:	6562      	str	r2, [r4, #84]	@ 0x54
 80028ec:	e79c      	b.n	8002828 <HAL_DMA_IRQHandler+0x44>
      regs->IFCR = DMA_FLAG_FEIF0_4 << hdma->StreamIndex;
 80028ee:	60ba      	str	r2, [r7, #8]
      hdma->ErrorCode |= HAL_DMA_ERROR_FE;
 80028f0:	6d62      	ldr	r2, [r4, #84]	@ 0x54
 80028f2:	f042 0202 	orr.w	r2, r2, #2
 80028f6:	6562      	str	r2, [r4, #84]	@ 0x54
 80028f8:	e78e      	b.n	8002818 <HAL_DMA_IRQHandler+0x34>
      hdma->Instance->CR  &= ~(DMA_IT_TE);
 80028fa:	6808      	ldr	r0, [r1, #0]
 80028fc:	f020 0004 	bic.w	r0, r0, #4
 8002900:	6008      	str	r0, [r1, #0]
      regs->IFCR = DMA_FLAG_TEIF0_4 << hdma->StreamIndex;
 8002902:	60ba      	str	r2, [r7, #8]
      hdma->ErrorCode |= HAL_DMA_ERROR_TE;
 8002904:	6d62      	ldr	r2, [r4, #84]	@ 0x54
 8002906:	f042 0201 	orr.w	r2, r2, #1
 800290a:	6562      	str	r2, [r4, #84]	@ 0x54
 800290c:	e77c      	b.n	8002808 <HAL_DMA_IRQHandler+0x24>
        if((hdma->Instance->CR & DMA_SxCR_CT) == RESET)
 800290e:	0311      	lsls	r1, r2, #12
 8002910:	d5e0      	bpl.n	80028d4 <HAL_DMA_IRQHandler+0xf0>
          if(hdma->XferM1HalfCpltCallback != NULL)
 8002912:	6ca2      	ldr	r2, [r4, #72]	@ 0x48
 8002914:	2a00      	cmp	r2, #0
 8002916:	d1e0      	bne.n	80028da <HAL_DMA_IRQHandler+0xf6>
 8002918:	e78e      	b.n	8002838 <HAL_DMA_IRQHandler+0x54>
        hdma->Instance->CR  &= ~(DMA_IT_TC | DMA_IT_TE | DMA_IT_DME);
 800291a:	680a      	ldr	r2, [r1, #0]
 800291c:	f022 0216 	bic.w	r2, r2, #22
 8002920:	600a      	str	r2, [r1, #0]
        hdma->Instance->FCR &= ~(DMA_IT_FE);
 8002922:	694a      	ldr	r2, [r1, #20]
 8002924:	f022 0280 	bic.w	r2, r2, #128	@ 0x80
 8002928:	614a      	str	r2, [r1, #20]
        if((hdma->XferHalfCpltCallback != NULL) || (hdma->XferM1HalfCpltCallback != NULL))
 800292a:	6c22      	ldr	r2, [r4, #64]	@ 0x40
 800292c:	b33a      	cbz	r2, 800297e <HAL_DMA_IRQHandler+0x19a>
          hdma->Instance->CR  &= ~(DMA_IT_HT);
 800292e:	680a      	ldr	r2, [r1, #0]
 8002930:	f022 0208 	bic.w	r2, r2, #8
 8002934:	600a      	str	r2, [r1, #0]
        regs->IFCR = 0x3FU << hdma->StreamIndex;
 8002936:	223f      	movs	r2, #63	@ 0x3f
 8002938:	fa02 f303 	lsl.w	r3, r2, r3
        if(hdma->XferAbortCallback != NULL)
 800293c:	6d21      	ldr	r1, [r4, #80]	@ 0x50
        regs->IFCR = 0x3FU << hdma->StreamIndex;
 800293e:	60bb      	str	r3, [r7, #8]
        hdma->State = HAL_DMA_STATE_READY;
 8002940:	2201      	movs	r2, #1
        __HAL_UNLOCK(hdma);
 8002942:	2300      	movs	r3, #0
        hdma->State = HAL_DMA_STATE_READY;
 8002944:	f884 2035 	strb.w	r2, [r4, #53]	@ 0x35
        __HAL_UNLOCK(hdma);
 8002948:	f884 3034 	strb.w	r3, [r4, #52]	@ 0x34
        if(hdma->XferAbortCallback != NULL)
 800294c:	2900      	cmp	r1, #0
 800294e:	d0b3      	beq.n	80028b8 <HAL_DMA_IRQHandler+0xd4>
          hdma->XferAbortCallback(hdma);
 8002950:	4620      	mov	r0, r4
}
 8002952:	b003      	add	sp, #12
 8002954:	e8bd 40f0 	ldmia.w	sp!, {r4, r5, r6, r7, lr}
          hdma->XferAbortCallback(hdma);
 8002958:	4708      	bx	r1
        if((hdma->Instance->CR & DMA_SxCR_CIRC) == RESET)
 800295a:	f413 7380 	ands.w	r3, r3, #256	@ 0x100
 800295e:	d180      	bne.n	8002862 <HAL_DMA_IRQHandler+0x7e>
          hdma->Instance->CR  &= ~(DMA_IT_TC);
 8002960:	680a      	ldr	r2, [r1, #0]
 8002962:	f022 0210 	bic.w	r2, r2, #16
 8002966:	600a      	str	r2, [r1, #0]
          hdma->State = HAL_DMA_STATE_READY;
 8002968:	2201      	movs	r2, #1
 800296a:	f884 2035 	strb.w	r2, [r4, #53]	@ 0x35
          __HAL_UNLOCK(hdma);
 800296e:	f884 3034 	strb.w	r3, [r4, #52]	@ 0x34
 8002972:	e776      	b.n	8002862 <HAL_DMA_IRQHandler+0x7e>
          if(hdma->XferM1CpltCallback != NULL)
 8002974:	6c63      	ldr	r3, [r4, #68]	@ 0x44
 8002976:	2b00      	cmp	r3, #0
 8002978:	f47f af75 	bne.w	8002866 <HAL_DMA_IRQHandler+0x82>
 800297c:	e775      	b.n	800286a <HAL_DMA_IRQHandler+0x86>
        if((hdma->XferHalfCpltCallback != NULL) || (hdma->XferM1HalfCpltCallback != NULL))
 800297e:	6ca2      	ldr	r2, [r4, #72]	@ 0x48
 8002980:	2a00      	cmp	r2, #0
 8002982:	d1d4      	bne.n	800292e <HAL_DMA_IRQHandler+0x14a>
 8002984:	e7d7      	b.n	8002936 <HAL_DMA_IRQHandler+0x152>
 8002986:	bf00      	nop
 8002988:	20000010 	.word	0x20000010
 800298c:	1b4e81b5 	.word	0x1b4e81b5

08002990 <HAL_GPIO_Init>:
  * @param  GPIO_Init pointer to a GPIO_InitTypeDef structure that contains
  *         the configuration information for the specified GPIO peripheral.
  * @retval None
  */
void HAL_GPIO_Init(GPIO_TypeDef  *GPIOx, GPIO_InitTypeDef *GPIO_Init)
{
 8002990:	e92d 4ff0 	stmdb	sp!, {r4, r5, r6, r7, r8, r9, sl, fp, lr}
  assert_param(IS_GPIO_ALL_INSTANCE(GPIOx));
  assert_param(IS_GPIO_PIN(GPIO_Init->Pin));
  assert_param(IS_GPIO_MODE(GPIO_Init->Mode));

  /* Configure the port pins */
  for(position = 0U; position < GPIO_NUMBER; position++)
 8002994:	2300      	movs	r3, #0
  {
    /* Get the IO position */
    ioposition = 0x01U << position;
    /* Get the current IO position */
    iocurrent = (uint32_t)(GPIO_Init->Pin) & ioposition;
 8002996:	680c      	ldr	r4, [r1, #0]
      /*--------------------- EXTI Mode Configuration ------------------------*/
      /* Configure the External Interrupt or event for the current IO */
      if((GPIO_Init->Mode & EXTI_MODE) != 0x00U)
      {
        /* Enable SYSCFG Clock */
        __HAL_RCC_SYSCFG_CLK_ENABLE();
 8002998:	f8df a1d4 	ldr.w	sl, [pc, #468]	@ 8002b70 <HAL_GPIO_Init+0x1e0>
{
 800299c:	b085      	sub	sp, #20
    ioposition = 0x01U << position;
 800299e:	f04f 0b01 	mov.w	fp, #1

        temp = SYSCFG->EXTICR[position >> 2U];
        temp &= ~(0x0FU << (4U * (position & 0x03U)));
 80029a2:	4689      	mov	r9, r1
 80029a4:	e003      	b.n	80029ae <HAL_GPIO_Init+0x1e>
  for(position = 0U; position < GPIO_NUMBER; position++)
 80029a6:	3301      	adds	r3, #1
 80029a8:	2b10      	cmp	r3, #16
 80029aa:	f000 8082 	beq.w	8002ab2 <HAL_GPIO_Init+0x122>
    ioposition = 0x01U << position;
 80029ae:	fa0b f203 	lsl.w	r2, fp, r3
    iocurrent = (uint32_t)(GPIO_Init->Pin) & ioposition;
 80029b2:	ea02 0804 	and.w	r8, r2, r4
    if(iocurrent == ioposition)
 80029b6:	43a2      	bics	r2, r4
 80029b8:	d1f5      	bne.n	80029a6 <HAL_GPIO_Init+0x16>
      if(((GPIO_Init->Mode & GPIO_MODE) == MODE_OUTPUT) || \
 80029ba:	f8d9 1004 	ldr.w	r1, [r9, #4]
 80029be:	f001 0203 	and.w	r2, r1, #3
 80029c2:	ea4f 0c43 	mov.w	ip, r3, lsl #1
        temp &= ~(GPIO_OSPEEDER_OSPEEDR0 << (position * 2U));
 80029c6:	2503      	movs	r5, #3
      if(((GPIO_Init->Mode & GPIO_MODE) == MODE_OUTPUT) || \
 80029c8:	1e57      	subs	r7, r2, #1
        temp &= ~(GPIO_OSPEEDER_OSPEEDR0 << (position * 2U));
 80029ca:	fa05 f50c 	lsl.w	r5, r5, ip
      if(((GPIO_Init->Mode & GPIO_MODE) == MODE_OUTPUT) || \
 80029ce:	2f01      	cmp	r7, #1
        temp &= ~(GPIO_OSPEEDER_OSPEEDR0 << (position * 2U));
 80029d0:	ea6f 0505 	mvn.w	r5, r5
      if(((GPIO_Init->Mode & GPIO_MODE) == MODE_OUTPUT) || \
 80029d4:	d970      	bls.n	8002ab8 <HAL_GPIO_Init+0x128>
      if((GPIO_Init->Mode & GPIO_MODE) != MODE_ANALOG)
 80029d6:	2a03      	cmp	r2, #3
 80029d8:	f040 80a7 	bne.w	8002b2a <HAL_GPIO_Init+0x19a>
      temp = GPIOx->MODER;
 80029dc:	6807      	ldr	r7, [r0, #0]
      temp |= ((GPIO_Init->Mode & GPIO_MODE) << (position * 2U));
 80029de:	fa02 f20c 	lsl.w	r2, r2, ip
      temp &= ~(GPIO_MODER_MODER0 << (position * 2U));
 80029e2:	403d      	ands	r5, r7
      temp |= ((GPIO_Init->Mode & GPIO_MODE) << (position * 2U));
 80029e4:	432a      	orrs	r2, r5
      if((GPIO_Init->Mode & EXTI_MODE) != 0x00U)
 80029e6:	f411 3f40 	tst.w	r1, #196608	@ 0x30000
      GPIOx->MODER = temp;
 80029ea:	6002      	str	r2, [r0, #0]
      if((GPIO_Init->Mode & EXTI_MODE) != 0x00U)
 80029ec:	d0db      	beq.n	80029a6 <HAL_GPIO_Init+0x16>
        __HAL_RCC_SYSCFG_CLK_ENABLE();
 80029ee:	2200      	movs	r2, #0
 80029f0:	9203      	str	r2, [sp, #12]
 80029f2:	f8da 2044 	ldr.w	r2, [sl, #68]	@ 0x44
 80029f6:	f442 4280 	orr.w	r2, r2, #16384	@ 0x4000
 80029fa:	f8ca 2044 	str.w	r2, [sl, #68]	@ 0x44
 80029fe:	f8da 2044 	ldr.w	r2, [sl, #68]	@ 0x44
 8002a02:	f402 4280 	and.w	r2, r2, #16384	@ 0x4000
 8002a06:	9203      	str	r2, [sp, #12]
 8002a08:	9a03      	ldr	r2, [sp, #12]
        temp = SYSCFG->EXTICR[position >> 2U];
 8002a0a:	f023 0203 	bic.w	r2, r3, #3
 8002a0e:	f102 4280 	add.w	r2, r2, #1073741824	@ 0x40000000
        temp &= ~(0x0FU << (4U * (position & 0x03U)));
 8002a12:	f003 0703 	and.w	r7, r3, #3
 8002a16:	260f      	movs	r6, #15
 8002a18:	f502 329c 	add.w	r2, r2, #79872	@ 0x13800
 8002a1c:	00bf      	lsls	r7, r7, #2
 8002a1e:	fa06 fc07 	lsl.w	ip, r6, r7
        temp |= ((uint32_t)(GPIO_GET_INDEX(GPIOx)) << (4U * (position & 0x03U)));
 8002a22:	4e50      	ldr	r6, [pc, #320]	@ (8002b64 <HAL_GPIO_Init+0x1d4>)
        temp = SYSCFG->EXTICR[position >> 2U];
 8002a24:	6895      	ldr	r5, [r2, #8]
        temp |= ((uint32_t)(GPIO_GET_INDEX(GPIOx)) << (4U * (position & 0x03U)));
 8002a26:	42b0      	cmp	r0, r6
        temp &= ~(0x0FU << (4U * (position & 0x03U)));
 8002a28:	ea25 050c 	bic.w	r5, r5, ip
        temp |= ((uint32_t)(GPIO_GET_INDEX(GPIOx)) << (4U * (position & 0x03U)));
 8002a2c:	d018      	beq.n	8002a60 <HAL_GPIO_Init+0xd0>
 8002a2e:	f506 6680 	add.w	r6, r6, #1024	@ 0x400
 8002a32:	42b0      	cmp	r0, r6
 8002a34:	f000 8084 	beq.w	8002b40 <HAL_GPIO_Init+0x1b0>
 8002a38:	4e4b      	ldr	r6, [pc, #300]	@ (8002b68 <HAL_GPIO_Init+0x1d8>)
 8002a3a:	42b0      	cmp	r0, r6
 8002a3c:	f000 8086 	beq.w	8002b4c <HAL_GPIO_Init+0x1bc>
 8002a40:	f8df c130 	ldr.w	ip, [pc, #304]	@ 8002b74 <HAL_GPIO_Init+0x1e4>
 8002a44:	4560      	cmp	r0, ip
 8002a46:	f000 8087 	beq.w	8002b58 <HAL_GPIO_Init+0x1c8>
 8002a4a:	f8df c12c 	ldr.w	ip, [pc, #300]	@ 8002b78 <HAL_GPIO_Init+0x1e8>
 8002a4e:	4560      	cmp	r0, ip
 8002a50:	bf0c      	ite	eq
 8002a52:	f04f 0c04 	moveq.w	ip, #4
 8002a56:	f04f 0c07 	movne.w	ip, #7
 8002a5a:	fa0c f707 	lsl.w	r7, ip, r7
 8002a5e:	433d      	orrs	r5, r7
        SYSCFG->EXTICR[position >> 2U] = temp;
 8002a60:	6095      	str	r5, [r2, #8]

        /* Clear Rising Falling edge configuration */
        temp = EXTI->RTSR;
 8002a62:	4a42      	ldr	r2, [pc, #264]	@ (8002b6c <HAL_GPIO_Init+0x1dc>)
 8002a64:	6892      	ldr	r2, [r2, #8]
        temp &= ~((uint32_t)iocurrent);
        if((GPIO_Init->Mode & TRIGGER_RISING) != 0x00U)
 8002a66:	02ce      	lsls	r6, r1, #11
        temp &= ~((uint32_t)iocurrent);
 8002a68:	ea6f 0508 	mvn.w	r5, r8
        {
          temp |= iocurrent;
        }
        EXTI->RTSR = temp;
 8002a6c:	4e3f      	ldr	r6, [pc, #252]	@ (8002b6c <HAL_GPIO_Init+0x1dc>)
        temp &= ~((uint32_t)iocurrent);
 8002a6e:	bf54      	ite	pl
 8002a70:	402a      	andpl	r2, r5
          temp |= iocurrent;
 8002a72:	ea48 0202 	orrmi.w	r2, r8, r2
        EXTI->RTSR = temp;
 8002a76:	60b2      	str	r2, [r6, #8]

        temp = EXTI->FTSR;
 8002a78:	68f2      	ldr	r2, [r6, #12]
        temp &= ~((uint32_t)iocurrent);
        if((GPIO_Init->Mode & TRIGGER_FALLING) != 0x00U)
        {
          temp |= iocurrent;
        }
        EXTI->FTSR = temp;
 8002a7a:	4e3c      	ldr	r6, [pc, #240]	@ (8002b6c <HAL_GPIO_Init+0x1dc>)
        if((GPIO_Init->Mode & TRIGGER_FALLING) != 0x00U)
 8002a7c:	028f      	lsls	r7, r1, #10
        temp &= ~((uint32_t)iocurrent);
 8002a7e:	bf54      	ite	pl
 8002a80:	402a      	andpl	r2, r5
          temp |= iocurrent;
 8002a82:	ea48 0202 	orrmi.w	r2, r8, r2
        EXTI->FTSR = temp;
 8002a86:	60f2      	str	r2, [r6, #12]

        temp = EXTI->EMR;
 8002a88:	6872      	ldr	r2, [r6, #4]
        temp &= ~((uint32_t)iocurrent);
        if((GPIO_Init->Mode & EXTI_EVT) != 0x00U)
 8002a8a:	038e      	lsls	r6, r1, #14
        {
          temp |= iocurrent;
        }
        EXTI->EMR = temp;
 8002a8c:	4e37      	ldr	r6, [pc, #220]	@ (8002b6c <HAL_GPIO_Init+0x1dc>)
        temp &= ~((uint32_t)iocurrent);
 8002a8e:	bf54      	ite	pl
 8002a90:	402a      	andpl	r2, r5
          temp |= iocurrent;
 8002a92:	ea48 0202 	orrmi.w	r2, r8, r2
        EXTI->EMR = temp;
 8002a96:	6072      	str	r2, [r6, #4]

        /* Clear EXTI line configuration */
        temp = EXTI->IMR;
 8002a98:	6832      	ldr	r2, [r6, #0]
        temp &= ~((uint32_t)iocurrent);
        if((GPIO_Init->Mode & EXTI_IT) != 0x00U)
 8002a9a:	03c9      	lsls	r1, r1, #15
  for(position = 0U; position < GPIO_NUMBER; position++)
 8002a9c:	f103 0301 	add.w	r3, r3, #1
        {
          temp |= iocurrent;
        }
        EXTI->IMR = temp;
 8002aa0:	4932      	ldr	r1, [pc, #200]	@ (8002b6c <HAL_GPIO_Init+0x1dc>)
        temp &= ~((uint32_t)iocurrent);
 8002aa2:	bf54      	ite	pl
 8002aa4:	402a      	andpl	r2, r5
          temp |= iocurrent;
 8002aa6:	ea48 0202 	orrmi.w	r2, r8, r2
  for(position = 0U; position < GPIO_NUMBER; position++)
 8002aaa:	2b10      	cmp	r3, #16
        EXTI->IMR = temp;
 8002aac:	600a      	str	r2, [r1, #0]
  for(position = 0U; position < GPIO_NUMBER; position++)
 8002aae:	f47f af7e 	bne.w	80029ae <HAL_GPIO_Init+0x1e>
      }
    }
  }
}
 8002ab2:	b005      	add	sp, #20
 8002ab4:	e8bd 8ff0 	ldmia.w	sp!, {r4, r5, r6, r7, r8, r9, sl, fp, pc}
        temp = GPIOx->OSPEEDR; 
 8002ab8:	6887      	ldr	r7, [r0, #8]
        temp &= ~(GPIO_OSPEEDER_OSPEEDR0 << (position * 2U));
 8002aba:	ea07 0e05 	and.w	lr, r7, r5
        temp |= (GPIO_Init->Speed << (position * 2U));
 8002abe:	f8d9 700c 	ldr.w	r7, [r9, #12]
 8002ac2:	fa07 f70c 	lsl.w	r7, r7, ip
 8002ac6:	ea47 070e 	orr.w	r7, r7, lr
        GPIOx->OSPEEDR = temp;
 8002aca:	6087      	str	r7, [r0, #8]
        temp = GPIOx->OTYPER;
 8002acc:	6847      	ldr	r7, [r0, #4]
        temp &= ~(GPIO_OTYPER_OT_0 << position) ;
 8002ace:	ea27 0e08 	bic.w	lr, r7, r8
        temp |= (((GPIO_Init->Mode & OUTPUT_TYPE) >> OUTPUT_TYPE_Pos) << position);
 8002ad2:	f3c1 1700 	ubfx	r7, r1, #4, #1
 8002ad6:	409f      	lsls	r7, r3
 8002ad8:	ea47 070e 	orr.w	r7, r7, lr
        GPIOx->OTYPER = temp;
 8002adc:	6047      	str	r7, [r0, #4]
        temp = GPIOx->PUPDR;
 8002ade:	68c7      	ldr	r7, [r0, #12]
        temp &= ~(GPIO_PUPDR_PUPDR0 << (position * 2U));
 8002ae0:	ea07 0e05 	and.w	lr, r7, r5
        temp |= ((GPIO_Init->Pull) << (position * 2U));
 8002ae4:	f8d9 7008 	ldr.w	r7, [r9, #8]
 8002ae8:	fa07 f70c 	lsl.w	r7, r7, ip
 8002aec:	ea47 070e 	orr.w	r7, r7, lr
      if((GPIO_Init->Mode & GPIO_MODE) == MODE_AF)
 8002af0:	2a02      	cmp	r2, #2
        GPIOx->PUPDR = temp;
 8002af2:	60c7      	str	r7, [r0, #12]
      if((GPIO_Init->Mode & GPIO_MODE) == MODE_AF)
 8002af4:	f47f af72 	bne.w	80029dc <HAL_GPIO_Init+0x4c>
        temp = GPIOx->AFR[position >> 3U];
 8002af8:	08df      	lsrs	r7, r3, #3
 8002afa:	eb00 0787 	add.w	r7, r0, r7, lsl #2
 8002afe:	9701      	str	r7, [sp, #4]
 8002b00:	6a3e      	ldr	r6, [r7, #32]
        temp |= ((uint32_t)(GPIO_Init->Alternate) << (((uint32_t)position & 0x07U) * 4U));
 8002b02:	f8d9 7010 	ldr.w	r7, [r9, #16]
        temp = GPIOx->AFR[position >> 3U];
 8002b06:	9600      	str	r6, [sp, #0]
        temp &= ~(0xFU << ((uint32_t)(position & 0x07U) * 4U)) ;
 8002b08:	f003 0e07 	and.w	lr, r3, #7
 8002b0c:	ea4f 0e8e 	mov.w	lr, lr, lsl #2
 8002b10:	260f      	movs	r6, #15
        temp |= ((uint32_t)(GPIO_Init->Alternate) << (((uint32_t)position & 0x07U) * 4U));
 8002b12:	fa07 f70e 	lsl.w	r7, r7, lr
        temp &= ~(0xFU << ((uint32_t)(position & 0x07U) * 4U)) ;
 8002b16:	fa06 fe0e 	lsl.w	lr, r6, lr
 8002b1a:	9e00      	ldr	r6, [sp, #0]
 8002b1c:	ea26 0e0e 	bic.w	lr, r6, lr
        GPIOx->AFR[position >> 3U] = temp;
 8002b20:	9e01      	ldr	r6, [sp, #4]
        temp |= ((uint32_t)(GPIO_Init->Alternate) << (((uint32_t)position & 0x07U) * 4U));
 8002b22:	ea47 070e 	orr.w	r7, r7, lr
        GPIOx->AFR[position >> 3U] = temp;
 8002b26:	6237      	str	r7, [r6, #32]
 8002b28:	e758      	b.n	80029dc <HAL_GPIO_Init+0x4c>
        temp = GPIOx->PUPDR;
 8002b2a:	68c7      	ldr	r7, [r0, #12]
        temp &= ~(GPIO_PUPDR_PUPDR0 << (position * 2U));
 8002b2c:	ea07 0e05 	and.w	lr, r7, r5
        temp |= ((GPIO_Init->Pull) << (position * 2U));
 8002b30:	f8d9 7008 	ldr.w	r7, [r9, #8]
 8002b34:	fa07 f70c 	lsl.w	r7, r7, ip
 8002b38:	ea47 070e 	orr.w	r7, r7, lr
        GPIOx->PUPDR = temp;
 8002b3c:	60c7      	str	r7, [r0, #12]
      if((GPIO_Init->Mode & GPIO_MODE) == MODE_AF)
 8002b3e:	e74d      	b.n	80029dc <HAL_GPIO_Init+0x4c>
        temp |= ((uint32_t)(GPIO_GET_INDEX(GPIOx)) << (4U * (position & 0x03U)));
 8002b40:	f04f 0c01 	mov.w	ip, #1
 8002b44:	fa0c f707 	lsl.w	r7, ip, r7
 8002b48:	433d      	orrs	r5, r7
 8002b4a:	e789      	b.n	8002a60 <HAL_GPIO_Init+0xd0>
 8002b4c:	f04f 0c02 	mov.w	ip, #2
 8002b50:	fa0c f707 	lsl.w	r7, ip, r7
 8002b54:	433d      	orrs	r5, r7
 8002b56:	e783      	b.n	8002a60 <HAL_GPIO_Init+0xd0>
 8002b58:	f04f 0c03 	mov.w	ip, #3
 8002b5c:	fa0c f707 	lsl.w	r7, ip, r7
 8002b60:	433d      	orrs	r5, r7
 8002b62:	e77d      	b.n	8002a60 <HAL_GPIO_Init+0xd0>
 8002b64:	40020000 	.word	0x40020000
 8002b68:	40020800 	.word	0x40020800
 8002b6c:	40013c00 	.word	0x40013c00
 8002b70:	40023800 	.word	0x40023800
 8002b74:	40020c00 	.word	0x40020c00
 8002b78:	40021000 	.word	0x40021000

08002b7c <HAL_GPIO_WritePin>:
{
  /* Check the parameters */
  assert_param(IS_GPIO_PIN(GPIO_Pin));
  assert_param(IS_GPIO_PIN_ACTION(PinState));

  if(PinState != GPIO_PIN_RESET)
 8002b7c:	b902      	cbnz	r2, 8002b80 <HAL_GPIO_WritePin+0x4>
  {
    GPIOx->BSRR = GPIO_Pin;
  }
  else
  {
    GPIOx->BSRR = (uint32_t)GPIO_Pin << 16U;
 8002b7e:	0409      	lsls	r1, r1, #16
 8002b80:	6181      	str	r1, [r0, #24]
  }
}
 8002b82:	4770      	bx	lr

08002b84 <I2C_WaitOnMasterAddressFlagUntilTimeout.constprop.0>:
  * @param  Flag specifies the I2C flag to check.
  * @param  Timeout Timeout duration
  * @param  Tickstart Tick start value
  * @retval HAL status
  */
static HAL_StatusTypeDef I2C_WaitOnMasterAddressFlagUntilTimeout(I2C_HandleTypeDef *hi2c, uint32_t Flag, uint32_t Timeout, uint32_t Tickstart)
 8002b84:	b570      	push	{r4, r5, r6, lr}
{
  while (__HAL_I2C_GET_FLAG(hi2c, Flag) == RESET)
 8002b86:	6803      	ldr	r3, [r0, #0]
static HAL_StatusTypeDef I2C_WaitOnMasterAddressFlagUntilTimeout(I2C_HandleTypeDef *hi2c, uint32_t Flag, uint32_t Timeout, uint32_t Tickstart)
 8002b88:	4604      	mov	r4, r0
 8002b8a:	1c48      	adds	r0, r1, #1
 8002b8c:	d003      	beq.n	8002b96 <I2C_WaitOnMasterAddressFlagUntilTimeout.constprop.0+0x12>
 8002b8e:	e01e      	b.n	8002bce <I2C_WaitOnMasterAddressFlagUntilTimeout.constprop.0+0x4a>
  {
    if (__HAL_I2C_GET_FLAG(hi2c, I2C_FLAG_AF) == SET)
 8002b90:	695a      	ldr	r2, [r3, #20]
 8002b92:	0551      	lsls	r1, r2, #21
 8002b94:	d404      	bmi.n	8002ba0 <I2C_WaitOnMasterAddressFlagUntilTimeout.constprop.0+0x1c>
  while (__HAL_I2C_GET_FLAG(hi2c, Flag) == RESET)
 8002b96:	695a      	ldr	r2, [r3, #20]
 8002b98:	0790      	lsls	r0, r2, #30
 8002b9a:	d5f9      	bpl.n	8002b90 <I2C_WaitOnMasterAddressFlagUntilTimeout.constprop.0+0xc>
          return HAL_ERROR;
        }
      }
    }
  }
  return HAL_OK;
 8002b9c:	2000      	movs	r0, #0
}
 8002b9e:	bd70      	pop	{r4, r5, r6, pc}
      SET_BIT(hi2c->Instance->CR1, I2C_CR1_STOP);
 8002ba0:	681a      	ldr	r2, [r3, #0]
 8002ba2:	f442 7200 	orr.w	r2, r2, #512	@ 0x200
 8002ba6:	601a      	str	r2, [r3, #0]
      hi2c->PreviousState       = I2C_STATE_NONE;
 8002ba8:	2100      	movs	r1, #0
      __HAL_I2C_CLEAR_FLAG(hi2c, I2C_FLAG_AF);
 8002baa:	f46f 6080 	mvn.w	r0, #1024	@ 0x400
      hi2c->State               = HAL_I2C_STATE_READY;
 8002bae:	2220      	movs	r2, #32
      __HAL_I2C_CLEAR_FLAG(hi2c, I2C_FLAG_AF);
 8002bb0:	6158      	str	r0, [r3, #20]
      hi2c->PreviousState       = I2C_STATE_NONE;
 8002bb2:	6321      	str	r1, [r4, #48]	@ 0x30
      hi2c->State               = HAL_I2C_STATE_READY;
 8002bb4:	f884 203d 	strb.w	r2, [r4, #61]	@ 0x3d
      hi2c->Mode                = HAL_I2C_MODE_NONE;
 8002bb8:	f884 103e 	strb.w	r1, [r4, #62]	@ 0x3e
      hi2c->ErrorCode           |= HAL_I2C_ERROR_AF;
 8002bbc:	6c23      	ldr	r3, [r4, #64]	@ 0x40
 8002bbe:	f043 0304 	orr.w	r3, r3, #4
 8002bc2:	6423      	str	r3, [r4, #64]	@ 0x40
          __HAL_UNLOCK(hi2c);
 8002bc4:	2300      	movs	r3, #0
 8002bc6:	f884 303c 	strb.w	r3, [r4, #60]	@ 0x3c
      return HAL_ERROR;
 8002bca:	2001      	movs	r0, #1
}
 8002bcc:	bd70      	pop	{r4, r5, r6, pc}
 8002bce:	460d      	mov	r5, r1
 8002bd0:	4616      	mov	r6, r2
  while (__HAL_I2C_GET_FLAG(hi2c, Flag) == RESET)
 8002bd2:	695a      	ldr	r2, [r3, #20]
 8002bd4:	0792      	lsls	r2, r2, #30
 8002bd6:	d4e1      	bmi.n	8002b9c <I2C_WaitOnMasterAddressFlagUntilTimeout.constprop.0+0x18>
    if (__HAL_I2C_GET_FLAG(hi2c, I2C_FLAG_AF) == SET)
 8002bd8:	695a      	ldr	r2, [r3, #20]
 8002bda:	0551      	lsls	r1, r2, #21
 8002bdc:	d4e0      	bmi.n	8002ba0 <I2C_WaitOnMasterAddressFlagUntilTimeout.constprop.0+0x1c>
      if (((HAL_GetTick() - Tickstart) > Timeout) || (Timeout == 0U))
 8002bde:	f7ff fa01 	bl	8001fe4 <HAL_GetTick>
 8002be2:	1b80      	subs	r0, r0, r6
 8002be4:	4285      	cmp	r5, r0
        if ((__HAL_I2C_GET_FLAG(hi2c, Flag) == RESET))
 8002be6:	6823      	ldr	r3, [r4, #0]
      if (((HAL_GetTick() - Tickstart) > Timeout) || (Timeout == 0U))
 8002be8:	d301      	bcc.n	8002bee <I2C_WaitOnMasterAddressFlagUntilTimeout.constprop.0+0x6a>
 8002bea:	2d00      	cmp	r5, #0
 8002bec:	d1f1      	bne.n	8002bd2 <I2C_WaitOnMasterAddressFlagUntilTimeout.constprop.0+0x4e>
        if ((__HAL_I2C_GET_FLAG(hi2c, Flag) == RESET))
 8002bee:	695a      	ldr	r2, [r3, #20]
 8002bf0:	0792      	lsls	r2, r2, #30
 8002bf2:	d4ee      	bmi.n	8002bd2 <I2C_WaitOnMasterAddressFlagUntilTimeout.constprop.0+0x4e>
          hi2c->PreviousState       = I2C_STATE_NONE;
 8002bf4:	2300      	movs	r3, #0
          hi2c->State               = HAL_I2C_STATE_READY;
 8002bf6:	2220      	movs	r2, #32
          hi2c->PreviousState       = I2C_STATE_NONE;
 8002bf8:	6323      	str	r3, [r4, #48]	@ 0x30
          hi2c->State               = HAL_I2C_STATE_READY;
 8002bfa:	f884 203d 	strb.w	r2, [r4, #61]	@ 0x3d
          hi2c->Mode                = HAL_I2C_MODE_NONE;
 8002bfe:	f884 303e 	strb.w	r3, [r4, #62]	@ 0x3e
          hi2c->ErrorCode           |= HAL_I2C_ERROR_TIMEOUT;
 8002c02:	6c23      	ldr	r3, [r4, #64]	@ 0x40
 8002c04:	4313      	orrs	r3, r2
 8002c06:	6423      	str	r3, [r4, #64]	@ 0x40
          return HAL_ERROR;
 8002c08:	e7dc      	b.n	8002bc4 <I2C_WaitOnMasterAddressFlagUntilTimeout.constprop.0+0x40>
 8002c0a:	bf00      	nop

08002c0c <I2C_WaitOnMasterAddressFlagUntilTimeout.constprop.1>:
static HAL_StatusTypeDef I2C_WaitOnMasterAddressFlagUntilTimeout(I2C_HandleTypeDef *hi2c, uint32_t Flag, uint32_t Timeout, uint32_t Tickstart)
 8002c0c:	b570      	push	{r4, r5, r6, lr}
  while (__HAL_I2C_GET_FLAG(hi2c, Flag) == RESET)
 8002c0e:	6803      	ldr	r3, [r0, #0]
static HAL_StatusTypeDef I2C_WaitOnMasterAddressFlagUntilTimeout(I2C_HandleTypeDef *hi2c, uint32_t Flag, uint32_t Timeout, uint32_t Tickstart)
 8002c10:	4604      	mov	r4, r0
 8002c12:	1c48      	adds	r0, r1, #1
 8002c14:	d003      	beq.n	8002c1e <I2C_WaitOnMasterAddressFlagUntilTimeout.constprop.1+0x12>
 8002c16:	e01e      	b.n	8002c56 <I2C_WaitOnMasterAddressFlagUntilTimeout.constprop.1+0x4a>
    if (__HAL_I2C_GET_FLAG(hi2c, I2C_FLAG_AF) == SET)
 8002c18:	695a      	ldr	r2, [r3, #20]
 8002c1a:	0551      	lsls	r1, r2, #21
 8002c1c:	d404      	bmi.n	8002c28 <I2C_WaitOnMasterAddressFlagUntilTimeout.constprop.1+0x1c>
  while (__HAL_I2C_GET_FLAG(hi2c, Flag) == RESET)
 8002c1e:	695a      	ldr	r2, [r3, #20]
 8002c20:	0710      	lsls	r0, r2, #28
 8002c22:	d5f9      	bpl.n	8002c18 <I2C_WaitOnMasterAddressFlagUntilTimeout.constprop.1+0xc>
  return HAL_OK;
 8002c24:	2000      	movs	r0, #0
}
 8002c26:	bd70      	pop	{r4, r5, r6, pc}
      SET_BIT(hi2c->Instance->CR1, I2C_CR1_STOP);
 8002c28:	681a      	ldr	r2, [r3, #0]
 8002c2a:	f442 7200 	orr.w	r2, r2, #512	@ 0x200
 8002c2e:	601a      	str	r2, [r3, #0]
      hi2c->PreviousState       = I2C_STATE_NONE;
 8002c30:	2100      	movs	r1, #0
      __HAL_I2C_CLEAR_FLAG(hi2c, I2C_FLAG_AF);
 8002c32:	f46f 6080 	mvn.w	r0, #1024	@ 0x400
      hi2c->State               = HAL_I2C_STATE_READY;
 8002c36:	2220      	movs	r2, #32
      __HAL_I2C_CLEAR_FLAG(hi2c, I2C_FLAG_AF);
 8002c38:	6158      	str	r0, [r3, #20]
      hi2c->PreviousState       = I2C_STATE_NONE;
 8002c3a:	6321      	str	r1, [r4, #48]	@ 0x30
      hi2c->State               = HAL_I2C_STATE_READY;
 8002c3c:	f884 203d 	strb.w	r2, [r4, #61]	@ 0x3d
      hi2c->Mode                = HAL_I2C_MODE_NONE;
 8002c40:	f884 103e 	strb.w	r1, [r4, #62]	@ 0x3e
      hi2c->ErrorCode           |= HAL_I2C_ERROR_AF;
 8002c44:	6c23      	ldr	r3, [r4, #64]	@ 0x40
 8002c46:	f043 0304 	orr.w	r3, r3, #4
 8002c4a:	6423      	str	r3, [r4, #64]	@ 0x40
          __HAL_UNLOCK(hi2c);
 8002c4c:	2300      	movs	r3, #0
 8002c4e:	f884 303c 	strb.w	r3, [r4, #60]	@ 0x3c
      return HAL_ERROR;
 8002c52:	2001      	movs	r0, #1
}
 8002c54:	bd70      	pop	{r4, r5, r6, pc}
 8002c56:	460d      	mov	r5, r1
 8002c58:	4616      	mov	r6, r2
  while (__HAL_I2C_GET_FLAG(hi2c, Flag) == RESET)
 8002c5a:	695a      	ldr	r2, [r3, #20]
 8002c5c:	0712      	lsls	r2, r2, #28
 8002c5e:	d4e1      	bmi.n	8002c24 <I2C_WaitOnMasterAddressFlagUntilTimeout.constprop.1+0x18>
    if (__HAL_I2C_GET_FLAG(hi2c, I2C_FLAG_AF) == SET)
 8002c60:	695a      	ldr	r2, [r3, #20]
 8002c62:	0551      	lsls	r1, r2, #21
 8002c64:	d4e0      	bmi.n	8002c28 <I2C_WaitOnMasterAddressFlagUntilTimeout.constprop.1+0x1c>
      if (((HAL_GetTick() - Tickstart) > Timeout) || (Timeout == 0U))
 8002c66:	f7ff f9bd 	bl	8001fe4 <HAL_GetTick>
 8002c6a:	1b80      	subs	r0, r0, r6
 8002c6c:	4285      	cmp	r5, r0
        if ((__HAL_I2C_GET_FLAG(hi2c, Flag) == RESET))
 8002c6e:	6823      	ldr	r3, [r4, #0]
      if (((HAL_GetTick() - Tickstart) > Timeout) || (Timeout == 0U))
 8002c70:	d301      	bcc.n	8002c76 <I2C_WaitOnMasterAddressFlagUntilTimeout.constprop.1+0x6a>
 8002c72:	2d00      	cmp	r5, #0
 8002c74:	d1f1      	bne.n	8002c5a <I2C_WaitOnMasterAddressFlagUntilTimeout.constprop.1+0x4e>
        if ((__HAL_I2C_GET_FLAG(hi2c, Flag) == RESET))
 8002c76:	695a      	ldr	r2, [r3, #20]
 8002c78:	0712      	lsls	r2, r2, #28
 8002c7a:	d4ee      	bmi.n	8002c5a <I2C_WaitOnMasterAddressFlagUntilTimeout.constprop.1+0x4e>
          hi2c->PreviousState       = I2C_STATE_NONE;
 8002c7c:	2300      	movs	r3, #0
          hi2c->State               = HAL_I2C_STATE_READY;
 8002c7e:	2220      	movs	r2, #32
          hi2c->PreviousState       = I2C_STATE_NONE;
 8002c80:	6323      	str	r3, [r4, #48]	@ 0x30
          hi2c->State               = HAL_I2C_STATE_READY;
 8002c82:	f884 203d 	strb.w	r2, [r4, #61]	@ 0x3d
          hi2c->Mode                = HAL_I2C_MODE_NONE;
 8002c86:	f884 303e 	strb.w	r3, [r4, #62]	@ 0x3e
          hi2c->ErrorCode           |= HAL_I2C_ERROR_TIMEOUT;
 8002c8a:	6c23      	ldr	r3, [r4, #64]	@ 0x40
 8002c8c:	4313      	orrs	r3, r2
 8002c8e:	6423      	str	r3, [r4, #64]	@ 0x40
          return HAL_ERROR;
 8002c90:	e7dc      	b.n	8002c4c <I2C_WaitOnMasterAddressFlagUntilTimeout.constprop.1+0x40>
 8002c92:	bf00      	nop

08002c94 <HAL_I2C_Init>:
  if (hi2c == NULL)
 8002c94:	2800      	cmp	r0, #0
 8002c96:	f000 80b8 	beq.w	8002e0a <HAL_I2C_Init+0x176>
{
 8002c9a:	b570      	push	{r4, r5, r6, lr}
  if (hi2c->State == HAL_I2C_STATE_RESET)
 8002c9c:	f890 303d 	ldrb.w	r3, [r0, #61]	@ 0x3d
 8002ca0:	4604      	mov	r4, r0
 8002ca2:	f003 02ff 	and.w	r2, r3, #255	@ 0xff
 8002ca6:	2b00      	cmp	r3, #0
 8002ca8:	f000 8098 	beq.w	8002ddc <HAL_I2C_Init+0x148>
  __HAL_I2C_DISABLE(hi2c);
 8002cac:	6823      	ldr	r3, [r4, #0]
  hi2c->State = HAL_I2C_STATE_BUSY;
 8002cae:	2224      	movs	r2, #36	@ 0x24
 8002cb0:	f884 203d 	strb.w	r2, [r4, #61]	@ 0x3d
  __HAL_I2C_DISABLE(hi2c);
 8002cb4:	681a      	ldr	r2, [r3, #0]
 8002cb6:	f022 0201 	bic.w	r2, r2, #1
 8002cba:	601a      	str	r2, [r3, #0]
  hi2c->Instance->CR1 |= I2C_CR1_SWRST;
 8002cbc:	681a      	ldr	r2, [r3, #0]
 8002cbe:	f442 4200 	orr.w	r2, r2, #32768	@ 0x8000
 8002cc2:	601a      	str	r2, [r3, #0]
  hi2c->Instance->CR1 &= ~I2C_CR1_SWRST;
 8002cc4:	681a      	ldr	r2, [r3, #0]
 8002cc6:	f422 4200 	bic.w	r2, r2, #32768	@ 0x8000
 8002cca:	601a      	str	r2, [r3, #0]
  pclk1 = HAL_RCC_GetPCLK1Freq();
 8002ccc:	f000 ff98 	bl	8003c00 <HAL_RCC_GetPCLK1Freq>
  if (I2C_MIN_PCLK_FREQ(pclk1, hi2c->Init.ClockSpeed) == 1U)
 8002cd0:	6865      	ldr	r5, [r4, #4]
 8002cd2:	4b4f      	ldr	r3, [pc, #316]	@ (8002e10 <HAL_I2C_Init+0x17c>)
 8002cd4:	429d      	cmp	r5, r3
 8002cd6:	d84f      	bhi.n	8002d78 <HAL_I2C_Init+0xe4>
 8002cd8:	4b4e      	ldr	r3, [pc, #312]	@ (8002e14 <HAL_I2C_Init+0x180>)
 8002cda:	4298      	cmp	r0, r3
 8002cdc:	d97c      	bls.n	8002dd8 <HAL_I2C_Init+0x144>
  freqrange = I2C_FREQRANGE(pclk1);
 8002cde:	4b4e      	ldr	r3, [pc, #312]	@ (8002e18 <HAL_I2C_Init+0x184>)
  MODIFY_REG(hi2c->Instance->CCR, (I2C_CCR_FS | I2C_CCR_DUTY | I2C_CCR_CCR), I2C_SPEED(pclk1, hi2c->Init.ClockSpeed, hi2c->Init.DutyCycle));
 8002ce0:	006a      	lsls	r2, r5, #1
  freqrange = I2C_FREQRANGE(pclk1);
 8002ce2:	fba3 3500 	umull	r3, r5, r3, r0
  MODIFY_REG(hi2c->Instance->CCR, (I2C_CCR_FS | I2C_CCR_DUTY | I2C_CCR_CCR), I2C_SPEED(pclk1, hi2c->Init.ClockSpeed, hi2c->Init.DutyCycle));
 8002ce6:	1e43      	subs	r3, r0, #1
 8002ce8:	fbb3 f3f2 	udiv	r3, r3, r2
  MODIFY_REG(hi2c->Instance->CR2, I2C_CR2_FREQ, freqrange);
 8002cec:	6822      	ldr	r2, [r4, #0]
 8002cee:	6851      	ldr	r1, [r2, #4]
 8002cf0:	f021 013f 	bic.w	r1, r1, #63	@ 0x3f
 8002cf4:	ea41 4195 	orr.w	r1, r1, r5, lsr #18
 8002cf8:	6051      	str	r1, [r2, #4]
  MODIFY_REG(hi2c->Instance->TRISE, I2C_TRISE_TRISE, I2C_RISE_TIME(freqrange, hi2c->Init.ClockSpeed));
 8002cfa:	6a11      	ldr	r1, [r2, #32]
  freqrange = I2C_FREQRANGE(pclk1);
 8002cfc:	ea4f 4c95 	mov.w	ip, r5, lsr #18
  MODIFY_REG(hi2c->Instance->TRISE, I2C_TRISE_TRISE, I2C_RISE_TIME(freqrange, hi2c->Init.ClockSpeed));
 8002d00:	f10c 0c01 	add.w	ip, ip, #1
 8002d04:	f021 013f 	bic.w	r1, r1, #63	@ 0x3f
 8002d08:	ea41 010c 	orr.w	r1, r1, ip
 8002d0c:	6211      	str	r1, [r2, #32]
  MODIFY_REG(hi2c->Instance->CCR, (I2C_CCR_FS | I2C_CCR_DUTY | I2C_CCR_CCR), I2C_SPEED(pclk1, hi2c->Init.ClockSpeed, hi2c->Init.DutyCycle));
 8002d0e:	69d1      	ldr	r1, [r2, #28]
 8002d10:	f640 70fc 	movw	r0, #4092	@ 0xffc
 8002d14:	3301      	adds	r3, #1
 8002d16:	f421 414f 	bic.w	r1, r1, #52992	@ 0xcf00
 8002d1a:	4203      	tst	r3, r0
 8002d1c:	f021 01ff 	bic.w	r1, r1, #255	@ 0xff
 8002d20:	d161      	bne.n	8002de6 <HAL_I2C_Init+0x152>
 8002d22:	2304      	movs	r3, #4
 8002d24:	430b      	orrs	r3, r1
 8002d26:	61d3      	str	r3, [r2, #28]
  MODIFY_REG(hi2c->Instance->CR1, (I2C_CR1_ENGC | I2C_CR1_NOSTRETCH), (hi2c->Init.GeneralCallMode | hi2c->Init.NoStretchMode));
 8002d28:	e9d4 3007 	ldrd	r3, r0, [r4, #28]
 8002d2c:	6811      	ldr	r1, [r2, #0]
 8002d2e:	4303      	orrs	r3, r0
 8002d30:	f021 01c0 	bic.w	r1, r1, #192	@ 0xc0
 8002d34:	430b      	orrs	r3, r1
 8002d36:	6013      	str	r3, [r2, #0]
  MODIFY_REG(hi2c->Instance->OAR1, (I2C_OAR1_ADDMODE | I2C_OAR1_ADD8_9 | I2C_OAR1_ADD1_7 | I2C_OAR1_ADD0), (hi2c->Init.AddressingMode | hi2c->Init.OwnAddress1));
 8002d38:	6891      	ldr	r1, [r2, #8]
 8002d3a:	e9d4 0303 	ldrd	r0, r3, [r4, #12]
 8002d3e:	f421 4103 	bic.w	r1, r1, #33536	@ 0x8300
 8002d42:	4303      	orrs	r3, r0
 8002d44:	f021 01ff 	bic.w	r1, r1, #255	@ 0xff
 8002d48:	430b      	orrs	r3, r1
 8002d4a:	6093      	str	r3, [r2, #8]
  MODIFY_REG(hi2c->Instance->OAR2, (I2C_OAR2_ENDUAL | I2C_OAR2_ADD2), (hi2c->Init.DualAddressMode | hi2c->Init.OwnAddress2));
 8002d4c:	e9d4 3005 	ldrd	r3, r0, [r4, #20]
 8002d50:	68d1      	ldr	r1, [r2, #12]
 8002d52:	4303      	orrs	r3, r0
 8002d54:	f021 01ff 	bic.w	r1, r1, #255	@ 0xff
 8002d58:	430b      	orrs	r3, r1
 8002d5a:	60d3      	str	r3, [r2, #12]
  __HAL_I2C_ENABLE(hi2c);
 8002d5c:	6811      	ldr	r1, [r2, #0]
  hi2c->ErrorCode = HAL_I2C_ERROR_NONE;
 8002d5e:	2300      	movs	r3, #0
  __HAL_I2C_ENABLE(hi2c);
 8002d60:	f041 0101 	orr.w	r1, r1, #1
  hi2c->State = HAL_I2C_STATE_READY;
 8002d64:	2020      	movs	r0, #32
  __HAL_I2C_ENABLE(hi2c);
 8002d66:	6011      	str	r1, [r2, #0]
  hi2c->ErrorCode = HAL_I2C_ERROR_NONE;
 8002d68:	6423      	str	r3, [r4, #64]	@ 0x40
  hi2c->State = HAL_I2C_STATE_READY;
 8002d6a:	f884 003d 	strb.w	r0, [r4, #61]	@ 0x3d
  hi2c->PreviousState = I2C_STATE_NONE;
 8002d6e:	6323      	str	r3, [r4, #48]	@ 0x30
  hi2c->Mode = HAL_I2C_MODE_NONE;
 8002d70:	f884 303e 	strb.w	r3, [r4, #62]	@ 0x3e
  return HAL_OK;
 8002d74:	4618      	mov	r0, r3
}
 8002d76:	bd70      	pop	{r4, r5, r6, pc}
  if (I2C_MIN_PCLK_FREQ(pclk1, hi2c->Init.ClockSpeed) == 1U)
 8002d78:	4b28      	ldr	r3, [pc, #160]	@ (8002e1c <HAL_I2C_Init+0x188>)
 8002d7a:	4298      	cmp	r0, r3
 8002d7c:	d92c      	bls.n	8002dd8 <HAL_I2C_Init+0x144>
  MODIFY_REG(hi2c->Instance->CR2, I2C_CR2_FREQ, freqrange);
 8002d7e:	6822      	ldr	r2, [r4, #0]
  freqrange = I2C_FREQRANGE(pclk1);
 8002d80:	4b25      	ldr	r3, [pc, #148]	@ (8002e18 <HAL_I2C_Init+0x184>)
  MODIFY_REG(hi2c->Instance->TRISE, I2C_TRISE_TRISE, I2C_RISE_TIME(freqrange, hi2c->Init.ClockSpeed));
 8002d82:	4e27      	ldr	r6, [pc, #156]	@ (8002e20 <HAL_I2C_Init+0x18c>)
  freqrange = I2C_FREQRANGE(pclk1);
 8002d84:	fba3 3c00 	umull	r3, ip, r3, r0
  MODIFY_REG(hi2c->Instance->CCR, (I2C_CCR_FS | I2C_CCR_DUTY | I2C_CCR_CCR), I2C_SPEED(pclk1, hi2c->Init.ClockSpeed, hi2c->Init.DutyCycle));
 8002d88:	1e43      	subs	r3, r0, #1
  MODIFY_REG(hi2c->Instance->CR2, I2C_CR2_FREQ, freqrange);
 8002d8a:	6850      	ldr	r0, [r2, #4]
 8002d8c:	f020 003f 	bic.w	r0, r0, #63	@ 0x3f
 8002d90:	ea40 409c 	orr.w	r0, r0, ip, lsr #18
 8002d94:	6050      	str	r0, [r2, #4]
  freqrange = I2C_FREQRANGE(pclk1);
 8002d96:	ea4f 419c 	mov.w	r1, ip, lsr #18
  MODIFY_REG(hi2c->Instance->TRISE, I2C_TRISE_TRISE, I2C_RISE_TIME(freqrange, hi2c->Init.ClockSpeed));
 8002d9a:	f44f 7096 	mov.w	r0, #300	@ 0x12c
 8002d9e:	fb00 f101 	mul.w	r1, r0, r1
 8002da2:	fba6 6101 	umull	r6, r1, r6, r1
 8002da6:	6a10      	ldr	r0, [r2, #32]
 8002da8:	0989      	lsrs	r1, r1, #6
 8002daa:	f020 003f 	bic.w	r0, r0, #63	@ 0x3f
 8002dae:	3101      	adds	r1, #1
 8002db0:	4301      	orrs	r1, r0
 8002db2:	6211      	str	r1, [r2, #32]
  MODIFY_REG(hi2c->Instance->CCR, (I2C_CCR_FS | I2C_CCR_DUTY | I2C_CCR_CCR), I2C_SPEED(pclk1, hi2c->Init.ClockSpeed, hi2c->Init.DutyCycle));
 8002db4:	69d1      	ldr	r1, [r2, #28]
 8002db6:	68a0      	ldr	r0, [r4, #8]
 8002db8:	f421 414f 	bic.w	r1, r1, #52992	@ 0xcf00
 8002dbc:	f021 01ff 	bic.w	r1, r1, #255	@ 0xff
 8002dc0:	b9a0      	cbnz	r0, 8002dec <HAL_I2C_Init+0x158>
 8002dc2:	eb05 0545 	add.w	r5, r5, r5, lsl #1
 8002dc6:	fbb3 f3f5 	udiv	r3, r3, r5
 8002dca:	3301      	adds	r3, #1
 8002dcc:	f3c3 030b 	ubfx	r3, r3, #0, #12
 8002dd0:	b1cb      	cbz	r3, 8002e06 <HAL_I2C_Init+0x172>
 8002dd2:	f443 4300 	orr.w	r3, r3, #32768	@ 0x8000
 8002dd6:	e7a5      	b.n	8002d24 <HAL_I2C_Init+0x90>
    return HAL_ERROR;
 8002dd8:	2001      	movs	r0, #1
}
 8002dda:	bd70      	pop	{r4, r5, r6, pc}
    hi2c->Lock = HAL_UNLOCKED;
 8002ddc:	f880 203c 	strb.w	r2, [r0, #60]	@ 0x3c
    HAL_I2C_MspInit(hi2c);
 8002de0:	f7fe ff26 	bl	8001c30 <HAL_I2C_MspInit>
 8002de4:	e762      	b.n	8002cac <HAL_I2C_Init+0x18>
  MODIFY_REG(hi2c->Instance->CCR, (I2C_CCR_FS | I2C_CCR_DUTY | I2C_CCR_CCR), I2C_SPEED(pclk1, hi2c->Init.ClockSpeed, hi2c->Init.DutyCycle));
 8002de6:	f3c3 030b 	ubfx	r3, r3, #0, #12
 8002dea:	e79b      	b.n	8002d24 <HAL_I2C_Init+0x90>
 8002dec:	eb05 0585 	add.w	r5, r5, r5, lsl #2
 8002df0:	eb05 0585 	add.w	r5, r5, r5, lsl #2
 8002df4:	fbb3 f3f5 	udiv	r3, r3, r5
 8002df8:	3301      	adds	r3, #1
 8002dfa:	f3c3 030b 	ubfx	r3, r3, #0, #12
 8002dfe:	b113      	cbz	r3, 8002e06 <HAL_I2C_Init+0x172>
 8002e00:	f443 4340 	orr.w	r3, r3, #49152	@ 0xc000
 8002e04:	e78e      	b.n	8002d24 <HAL_I2C_Init+0x90>
 8002e06:	2301      	movs	r3, #1
 8002e08:	e78c      	b.n	8002d24 <HAL_I2C_Init+0x90>
    return HAL_ERROR;
 8002e0a:	2001      	movs	r0, #1
}
 8002e0c:	4770      	bx	lr
 8002e0e:	bf00      	nop
 8002e10:	000186a0 	.word	0x000186a0
 8002e14:	001e847f 	.word	0x001e847f
 8002e18:	431bde83 	.word	0x431bde83
 8002e1c:	003d08ff 	.word	0x003d08ff
 8002e20:	10624dd3 	.word	0x10624dd3

08002e24 <HAL_I2C_Master_Transmit>:
{
 8002e24:	e92d 47f0 	stmdb	sp!, {r4, r5, r6, r7, r8, r9, sl, lr}
 8002e28:	4604      	mov	r4, r0
 8002e2a:	b082      	sub	sp, #8
 8002e2c:	4699      	mov	r9, r3
 8002e2e:	9f0a      	ldr	r7, [sp, #40]	@ 0x28
 8002e30:	4688      	mov	r8, r1
 8002e32:	4692      	mov	sl, r2
  uint32_t tickstart = HAL_GetTick();
 8002e34:	f7ff f8d6 	bl	8001fe4 <HAL_GetTick>
  if (hi2c->State == HAL_I2C_STATE_READY)
 8002e38:	f894 303d 	ldrb.w	r3, [r4, #61]	@ 0x3d
 8002e3c:	2b20      	cmp	r3, #32
 8002e3e:	d004      	beq.n	8002e4a <HAL_I2C_Master_Transmit+0x26>
      return HAL_BUSY;
 8002e40:	2502      	movs	r5, #2
}
 8002e42:	4628      	mov	r0, r5
 8002e44:	b002      	add	sp, #8
 8002e46:	e8bd 87f0 	ldmia.w	sp!, {r4, r5, r6, r7, r8, r9, sl, pc}
  while (__HAL_I2C_GET_FLAG(hi2c, Flag) == Status)
 8002e4a:	6825      	ldr	r5, [r4, #0]
 8002e4c:	4606      	mov	r6, r0
 8002e4e:	69ab      	ldr	r3, [r5, #24]
 8002e50:	0798      	lsls	r0, r3, #30
 8002e52:	d517      	bpl.n	8002e84 <HAL_I2C_Master_Transmit+0x60>
      if (((HAL_GetTick() - Tickstart) > Timeout) || (Timeout == 0U))
 8002e54:	f7ff f8c6 	bl	8001fe4 <HAL_GetTick>
 8002e58:	1b80      	subs	r0, r0, r6
 8002e5a:	2819      	cmp	r0, #25
        if ((__HAL_I2C_GET_FLAG(hi2c, Flag) == Status))
 8002e5c:	6825      	ldr	r5, [r4, #0]
      if (((HAL_GetTick() - Tickstart) > Timeout) || (Timeout == 0U))
 8002e5e:	d9f6      	bls.n	8002e4e <HAL_I2C_Master_Transmit+0x2a>
        if ((__HAL_I2C_GET_FLAG(hi2c, Flag) == Status))
 8002e60:	69ab      	ldr	r3, [r5, #24]
 8002e62:	43db      	mvns	r3, r3
 8002e64:	f013 0302 	ands.w	r3, r3, #2
 8002e68:	d1f1      	bne.n	8002e4e <HAL_I2C_Master_Transmit+0x2a>
          hi2c->State             = HAL_I2C_STATE_READY;
 8002e6a:	2220      	movs	r2, #32
          hi2c->PreviousState     = I2C_STATE_NONE;
 8002e6c:	6323      	str	r3, [r4, #48]	@ 0x30
          hi2c->State             = HAL_I2C_STATE_READY;
 8002e6e:	f884 203d 	strb.w	r2, [r4, #61]	@ 0x3d
          hi2c->Mode              = HAL_I2C_MODE_NONE;
 8002e72:	f884 303e 	strb.w	r3, [r4, #62]	@ 0x3e
          hi2c->ErrorCode         |= HAL_I2C_ERROR_TIMEOUT;
 8002e76:	6c22      	ldr	r2, [r4, #64]	@ 0x40
          __HAL_UNLOCK(hi2c);
 8002e78:	f884 303c 	strb.w	r3, [r4, #60]	@ 0x3c
          hi2c->ErrorCode         |= HAL_I2C_ERROR_TIMEOUT;
 8002e7c:	f042 0220 	orr.w	r2, r2, #32
 8002e80:	6422      	str	r2, [r4, #64]	@ 0x40
          return HAL_ERROR;
 8002e82:	e7dd      	b.n	8002e40 <HAL_I2C_Master_Transmit+0x1c>
    __HAL_LOCK(hi2c);
 8002e84:	f894 303c 	ldrb.w	r3, [r4, #60]	@ 0x3c
 8002e88:	2b01      	cmp	r3, #1
 8002e8a:	d0d9      	beq.n	8002e40 <HAL_I2C_Master_Transmit+0x1c>
 8002e8c:	2301      	movs	r3, #1
 8002e8e:	f884 303c 	strb.w	r3, [r4, #60]	@ 0x3c
    if ((hi2c->Instance->CR1 & I2C_CR1_PE) != I2C_CR1_PE)
 8002e92:	682b      	ldr	r3, [r5, #0]
 8002e94:	07d9      	lsls	r1, r3, #31
 8002e96:	d576      	bpl.n	8002f86 <HAL_I2C_Master_Transmit+0x162>
    CLEAR_BIT(hi2c->Instance->CR1, I2C_CR1_POS);
 8002e98:	682b      	ldr	r3, [r5, #0]
    hi2c->XferOptions = I2C_NO_OPTION_FRAME;
 8002e9a:	4a87      	ldr	r2, [pc, #540]	@ (80030b8 <HAL_I2C_Master_Transmit+0x294>)
    CLEAR_BIT(hi2c->Instance->CR1, I2C_CR1_POS);
 8002e9c:	f423 6300 	bic.w	r3, r3, #2048	@ 0x800
 8002ea0:	602b      	str	r3, [r5, #0]
    hi2c->State       = HAL_I2C_STATE_BUSY_TX;
 8002ea2:	2321      	movs	r3, #33	@ 0x21
 8002ea4:	f884 303d 	strb.w	r3, [r4, #61]	@ 0x3d
    hi2c->Mode        = HAL_I2C_MODE_MASTER;
 8002ea8:	2310      	movs	r3, #16
 8002eaa:	f884 303e 	strb.w	r3, [r4, #62]	@ 0x3e
    hi2c->ErrorCode   = HAL_I2C_ERROR_NONE;
 8002eae:	2300      	movs	r3, #0
 8002eb0:	6423      	str	r3, [r4, #64]	@ 0x40
    hi2c->XferCount   = Size;
 8002eb2:	f8a4 902a 	strh.w	r9, [r4, #42]	@ 0x2a
    hi2c->XferSize    = hi2c->XferCount;
 8002eb6:	8d63      	ldrh	r3, [r4, #42]	@ 0x2a
    hi2c->XferOptions = I2C_NO_OPTION_FRAME;
 8002eb8:	62e2      	str	r2, [r4, #44]	@ 0x2c
    hi2c->XferSize    = hi2c->XferCount;
 8002eba:	8523      	strh	r3, [r4, #40]	@ 0x28
  uint32_t CurrentXferOptions = hi2c->XferOptions;
 8002ebc:	6ae3      	ldr	r3, [r4, #44]	@ 0x2c
    hi2c->pBuffPtr    = pData;
 8002ebe:	f8c4 a024 	str.w	sl, [r4, #36]	@ 0x24
  if ((CurrentXferOptions == I2C_FIRST_AND_LAST_FRAME) || (CurrentXferOptions == I2C_FIRST_FRAME) || (CurrentXferOptions == I2C_NO_OPTION_FRAME))
 8002ec2:	2b08      	cmp	r3, #8
 8002ec4:	d006      	beq.n	8002ed4 <HAL_I2C_Master_Transmit+0xb0>
 8002ec6:	2b01      	cmp	r3, #1
 8002ec8:	d004      	beq.n	8002ed4 <HAL_I2C_Master_Transmit+0xb0>
 8002eca:	4293      	cmp	r3, r2
 8002ecc:	d002      	beq.n	8002ed4 <HAL_I2C_Master_Transmit+0xb0>
  else if (hi2c->PreviousState == I2C_STATE_MASTER_BUSY_RX)
 8002ece:	6b23      	ldr	r3, [r4, #48]	@ 0x30
 8002ed0:	2b12      	cmp	r3, #18
 8002ed2:	d103      	bne.n	8002edc <HAL_I2C_Master_Transmit+0xb8>
    SET_BIT(hi2c->Instance->CR1, I2C_CR1_START);
 8002ed4:	682b      	ldr	r3, [r5, #0]
 8002ed6:	f443 7380 	orr.w	r3, r3, #256	@ 0x100
 8002eda:	602b      	str	r3, [r5, #0]
 8002edc:	1c7a      	adds	r2, r7, #1
 8002ede:	d145      	bne.n	8002f6c <HAL_I2C_Master_Transmit+0x148>
  while (__HAL_I2C_GET_FLAG(hi2c, Flag) == Status)
 8002ee0:	696b      	ldr	r3, [r5, #20]
 8002ee2:	07d8      	lsls	r0, r3, #31
 8002ee4:	d5fc      	bpl.n	8002ee0 <HAL_I2C_Master_Transmit+0xbc>
  if (hi2c->Init.AddressingMode == I2C_ADDRESSINGMODE_7BIT)
 8002ee6:	6923      	ldr	r3, [r4, #16]
 8002ee8:	f5b3 4f80 	cmp.w	r3, #16384	@ 0x4000
 8002eec:	d150      	bne.n	8002f90 <HAL_I2C_Master_Transmit+0x16c>
    hi2c->Instance->DR = I2C_7BIT_ADD_WRITE(DevAddress);
 8002eee:	f008 03fe 	and.w	r3, r8, #254	@ 0xfe
 8002ef2:	612b      	str	r3, [r5, #16]
  if (I2C_WaitOnMasterAddressFlagUntilTimeout(hi2c, I2C_FLAG_ADDR, Timeout, Tickstart) != HAL_OK)
 8002ef4:	4632      	mov	r2, r6
 8002ef6:	4639      	mov	r1, r7
 8002ef8:	4620      	mov	r0, r4
 8002efa:	f7ff fe43 	bl	8002b84 <I2C_WaitOnMasterAddressFlagUntilTimeout.constprop.0>
 8002efe:	4605      	mov	r5, r0
 8002f00:	2800      	cmp	r0, #0
 8002f02:	d12a      	bne.n	8002f5a <HAL_I2C_Master_Transmit+0x136>
    __HAL_I2C_CLEAR_ADDRFLAG(hi2c);
 8002f04:	6823      	ldr	r3, [r4, #0]
 8002f06:	9001      	str	r0, [sp, #4]
 8002f08:	695a      	ldr	r2, [r3, #20]
 8002f0a:	9201      	str	r2, [sp, #4]
 8002f0c:	699a      	ldr	r2, [r3, #24]
    while (hi2c->XferSize > 0U)
 8002f0e:	8d20      	ldrh	r0, [r4, #40]	@ 0x28
    __HAL_I2C_CLEAR_ADDRFLAG(hi2c);
 8002f10:	9201      	str	r2, [sp, #4]
 8002f12:	9a01      	ldr	r2, [sp, #4]
    while (hi2c->XferSize > 0U)
 8002f14:	2800      	cmp	r0, #0
 8002f16:	f000 80a3 	beq.w	8003060 <HAL_I2C_Master_Transmit+0x23c>
 8002f1a:	1c7a      	adds	r2, r7, #1
 8002f1c:	d14e      	bne.n	8002fbc <HAL_I2C_Master_Transmit+0x198>
  * @param  Tickstart Tick start value
  * @retval HAL status
  */
static HAL_StatusTypeDef I2C_WaitOnTXEFlagUntilTimeout(I2C_HandleTypeDef *hi2c, uint32_t Timeout, uint32_t Tickstart)
{
  while (__HAL_I2C_GET_FLAG(hi2c, I2C_FLAG_TXE) == RESET)
 8002f1e:	695a      	ldr	r2, [r3, #20]
 8002f20:	0611      	lsls	r1, r2, #24
 8002f22:	d46f      	bmi.n	8003004 <HAL_I2C_Master_Transmit+0x1e0>
  *                the configuration information for the specified I2C.
  * @retval HAL status
  */
static HAL_StatusTypeDef I2C_IsAcknowledgeFailed(I2C_HandleTypeDef *hi2c)
{
  if (__HAL_I2C_GET_FLAG(hi2c, I2C_FLAG_AF) == SET)
 8002f24:	695a      	ldr	r2, [r3, #20]
 8002f26:	0552      	lsls	r2, r2, #21
 8002f28:	d5f9      	bpl.n	8002f1e <HAL_I2C_Master_Transmit+0xfa>
  {
    /* Clear NACKF Flag */
    __HAL_I2C_CLEAR_FLAG(hi2c, I2C_FLAG_AF);

    hi2c->PreviousState       = I2C_STATE_NONE;
 8002f2a:	2200      	movs	r2, #0
    __HAL_I2C_CLEAR_FLAG(hi2c, I2C_FLAG_AF);
 8002f2c:	f46f 6080 	mvn.w	r0, #1024	@ 0x400
    hi2c->State               = HAL_I2C_STATE_READY;
 8002f30:	2120      	movs	r1, #32
    __HAL_I2C_CLEAR_FLAG(hi2c, I2C_FLAG_AF);
 8002f32:	6158      	str	r0, [r3, #20]
    hi2c->PreviousState       = I2C_STATE_NONE;
 8002f34:	6322      	str	r2, [r4, #48]	@ 0x30
    hi2c->State               = HAL_I2C_STATE_READY;
 8002f36:	f884 103d 	strb.w	r1, [r4, #61]	@ 0x3d
    hi2c->Mode                = HAL_I2C_MODE_NONE;
 8002f3a:	f884 203e 	strb.w	r2, [r4, #62]	@ 0x3e
    hi2c->ErrorCode           |= HAL_I2C_ERROR_AF;
 8002f3e:	6c22      	ldr	r2, [r4, #64]	@ 0x40
 8002f40:	f042 0204 	orr.w	r2, r2, #4
 8002f44:	6422      	str	r2, [r4, #64]	@ 0x40
        if (hi2c->ErrorCode == HAL_I2C_ERROR_AF)
 8002f46:	6c22      	ldr	r2, [r4, #64]	@ 0x40
          __HAL_UNLOCK(hi2c);
 8002f48:	2100      	movs	r1, #0
        if (hi2c->ErrorCode == HAL_I2C_ERROR_AF)
 8002f4a:	2a04      	cmp	r2, #4
          __HAL_UNLOCK(hi2c);
 8002f4c:	f884 103c 	strb.w	r1, [r4, #60]	@ 0x3c
        if (hi2c->ErrorCode == HAL_I2C_ERROR_AF)
 8002f50:	d103      	bne.n	8002f5a <HAL_I2C_Master_Transmit+0x136>
          SET_BIT(hi2c->Instance->CR1, I2C_CR1_STOP);
 8002f52:	681a      	ldr	r2, [r3, #0]
 8002f54:	f442 7200 	orr.w	r2, r2, #512	@ 0x200
 8002f58:	601a      	str	r2, [r3, #0]
      return HAL_ERROR;
 8002f5a:	2501      	movs	r5, #1
}
 8002f5c:	4628      	mov	r0, r5
 8002f5e:	b002      	add	sp, #8
 8002f60:	e8bd 87f0 	ldmia.w	sp!, {r4, r5, r6, r7, r8, r9, sl, pc}
      if (((HAL_GetTick() - Tickstart) > Timeout) || (Timeout == 0U))
 8002f64:	b917      	cbnz	r7, 8002f6c <HAL_I2C_Master_Transmit+0x148>
        if ((__HAL_I2C_GET_FLAG(hi2c, Flag) == Status))
 8002f66:	696b      	ldr	r3, [r5, #20]
 8002f68:	07db      	lsls	r3, r3, #31
 8002f6a:	d536      	bpl.n	8002fda <HAL_I2C_Master_Transmit+0x1b6>
  while (__HAL_I2C_GET_FLAG(hi2c, Flag) == Status)
 8002f6c:	696b      	ldr	r3, [r5, #20]
 8002f6e:	07d9      	lsls	r1, r3, #31
 8002f70:	d4b9      	bmi.n	8002ee6 <HAL_I2C_Master_Transmit+0xc2>
      if (((HAL_GetTick() - Tickstart) > Timeout) || (Timeout == 0U))
 8002f72:	f7ff f837 	bl	8001fe4 <HAL_GetTick>
 8002f76:	1b80      	subs	r0, r0, r6
 8002f78:	4287      	cmp	r7, r0
        if ((__HAL_I2C_GET_FLAG(hi2c, Flag) == Status))
 8002f7a:	6825      	ldr	r5, [r4, #0]
      if (((HAL_GetTick() - Tickstart) > Timeout) || (Timeout == 0U))
 8002f7c:	d2f2      	bcs.n	8002f64 <HAL_I2C_Master_Transmit+0x140>
        if ((__HAL_I2C_GET_FLAG(hi2c, Flag) == Status))
 8002f7e:	696b      	ldr	r3, [r5, #20]
 8002f80:	07db      	lsls	r3, r3, #31
 8002f82:	d4f3      	bmi.n	8002f6c <HAL_I2C_Master_Transmit+0x148>
 8002f84:	e029      	b.n	8002fda <HAL_I2C_Master_Transmit+0x1b6>
      __HAL_I2C_ENABLE(hi2c);
 8002f86:	682b      	ldr	r3, [r5, #0]
 8002f88:	f043 0301 	orr.w	r3, r3, #1
 8002f8c:	602b      	str	r3, [r5, #0]
 8002f8e:	e783      	b.n	8002e98 <HAL_I2C_Master_Transmit+0x74>
    hi2c->Instance->DR = I2C_10BIT_HEADER_WRITE(DevAddress);
 8002f90:	ea4f 13e8 	mov.w	r3, r8, asr #7
 8002f94:	f003 0306 	and.w	r3, r3, #6
 8002f98:	f043 03f0 	orr.w	r3, r3, #240	@ 0xf0
 8002f9c:	612b      	str	r3, [r5, #16]
    if (I2C_WaitOnMasterAddressFlagUntilTimeout(hi2c, I2C_FLAG_ADD10, Timeout, Tickstart) != HAL_OK)
 8002f9e:	4632      	mov	r2, r6
 8002fa0:	4639      	mov	r1, r7
 8002fa2:	4620      	mov	r0, r4
 8002fa4:	f7ff fe32 	bl	8002c0c <I2C_WaitOnMasterAddressFlagUntilTimeout.constprop.1>
 8002fa8:	2800      	cmp	r0, #0
 8002faa:	d1d6      	bne.n	8002f5a <HAL_I2C_Master_Transmit+0x136>
    hi2c->Instance->DR = I2C_10BIT_ADDRESS(DevAddress);
 8002fac:	6822      	ldr	r2, [r4, #0]
 8002fae:	fa5f f388 	uxtb.w	r3, r8
 8002fb2:	6113      	str	r3, [r2, #16]
 8002fb4:	e79e      	b.n	8002ef4 <HAL_I2C_Master_Transmit+0xd0>
        if ((__HAL_I2C_GET_FLAG(hi2c, I2C_FLAG_TXE) == RESET))
 8002fb6:	695a      	ldr	r2, [r3, #20]
 8002fb8:	0610      	lsls	r0, r2, #24
 8002fba:	d571      	bpl.n	80030a0 <HAL_I2C_Master_Transmit+0x27c>
  while (__HAL_I2C_GET_FLAG(hi2c, I2C_FLAG_TXE) == RESET)
 8002fbc:	695a      	ldr	r2, [r3, #20]
 8002fbe:	0610      	lsls	r0, r2, #24
 8002fc0:	d41f      	bmi.n	8003002 <HAL_I2C_Master_Transmit+0x1de>
  if (__HAL_I2C_GET_FLAG(hi2c, I2C_FLAG_AF) == SET)
 8002fc2:	695a      	ldr	r2, [r3, #20]
 8002fc4:	0552      	lsls	r2, r2, #21
 8002fc6:	d4b0      	bmi.n	8002f2a <HAL_I2C_Master_Transmit+0x106>
      if (((HAL_GetTick() - Tickstart) > Timeout) || (Timeout == 0U))
 8002fc8:	f7ff f80c 	bl	8001fe4 <HAL_GetTick>
 8002fcc:	1b80      	subs	r0, r0, r6
 8002fce:	4287      	cmp	r7, r0
        if ((__HAL_I2C_GET_FLAG(hi2c, I2C_FLAG_TXE) == RESET))
 8002fd0:	6823      	ldr	r3, [r4, #0]
      if (((HAL_GetTick() - Tickstart) > Timeout) || (Timeout == 0U))
 8002fd2:	d3f0      	bcc.n	8002fb6 <HAL_I2C_Master_Transmit+0x192>
 8002fd4:	2f00      	cmp	r7, #0
 8002fd6:	d1f1      	bne.n	8002fbc <HAL_I2C_Master_Transmit+0x198>
 8002fd8:	e7ed      	b.n	8002fb6 <HAL_I2C_Master_Transmit+0x192>
          hi2c->PreviousState     = I2C_STATE_NONE;
 8002fda:	2200      	movs	r2, #0
          hi2c->State             = HAL_I2C_STATE_READY;
 8002fdc:	2320      	movs	r3, #32
          hi2c->PreviousState     = I2C_STATE_NONE;
 8002fde:	6322      	str	r2, [r4, #48]	@ 0x30
          hi2c->State             = HAL_I2C_STATE_READY;
 8002fe0:	f884 303d 	strb.w	r3, [r4, #61]	@ 0x3d
          hi2c->Mode              = HAL_I2C_MODE_NONE;
 8002fe4:	f884 203e 	strb.w	r2, [r4, #62]	@ 0x3e
          hi2c->ErrorCode         |= HAL_I2C_ERROR_TIMEOUT;
 8002fe8:	6c23      	ldr	r3, [r4, #64]	@ 0x40
          __HAL_UNLOCK(hi2c);
 8002fea:	f884 203c 	strb.w	r2, [r4, #60]	@ 0x3c
          hi2c->ErrorCode         |= HAL_I2C_ERROR_TIMEOUT;
 8002fee:	f043 0320 	orr.w	r3, r3, #32
 8002ff2:	6423      	str	r3, [r4, #64]	@ 0x40
    if (READ_BIT(hi2c->Instance->CR1, I2C_CR1_START) == I2C_CR1_START)
 8002ff4:	682b      	ldr	r3, [r5, #0]
 8002ff6:	05dd      	lsls	r5, r3, #23
 8002ff8:	d5af      	bpl.n	8002f5a <HAL_I2C_Master_Transmit+0x136>
      hi2c->ErrorCode = HAL_I2C_WRONG_START;
 8002ffa:	f44f 7300 	mov.w	r3, #512	@ 0x200
 8002ffe:	6423      	str	r3, [r4, #64]	@ 0x40
 8003000:	e7ab      	b.n	8002f5a <HAL_I2C_Master_Transmit+0x136>
 8003002:	8d20      	ldrh	r0, [r4, #40]	@ 0x28
      hi2c->Instance->DR = *hi2c->pBuffPtr;
 8003004:	f8d4 c024 	ldr.w	ip, [r4, #36]	@ 0x24
 8003008:	4661      	mov	r1, ip
 800300a:	f811 2b01 	ldrb.w	r2, [r1], #1
 800300e:	611a      	str	r2, [r3, #16]
      hi2c->XferCount--;
 8003010:	8d62      	ldrh	r2, [r4, #42]	@ 0x2a
      hi2c->pBuffPtr++;
 8003012:	6261      	str	r1, [r4, #36]	@ 0x24
      hi2c->XferCount--;
 8003014:	3a01      	subs	r2, #1
 8003016:	b292      	uxth	r2, r2
 8003018:	8562      	strh	r2, [r4, #42]	@ 0x2a
      if ((__HAL_I2C_GET_FLAG(hi2c, I2C_FLAG_BTF) == SET) && (hi2c->XferSize != 0U))
 800301a:	6959      	ldr	r1, [r3, #20]
      hi2c->XferSize--;
 800301c:	1e42      	subs	r2, r0, #1
 800301e:	b292      	uxth	r2, r2
      if ((__HAL_I2C_GET_FLAG(hi2c, I2C_FLAG_BTF) == SET) && (hi2c->XferSize != 0U))
 8003020:	0749      	lsls	r1, r1, #29
      hi2c->XferSize--;
 8003022:	8522      	strh	r2, [r4, #40]	@ 0x28
      if ((__HAL_I2C_GET_FLAG(hi2c, I2C_FLAG_BTF) == SET) && (hi2c->XferSize != 0U))
 8003024:	d50c      	bpl.n	8003040 <HAL_I2C_Master_Transmit+0x21c>
 8003026:	b15a      	cbz	r2, 8003040 <HAL_I2C_Master_Transmit+0x21c>
        hi2c->Instance->DR = *hi2c->pBuffPtr;
 8003028:	f89c 2001 	ldrb.w	r2, [ip, #1]
 800302c:	611a      	str	r2, [r3, #16]
        hi2c->pBuffPtr++;
 800302e:	f10c 0202 	add.w	r2, ip, #2
 8003032:	6262      	str	r2, [r4, #36]	@ 0x24
        hi2c->XferCount--;
 8003034:	8d62      	ldrh	r2, [r4, #42]	@ 0x2a
 8003036:	3a01      	subs	r2, #1
        hi2c->XferSize--;
 8003038:	3802      	subs	r0, #2
        hi2c->XferCount--;
 800303a:	b292      	uxth	r2, r2
        hi2c->XferSize--;
 800303c:	8520      	strh	r0, [r4, #40]	@ 0x28
        hi2c->XferCount--;
 800303e:	8562      	strh	r2, [r4, #42]	@ 0x2a
        hi2c->XferSize--;
 8003040:	1c7a      	adds	r2, r7, #1
 8003042:	d11d      	bne.n	8003080 <HAL_I2C_Master_Transmit+0x25c>
  while (__HAL_I2C_GET_FLAG(hi2c, I2C_FLAG_BTF) == RESET)
 8003044:	695a      	ldr	r2, [r3, #20]
 8003046:	0752      	lsls	r2, r2, #29
 8003048:	d406      	bmi.n	8003058 <HAL_I2C_Master_Transmit+0x234>
  if (__HAL_I2C_GET_FLAG(hi2c, I2C_FLAG_AF) == SET)
 800304a:	695a      	ldr	r2, [r3, #20]
 800304c:	0550      	lsls	r0, r2, #21
 800304e:	f53f af6c 	bmi.w	8002f2a <HAL_I2C_Master_Transmit+0x106>
  while (__HAL_I2C_GET_FLAG(hi2c, I2C_FLAG_BTF) == RESET)
 8003052:	695a      	ldr	r2, [r3, #20]
 8003054:	0752      	lsls	r2, r2, #29
 8003056:	d5f8      	bpl.n	800304a <HAL_I2C_Master_Transmit+0x226>
    while (hi2c->XferSize > 0U)
 8003058:	8d20      	ldrh	r0, [r4, #40]	@ 0x28
 800305a:	2800      	cmp	r0, #0
 800305c:	f47f af5d 	bne.w	8002f1a <HAL_I2C_Master_Transmit+0xf6>
    SET_BIT(hi2c->Instance->CR1, I2C_CR1_STOP);
 8003060:	681a      	ldr	r2, [r3, #0]
    hi2c->Mode = HAL_I2C_MODE_NONE;
 8003062:	2100      	movs	r1, #0
    SET_BIT(hi2c->Instance->CR1, I2C_CR1_STOP);
 8003064:	f442 7200 	orr.w	r2, r2, #512	@ 0x200
    hi2c->State = HAL_I2C_STATE_READY;
 8003068:	2020      	movs	r0, #32
    SET_BIT(hi2c->Instance->CR1, I2C_CR1_STOP);
 800306a:	601a      	str	r2, [r3, #0]
    hi2c->State = HAL_I2C_STATE_READY;
 800306c:	f884 003d 	strb.w	r0, [r4, #61]	@ 0x3d
    __HAL_UNLOCK(hi2c);
 8003070:	f884 103c 	strb.w	r1, [r4, #60]	@ 0x3c
    hi2c->Mode = HAL_I2C_MODE_NONE;
 8003074:	f884 103e 	strb.w	r1, [r4, #62]	@ 0x3e
    return HAL_OK;
 8003078:	e6e3      	b.n	8002e42 <HAL_I2C_Master_Transmit+0x1e>
        if ((__HAL_I2C_GET_FLAG(hi2c, I2C_FLAG_BTF) == RESET))
 800307a:	695a      	ldr	r2, [r3, #20]
 800307c:	0751      	lsls	r1, r2, #29
 800307e:	d50f      	bpl.n	80030a0 <HAL_I2C_Master_Transmit+0x27c>
  while (__HAL_I2C_GET_FLAG(hi2c, I2C_FLAG_BTF) == RESET)
 8003080:	695a      	ldr	r2, [r3, #20]
 8003082:	0751      	lsls	r1, r2, #29
 8003084:	d4e8      	bmi.n	8003058 <HAL_I2C_Master_Transmit+0x234>
  if (__HAL_I2C_GET_FLAG(hi2c, I2C_FLAG_AF) == SET)
 8003086:	695a      	ldr	r2, [r3, #20]
 8003088:	0550      	lsls	r0, r2, #21
 800308a:	f53f af4e 	bmi.w	8002f2a <HAL_I2C_Master_Transmit+0x106>
      if (((HAL_GetTick() - Tickstart) > Timeout) || (Timeout == 0U))
 800308e:	f7fe ffa9 	bl	8001fe4 <HAL_GetTick>
 8003092:	1b80      	subs	r0, r0, r6
 8003094:	4287      	cmp	r7, r0
        if ((__HAL_I2C_GET_FLAG(hi2c, I2C_FLAG_BTF) == RESET))
 8003096:	6823      	ldr	r3, [r4, #0]
      if (((HAL_GetTick() - Tickstart) > Timeout) || (Timeout == 0U))
 8003098:	d3ef      	bcc.n	800307a <HAL_I2C_Master_Transmit+0x256>
 800309a:	2f00      	cmp	r7, #0
 800309c:	d1f0      	bne.n	8003080 <HAL_I2C_Master_Transmit+0x25c>
 800309e:	e7ec      	b.n	800307a <HAL_I2C_Master_Transmit+0x256>
          hi2c->PreviousState       = I2C_STATE_NONE;
 80030a0:	2200      	movs	r2, #0
          hi2c->State               = HAL_I2C_STATE_READY;
 80030a2:	2120      	movs	r1, #32
          hi2c->PreviousState       = I2C_STATE_NONE;
 80030a4:	6322      	str	r2, [r4, #48]	@ 0x30
          hi2c->State               = HAL_I2C_STATE_READY;
 80030a6:	f884 103d 	strb.w	r1, [r4, #61]	@ 0x3d
          hi2c->Mode                = HAL_I2C_MODE_NONE;
 80030aa:	f884 203e 	strb.w	r2, [r4, #62]	@ 0x3e
          hi2c->ErrorCode           |= HAL_I2C_ERROR_TIMEOUT;
 80030ae:	6c22      	ldr	r2, [r4, #64]	@ 0x40
 80030b0:	430a      	orrs	r2, r1
 80030b2:	6422      	str	r2, [r4, #64]	@ 0x40
          return HAL_ERROR;
 80030b4:	e747      	b.n	8002f46 <HAL_I2C_Master_Transmit+0x122>
 80030b6:	bf00      	nop
 80030b8:	ffff0000 	.word	0xffff0000

080030bc <HAL_I2S_Init>:
#if defined (SPI_I2S_FULLDUPLEX_SUPPORT)
  uint16_t tmpreg;
#endif

  /* Check the I2S handle allocation */
  if (hi2s == NULL)
 80030bc:	2800      	cmp	r0, #0
 80030be:	f000 809b 	beq.w	80031f8 <HAL_I2S_Init+0x13c>
{
 80030c2:	b5f8      	push	{r3, r4, r5, r6, r7, lr}
  assert_param(IS_I2S_MCLK_OUTPUT(hi2s->Init.MCLKOutput));
  assert_param(IS_I2S_AUDIO_FREQ(hi2s->Init.AudioFreq));
  assert_param(IS_I2S_CPOL(hi2s->Init.CPOL));
  assert_param(IS_I2S_CLOCKSOURCE(hi2s->Init.ClockSource));

  if (hi2s->State == HAL_I2S_STATE_RESET)
 80030c4:	f890 3041 	ldrb.w	r3, [r0, #65]	@ 0x41
 80030c8:	4604      	mov	r4, r0
 80030ca:	f003 02ff 	and.w	r2, r3, #255	@ 0xff
 80030ce:	2b00      	cmp	r3, #0
 80030d0:	d077      	beq.n	80031c2 <HAL_I2S_Init+0x106>

  hi2s->State = HAL_I2S_STATE_BUSY;

  /*----------------------- SPIx I2SCFGR & I2SPR Configuration ----------------*/
  /* Clear I2SMOD, I2SE, I2SCFG, PCMSYNC, I2SSTD, CKPOL, DATLEN and CHLEN bits */
  CLEAR_BIT(hi2s->Instance->I2SCFGR, (SPI_I2SCFGR_CHLEN | SPI_I2SCFGR_DATLEN | SPI_I2SCFGR_CKPOL | \
 80030d2:	6821      	ldr	r1, [r4, #0]
                                      SPI_I2SCFGR_I2SE | SPI_I2SCFGR_I2SMOD));
  hi2s->Instance->I2SPR = 0x0002U;

  /*----------------------- I2SPR: I2SDIV and ODD Calculation -----------------*/
  /* If the requested audio frequency is not the default, compute the prescaler */
  if (hi2s->Init.AudioFreq != I2S_AUDIOFREQ_DEFAULT)
 80030d4:	6960      	ldr	r0, [r4, #20]
  {
    /* Check the frame length (For the Prescaler computing) ********************/
    if (hi2s->Init.DataFormat == I2S_DATAFORMAT_16B)
 80030d6:	68e5      	ldr	r5, [r4, #12]
  hi2s->State = HAL_I2S_STATE_BUSY;
 80030d8:	2202      	movs	r2, #2
 80030da:	f884 2041 	strb.w	r2, [r4, #65]	@ 0x41
  CLEAR_BIT(hi2s->Instance->I2SCFGR, (SPI_I2SCFGR_CHLEN | SPI_I2SCFGR_DATLEN | SPI_I2SCFGR_CKPOL | \
 80030de:	69cb      	ldr	r3, [r1, #28]
 80030e0:	f423 637b 	bic.w	r3, r3, #4016	@ 0xfb0
 80030e4:	f023 030f 	bic.w	r3, r3, #15
  if (hi2s->Init.AudioFreq != I2S_AUDIOFREQ_DEFAULT)
 80030e8:	4290      	cmp	r0, r2
  CLEAR_BIT(hi2s->Instance->I2SCFGR, (SPI_I2SCFGR_CHLEN | SPI_I2SCFGR_DATLEN | SPI_I2SCFGR_CKPOL | \
 80030ea:	61cb      	str	r3, [r1, #28]
  hi2s->Instance->I2SPR = 0x0002U;
 80030ec:	620a      	str	r2, [r1, #32]
  if (hi2s->Init.AudioFreq != I2S_AUDIOFREQ_DEFAULT)
 80030ee:	d028      	beq.n	8003142 <HAL_I2S_Init+0x86>
    if (hi2s->Init.DataFormat == I2S_DATAFORMAT_16B)
 80030f0:	2d00      	cmp	r5, #0
      /* Packet length is 32 bits */
      packetlength = 32U;
    }

    /* I2S standard */
    if (hi2s->Init.Standard <= I2S_STANDARD_LSB)
 80030f2:	68a2      	ldr	r2, [r4, #8]
    if (hi2s->Init.DataFormat == I2S_DATAFORMAT_16B)
 80030f4:	bf15      	itete	ne
 80030f6:	2640      	movne	r6, #64	@ 0x40
 80030f8:	2620      	moveq	r6, #32
 80030fa:	2320      	movne	r3, #32
 80030fc:	2310      	moveq	r3, #16
    else
    {
      i2sclk = HAL_RCCEx_GetPeriphCLKFreq(RCC_PERIPHCLK_I2S_APB2);
    }
#else
    i2sclk = HAL_RCCEx_GetPeriphCLKFreq(RCC_PERIPHCLK_I2S);
 80030fe:	2001      	movs	r0, #1
    if (hi2s->Init.Standard <= I2S_STANDARD_LSB)
 8003100:	2a20      	cmp	r2, #32
 8003102:	bf88      	it	hi
 8003104:	461e      	movhi	r6, r3
    i2sclk = HAL_RCCEx_GetPeriphCLKFreq(RCC_PERIPHCLK_I2S);
 8003106:	f000 fe45 	bl	8003d94 <HAL_RCCEx_GetPeriphCLKFreq>
#endif /* I2S_APB1_APB2_FEATURE */

    /* Compute the Real divider depending on the MCLK output state, with a floating point */
    if (hi2s->Init.MCLKOutput == I2S_MCLKOUTPUT_ENABLE)
 800310a:	6922      	ldr	r2, [r4, #16]
 800310c:	f5b2 7f00 	cmp.w	r2, #512	@ 0x200
 8003110:	d05e      	beq.n	80031d0 <HAL_I2S_Init+0x114>
      }
    }
    else
    {
      /* MCLK output is disabled */
      tmp = (uint32_t)(((((i2sclk / packetlength) * 10U) / hi2s->Init.AudioFreq)) + 5U);
 8003112:	fbb0 f0f6 	udiv	r0, r0, r6
 8003116:	eb00 0080 	add.w	r0, r0, r0, lsl #2
 800311a:	6961      	ldr	r1, [r4, #20]
 800311c:	0043      	lsls	r3, r0, #1
 800311e:	fbb3 f3f1 	udiv	r3, r3, r1
 8003122:	3305      	adds	r3, #5
    }

    /* Remove the flatting point */
    tmp = tmp / 10U;
 8003124:	4935      	ldr	r1, [pc, #212]	@ (80031fc <HAL_I2S_Init+0x140>)
 8003126:	fba1 1303 	umull	r1, r3, r1, r3

    /* Check the parity of the divider */
    i2sodd = (uint32_t)(tmp & (uint32_t)1U);

    /* Compute the i2sdiv prescaler */
    i2sdiv = (uint32_t)((tmp - i2sodd) / 2U);
 800312a:	0918      	lsrs	r0, r3, #4
    i2sdiv = 2U;
    i2sodd = 0U;
  }

  /* Test if the divider is 1 or 0 or greater than 0xFF */
  if ((i2sdiv < 2U) || (i2sdiv > 0xFFU))
 800312c:	1e81      	subs	r1, r0, #2
 800312e:	29fd      	cmp	r1, #253	@ 0xfd
    i2sdiv = (uint32_t)((tmp - i2sodd) / 2U);
 8003130:	f3c3 03c0 	ubfx	r3, r3, #3, #1
  if ((i2sdiv < 2U) || (i2sdiv > 0xFFU))
 8003134:	d959      	bls.n	80031ea <HAL_I2S_Init+0x12e>
  {
    /* Set the error code and execute error callback*/
    SET_BIT(hi2s->ErrorCode, HAL_I2S_ERROR_PRESCALER);
 8003136:	6c63      	ldr	r3, [r4, #68]	@ 0x44
 8003138:	f043 0310 	orr.w	r3, r3, #16
 800313c:	6463      	str	r3, [r4, #68]	@ 0x44
    return HAL_ERROR;
 800313e:	2001      	movs	r0, #1

  hi2s->ErrorCode = HAL_I2S_ERROR_NONE;
  hi2s->State     = HAL_I2S_STATE_READY;

  return HAL_OK;
}
 8003140:	bdf8      	pop	{r3, r4, r5, r6, r7, pc}
  hi2s->Instance->I2SPR = (uint32_t)((uint32_t)i2sdiv | (uint32_t)(i2sodd | (uint32_t)hi2s->Init.MCLKOutput));
 8003142:	6922      	ldr	r2, [r4, #16]
  MODIFY_REG(hi2s->Instance->I2SCFGR, (SPI_I2SCFGR_CHLEN | SPI_I2SCFGR_DATLEN | \
 8003144:	f8df c0c8 	ldr.w	ip, [pc, #200]	@ 8003210 <HAL_I2S_Init+0x154>
 8003148:	69a7      	ldr	r7, [r4, #24]
  hi2s->Instance->I2SPR = (uint32_t)((uint32_t)i2sdiv | (uint32_t)(i2sodd | (uint32_t)hi2s->Init.MCLKOutput));
 800314a:	4302      	orrs	r2, r0
 800314c:	620a      	str	r2, [r1, #32]
  MODIFY_REG(hi2s->Instance->I2SCFGR, (SPI_I2SCFGR_CHLEN | SPI_I2SCFGR_DATLEN | \
 800314e:	e9d4 2001 	ldrd	r2, r0, [r4, #4]
 8003152:	69cb      	ldr	r3, [r1, #28]
 8003154:	ea42 0600 	orr.w	r6, r2, r0
 8003158:	ea03 030c 	and.w	r3, r3, ip
 800315c:	4333      	orrs	r3, r6
 800315e:	432b      	orrs	r3, r5
 8003160:	433b      	orrs	r3, r7
 8003162:	f443 6300 	orr.w	r3, r3, #2048	@ 0x800
 8003166:	61cb      	str	r3, [r1, #28]
  if (hi2s->Init.FullDuplexMode == I2S_FULLDUPLEXMODE_ENABLE)
 8003168:	6a23      	ldr	r3, [r4, #32]
 800316a:	2b01      	cmp	r3, #1
 800316c:	d123      	bne.n	80031b6 <HAL_I2S_Init+0xfa>
    CLEAR_BIT(I2SxEXT(hi2s->Instance)->I2SCFGR, (SPI_I2SCFGR_CHLEN | SPI_I2SCFGR_DATLEN | SPI_I2SCFGR_CKPOL | \
 800316e:	4b24      	ldr	r3, [pc, #144]	@ (8003200 <HAL_I2S_Init+0x144>)
 8003170:	4e24      	ldr	r6, [pc, #144]	@ (8003204 <HAL_I2S_Init+0x148>)
 8003172:	4299      	cmp	r1, r3
 8003174:	bf18      	it	ne
 8003176:	f04f 2640 	movne.w	r6, #1073758208	@ 0x40004000
    hi2s->IrqHandlerISR = HAL_I2SEx_FullDuplex_IRQHandler;
 800317a:	4b23      	ldr	r3, [pc, #140]	@ (8003208 <HAL_I2S_Init+0x14c>)
 800317c:	6363      	str	r3, [r4, #52]	@ 0x34
    CLEAR_BIT(I2SxEXT(hi2s->Instance)->I2SCFGR, (SPI_I2SCFGR_CHLEN | SPI_I2SCFGR_DATLEN | SPI_I2SCFGR_CKPOL | \
 800317e:	69f3      	ldr	r3, [r6, #28]
    if ((hi2s->Init.Mode == I2S_MODE_MASTER_TX) || (hi2s->Init.Mode == I2S_MODE_SLAVE_TX))
 8003180:	f5b2 7f00 	cmp.w	r2, #512	@ 0x200
    CLEAR_BIT(I2SxEXT(hi2s->Instance)->I2SCFGR, (SPI_I2SCFGR_CHLEN | SPI_I2SCFGR_DATLEN | SPI_I2SCFGR_CKPOL | \
 8003184:	ea03 030c 	and.w	r3, r3, ip
 8003188:	61f3      	str	r3, [r6, #28]
    if ((hi2s->Init.Mode == I2S_MODE_MASTER_TX) || (hi2s->Init.Mode == I2S_MODE_SLAVE_TX))
 800318a:	bf18      	it	ne
 800318c:	fab2 f282 	clzne	r2, r2
    I2SxEXT(hi2s->Instance)->I2SPR = 2U;
 8003190:	f04f 0302 	mov.w	r3, #2
 8003194:	6233      	str	r3, [r6, #32]
    if ((hi2s->Init.Mode == I2S_MODE_MASTER_TX) || (hi2s->Init.Mode == I2S_MODE_SLAVE_TX))
 8003196:	bf18      	it	ne
 8003198:	0952      	lsrne	r2, r2, #5
    tmpreg = I2SxEXT(hi2s->Instance)->I2SCFGR;
 800319a:	69f3      	ldr	r3, [r6, #28]
                         (uint16_t)tmp                   | \
 800319c:	bf14      	ite	ne
 800319e:	0212      	lslne	r2, r2, #8
 80031a0:	f44f 7280 	moveq.w	r2, #256	@ 0x100
    tmpreg |= (uint16_t)((uint16_t)SPI_I2SCFGR_I2SMOD    | \
 80031a4:	4328      	orrs	r0, r5
 80031a6:	4302      	orrs	r2, r0
    tmpreg = I2SxEXT(hi2s->Instance)->I2SCFGR;
 80031a8:	b29b      	uxth	r3, r3
    tmpreg |= (uint16_t)((uint16_t)SPI_I2SCFGR_I2SMOD    | \
 80031aa:	433a      	orrs	r2, r7
 80031ac:	4313      	orrs	r3, r2
 80031ae:	b29b      	uxth	r3, r3
    WRITE_REG(I2SxEXT(hi2s->Instance)->I2SCFGR, tmpreg);
 80031b0:	f443 6300 	orr.w	r3, r3, #2048	@ 0x800
 80031b4:	61f3      	str	r3, [r6, #28]
  hi2s->ErrorCode = HAL_I2S_ERROR_NONE;
 80031b6:	2000      	movs	r0, #0
  hi2s->State     = HAL_I2S_STATE_READY;
 80031b8:	2301      	movs	r3, #1
  hi2s->ErrorCode = HAL_I2S_ERROR_NONE;
 80031ba:	6460      	str	r0, [r4, #68]	@ 0x44
  hi2s->State     = HAL_I2S_STATE_READY;
 80031bc:	f884 3041 	strb.w	r3, [r4, #65]	@ 0x41
}
 80031c0:	bdf8      	pop	{r3, r4, r5, r6, r7, pc}
    hi2s->IrqHandlerISR = I2S_IRQHandler;
 80031c2:	4b12      	ldr	r3, [pc, #72]	@ (800320c <HAL_I2S_Init+0x150>)
    hi2s->Lock = HAL_UNLOCKED;
 80031c4:	f880 2040 	strb.w	r2, [r0, #64]	@ 0x40
    hi2s->IrqHandlerISR = I2S_IRQHandler;
 80031c8:	6343      	str	r3, [r0, #52]	@ 0x34
    HAL_I2S_MspInit(hi2s);
 80031ca:	f7fe fd69 	bl	8001ca0 <HAL_I2S_MspInit>
 80031ce:	e780      	b.n	80030d2 <HAL_I2S_Init+0x16>
      if (hi2s->Init.DataFormat != I2S_DATAFORMAT_16B)
 80031d0:	68e5      	ldr	r5, [r4, #12]
        tmp = (uint32_t)(((((i2sclk / (packetlength * 4U)) * 10U) / hi2s->Init.AudioFreq)) + 5U);
 80031d2:	6961      	ldr	r1, [r4, #20]
      if (hi2s->Init.DataFormat != I2S_DATAFORMAT_16B)
 80031d4:	b175      	cbz	r5, 80031f4 <HAL_I2S_Init+0x138>
        tmp = (uint32_t)(((((i2sclk / (packetlength * 4U)) * 10U) / hi2s->Init.AudioFreq)) + 5U);
 80031d6:	00b6      	lsls	r6, r6, #2
        tmp = (uint32_t)(((((i2sclk / (packetlength * 8U)) * 10U) / hi2s->Init.AudioFreq)) + 5U);
 80031d8:	fbb0 f0f6 	udiv	r0, r0, r6
 80031dc:	eb00 0080 	add.w	r0, r0, r0, lsl #2
 80031e0:	0043      	lsls	r3, r0, #1
 80031e2:	fbb3 f3f1 	udiv	r3, r3, r1
 80031e6:	3305      	adds	r3, #5
 80031e8:	e79c      	b.n	8003124 <HAL_I2S_Init+0x68>
  hi2s->Instance->I2SPR = (uint32_t)((uint32_t)i2sdiv | (uint32_t)(i2sodd | (uint32_t)hi2s->Init.MCLKOutput));
 80031ea:	6821      	ldr	r1, [r4, #0]
 80031ec:	68e5      	ldr	r5, [r4, #12]
 80031ee:	ea40 2003 	orr.w	r0, r0, r3, lsl #8
 80031f2:	e7a7      	b.n	8003144 <HAL_I2S_Init+0x88>
        tmp = (uint32_t)(((((i2sclk / (packetlength * 8U)) * 10U) / hi2s->Init.AudioFreq)) + 5U);
 80031f4:	00f6      	lsls	r6, r6, #3
 80031f6:	e7ef      	b.n	80031d8 <HAL_I2S_Init+0x11c>
    return HAL_ERROR;
 80031f8:	2001      	movs	r0, #1
}
 80031fa:	4770      	bx	lr
 80031fc:	cccccccd 	.word	0xcccccccd
 8003200:	40003800 	.word	0x40003800
 8003204:	40003400 	.word	0x40003400
 8003208:	0800343d 	.word	0x0800343d
 800320c:	08003305 	.word	0x08003305
 8003210:	fffff040 	.word	0xfffff040

08003214 <HAL_I2S_Transmit_DMA>:
  */
HAL_StatusTypeDef HAL_I2S_Transmit_DMA(I2S_HandleTypeDef *hi2s, uint16_t *pData, uint16_t Size)
{
  uint32_t tmpreg_cfgr;

  if ((pData == NULL) || (Size == 0U))
 8003214:	2900      	cmp	r1, #0
 8003216:	d051      	beq.n	80032bc <HAL_I2S_Transmit_DMA+0xa8>
 8003218:	2a00      	cmp	r2, #0
 800321a:	d04f      	beq.n	80032bc <HAL_I2S_Transmit_DMA+0xa8>
{
 800321c:	b538      	push	{r3, r4, r5, lr}
  {
    return  HAL_ERROR;
  }

  if (hi2s->State != HAL_I2S_STATE_READY)
 800321e:	f890 3041 	ldrb.w	r3, [r0, #65]	@ 0x41
 8003222:	2b01      	cmp	r3, #1
 8003224:	4604      	mov	r4, r0
 8003226:	b2d8      	uxtb	r0, r3
 8003228:	d135      	bne.n	8003296 <HAL_I2S_Transmit_DMA+0x82>
  {
    return HAL_BUSY;
  }

  /* Process Locked */
  __HAL_LOCK(hi2s);
 800322a:	f894 3040 	ldrb.w	r3, [r4, #64]	@ 0x40
 800322e:	2b01      	cmp	r3, #1
 8003230:	d031      	beq.n	8003296 <HAL_I2S_Transmit_DMA+0x82>

  /* Set state and reset error code */
  hi2s->State = HAL_I2S_STATE_BUSY_TX;
 8003232:	2303      	movs	r3, #3
  __HAL_LOCK(hi2s);
 8003234:	f884 0040 	strb.w	r0, [r4, #64]	@ 0x40
  hi2s->ErrorCode = HAL_I2S_ERROR_NONE;
  hi2s->pTxBuffPtr = pData;

  tmpreg_cfgr = hi2s->Instance->I2SCFGR & (SPI_I2SCFGR_DATLEN | SPI_I2SCFGR_CHLEN);
 8003238:	6825      	ldr	r5, [r4, #0]
  hi2s->State = HAL_I2S_STATE_BUSY_TX;
 800323a:	f884 3041 	strb.w	r3, [r4, #65]	@ 0x41
  hi2s->ErrorCode = HAL_I2S_ERROR_NONE;
 800323e:	2300      	movs	r3, #0
 8003240:	6463      	str	r3, [r4, #68]	@ 0x44
  tmpreg_cfgr = hi2s->Instance->I2SCFGR & (SPI_I2SCFGR_DATLEN | SPI_I2SCFGR_CHLEN);
 8003242:	69e8      	ldr	r0, [r5, #28]
  hi2s->pTxBuffPtr = pData;
 8003244:	6261      	str	r1, [r4, #36]	@ 0x24
  tmpreg_cfgr = hi2s->Instance->I2SCFGR & (SPI_I2SCFGR_DATLEN | SPI_I2SCFGR_CHLEN);
 8003246:	f000 0007 	and.w	r0, r0, #7

  if ((tmpreg_cfgr == I2S_DATAFORMAT_24B) || (tmpreg_cfgr == I2S_DATAFORMAT_32B))
 800324a:	2328      	movs	r3, #40	@ 0x28
 800324c:	40c3      	lsrs	r3, r0
 800324e:	07d8      	lsls	r0, r3, #31
 8003250:	d423      	bmi.n	800329a <HAL_I2S_Transmit_DMA+0x86>
    hi2s->TxXferSize = (Size << 1U);
    hi2s->TxXferCount = (Size << 1U);
  }
  else
  {
    hi2s->TxXferSize = Size;
 8003252:	8522      	strh	r2, [r4, #40]	@ 0x28
    hi2s->TxXferCount = Size;
 8003254:	8562      	strh	r2, [r4, #42]	@ 0x2a
  }

  /* Set the I2S Tx DMA Half transfer complete callback */
  hi2s->hdmatx->XferHalfCpltCallback = I2S_DMATxHalfCplt;
 8003256:	6ba0      	ldr	r0, [r4, #56]	@ 0x38
 8003258:	4b19      	ldr	r3, [pc, #100]	@ (80032c0 <HAL_I2S_Transmit_DMA+0xac>)
 800325a:	6403      	str	r3, [r0, #64]	@ 0x40

  /* Set the I2S Tx DMA transfer complete callback */
  hi2s->hdmatx->XferCpltCallback = I2S_DMATxCplt;
 800325c:	4b19      	ldr	r3, [pc, #100]	@ (80032c4 <HAL_I2S_Transmit_DMA+0xb0>)
 800325e:	63c3      	str	r3, [r0, #60]	@ 0x3c

  /* Set the DMA error callback */
  hi2s->hdmatx->XferErrorCallback = I2S_DMAError;
 8003260:	4b19      	ldr	r3, [pc, #100]	@ (80032c8 <HAL_I2S_Transmit_DMA+0xb4>)
 8003262:	64c3      	str	r3, [r0, #76]	@ 0x4c

  /* Enable the Tx DMA Stream/Channel */
  if (HAL_OK != HAL_DMA_Start_IT(hi2s->hdmatx,
                                 (uint32_t)hi2s->pTxBuffPtr,
                                 (uint32_t)&hi2s->Instance->DR,
                                 hi2s->TxXferSize))
 8003264:	8d23      	ldrh	r3, [r4, #40]	@ 0x28
  if (HAL_OK != HAL_DMA_Start_IT(hi2s->hdmatx,
 8003266:	f105 020c 	add.w	r2, r5, #12
 800326a:	b29b      	uxth	r3, r3
 800326c:	f7ff fa22 	bl	80026b4 <HAL_DMA_Start_IT>
 8003270:	b9c0      	cbnz	r0, 80032a4 <HAL_I2S_Transmit_DMA+0x90>
  }

  __HAL_UNLOCK(hi2s);

  /* Check if the I2S Tx request is already enabled */
  if (HAL_IS_BIT_CLR(hi2s->Instance->CR2, SPI_CR2_TXDMAEN))
 8003272:	6823      	ldr	r3, [r4, #0]
  __HAL_UNLOCK(hi2s);
 8003274:	f884 0040 	strb.w	r0, [r4, #64]	@ 0x40
  if (HAL_IS_BIT_CLR(hi2s->Instance->CR2, SPI_CR2_TXDMAEN))
 8003278:	685a      	ldr	r2, [r3, #4]
 800327a:	0791      	lsls	r1, r2, #30
 800327c:	d403      	bmi.n	8003286 <HAL_I2S_Transmit_DMA+0x72>
  {
    /* Enable Tx DMA Request */
    SET_BIT(hi2s->Instance->CR2, SPI_CR2_TXDMAEN);
 800327e:	685a      	ldr	r2, [r3, #4]
 8003280:	f042 0202 	orr.w	r2, r2, #2
 8003284:	605a      	str	r2, [r3, #4]
  }

  /* Check if the I2S is already enabled */
  if (HAL_IS_BIT_CLR(hi2s->Instance->I2SCFGR, SPI_I2SCFGR_I2SE))
 8003286:	69da      	ldr	r2, [r3, #28]
 8003288:	0552      	lsls	r2, r2, #21
 800328a:	d403      	bmi.n	8003294 <HAL_I2S_Transmit_DMA+0x80>
  {
    /* Enable I2S peripheral */
    __HAL_I2S_ENABLE(hi2s);
 800328c:	69da      	ldr	r2, [r3, #28]
 800328e:	f442 6280 	orr.w	r2, r2, #1024	@ 0x400
 8003292:	61da      	str	r2, [r3, #28]
  }

  return HAL_OK;
}
 8003294:	bd38      	pop	{r3, r4, r5, pc}
    return HAL_BUSY;
 8003296:	2002      	movs	r0, #2
}
 8003298:	bd38      	pop	{r3, r4, r5, pc}
    hi2s->TxXferSize = (Size << 1U);
 800329a:	0053      	lsls	r3, r2, #1
 800329c:	b29b      	uxth	r3, r3
 800329e:	8523      	strh	r3, [r4, #40]	@ 0x28
    hi2s->TxXferCount = (Size << 1U);
 80032a0:	8563      	strh	r3, [r4, #42]	@ 0x2a
 80032a2:	e7d8      	b.n	8003256 <HAL_I2S_Transmit_DMA+0x42>
    SET_BIT(hi2s->ErrorCode, HAL_I2S_ERROR_DMA);
 80032a4:	6c63      	ldr	r3, [r4, #68]	@ 0x44
    hi2s->State = HAL_I2S_STATE_READY;
 80032a6:	2101      	movs	r1, #1
    SET_BIT(hi2s->ErrorCode, HAL_I2S_ERROR_DMA);
 80032a8:	f043 0308 	orr.w	r3, r3, #8
    __HAL_UNLOCK(hi2s);
 80032ac:	2200      	movs	r2, #0
    SET_BIT(hi2s->ErrorCode, HAL_I2S_ERROR_DMA);
 80032ae:	6463      	str	r3, [r4, #68]	@ 0x44
    hi2s->State = HAL_I2S_STATE_READY;
 80032b0:	f884 1041 	strb.w	r1, [r4, #65]	@ 0x41
    __HAL_UNLOCK(hi2s);
 80032b4:	f884 2040 	strb.w	r2, [r4, #64]	@ 0x40
    return  HAL_ERROR;
 80032b8:	2001      	movs	r0, #1
}
 80032ba:	bd38      	pop	{r3, r4, r5, pc}
    return  HAL_ERROR;
 80032bc:	2001      	movs	r0, #1
}
 80032be:	4770      	bx	lr
 80032c0:	080032cd 	.word	0x080032cd
 80032c4:	080032d9 	.word	0x080032d9
 80032c8:	0800340d 	.word	0x0800340d

080032cc <I2S_DMATxHalfCplt>:
  * @param  hdma pointer to a DMA_HandleTypeDef structure that contains
  *                the configuration information for the specified DMA module.
  * @retval None
  */
static void I2S_DMATxHalfCplt(DMA_HandleTypeDef *hdma)
{
 80032cc:	b508      	push	{r3, lr}

  /* Call user Tx half complete callback */
#if (USE_HAL_I2S_REGISTER_CALLBACKS == 1U)
  hi2s->TxHalfCpltCallback(hi2s);
#else
  HAL_I2S_TxHalfCpltCallback(hi2s);
 80032ce:	6b80      	ldr	r0, [r0, #56]	@ 0x38
 80032d0:	f7fe f960 	bl	8001594 <HAL_I2S_TxHalfCpltCallback>
#endif /* USE_HAL_I2S_REGISTER_CALLBACKS */
}
 80032d4:	bd08      	pop	{r3, pc}
 80032d6:	bf00      	nop

080032d8 <I2S_DMATxCplt>:
{
 80032d8:	b508      	push	{r3, lr}
  if (hdma->Init.Mode == DMA_NORMAL)
 80032da:	69c3      	ldr	r3, [r0, #28]
  I2S_HandleTypeDef *hi2s = (I2S_HandleTypeDef *)((DMA_HandleTypeDef *)hdma)->Parent; /* Derogation MISRAC2012-Rule-11.5 */
 80032dc:	6b80      	ldr	r0, [r0, #56]	@ 0x38
  if (hdma->Init.Mode == DMA_NORMAL)
 80032de:	b94b      	cbnz	r3, 80032f4 <I2S_DMATxCplt+0x1c>
    CLEAR_BIT(hi2s->Instance->CR2, SPI_CR2_TXDMAEN);
 80032e0:	6801      	ldr	r1, [r0, #0]
 80032e2:	684a      	ldr	r2, [r1, #4]
    hi2s->State = HAL_I2S_STATE_READY;
 80032e4:	f04f 0c01 	mov.w	ip, #1
    CLEAR_BIT(hi2s->Instance->CR2, SPI_CR2_TXDMAEN);
 80032e8:	f022 0202 	bic.w	r2, r2, #2
 80032ec:	604a      	str	r2, [r1, #4]
    hi2s->TxXferCount = 0U;
 80032ee:	8543      	strh	r3, [r0, #42]	@ 0x2a
    hi2s->State = HAL_I2S_STATE_READY;
 80032f0:	f880 c041 	strb.w	ip, [r0, #65]	@ 0x41
  HAL_I2S_TxCpltCallback(hi2s);
 80032f4:	f7fe f984 	bl	8001600 <HAL_I2S_TxCpltCallback>
}
 80032f8:	bd08      	pop	{r3, pc}
 80032fa:	bf00      	nop

080032fc <HAL_I2S_RxCpltCallback>:
__weak void HAL_I2S_RxCpltCallback(I2S_HandleTypeDef *hi2s)
 80032fc:	4770      	bx	lr
 80032fe:	bf00      	nop

08003300 <HAL_I2S_ErrorCallback>:
__weak void HAL_I2S_ErrorCallback(I2S_HandleTypeDef *hi2s)
 8003300:	4770      	bx	lr
 8003302:	bf00      	nop

08003304 <I2S_IRQHandler>:
  * @param  hi2s: pointer to a I2S_HandleTypeDef structure that contains
  *         the configuration information for I2S module
  * @retval None
  */
static void I2S_IRQHandler(I2S_HandleTypeDef *hi2s)
{
 8003304:	b510      	push	{r4, lr}
  __IO uint32_t i2ssr = hi2s->Instance->SR;
 8003306:	6803      	ldr	r3, [r0, #0]
{
 8003308:	b084      	sub	sp, #16
  __IO uint32_t i2ssr = hi2s->Instance->SR;
 800330a:	689a      	ldr	r2, [r3, #8]
 800330c:	9201      	str	r2, [sp, #4]

  if (hi2s->State == HAL_I2S_STATE_BUSY_RX)
 800330e:	f890 2041 	ldrb.w	r2, [r0, #65]	@ 0x41
 8003312:	2a04      	cmp	r2, #4
{
 8003314:	4604      	mov	r4, r0
  if (hi2s->State == HAL_I2S_STATE_BUSY_RX)
 8003316:	d005      	beq.n	8003324 <I2S_IRQHandler+0x20>
      HAL_I2S_ErrorCallback(hi2s);
#endif /* USE_HAL_I2S_REGISTER_CALLBACKS */
    }
  }

  if (hi2s->State == HAL_I2S_STATE_BUSY_TX)
 8003318:	f894 3041 	ldrb.w	r3, [r4, #65]	@ 0x41
 800331c:	2b03      	cmp	r3, #3
 800331e:	d031      	beq.n	8003384 <I2S_IRQHandler+0x80>
#else
      HAL_I2S_ErrorCallback(hi2s);
#endif /* USE_HAL_I2S_REGISTER_CALLBACKS */
    }
  }
}
 8003320:	b004      	add	sp, #16
 8003322:	bd10      	pop	{r4, pc}
    if (((i2ssr & I2S_FLAG_RXNE) == I2S_FLAG_RXNE) && (__HAL_I2S_GET_IT_SOURCE(hi2s, I2S_IT_RXNE) != RESET))
 8003324:	9a01      	ldr	r2, [sp, #4]
 8003326:	07d1      	lsls	r1, r2, #31
 8003328:	d50f      	bpl.n	800334a <I2S_IRQHandler+0x46>
 800332a:	685a      	ldr	r2, [r3, #4]
 800332c:	0652      	lsls	r2, r2, #25
 800332e:	d50c      	bpl.n	800334a <I2S_IRQHandler+0x46>
  (*hi2s->pRxBuffPtr) = (uint16_t)hi2s->Instance->DR;
 8003330:	6ac1      	ldr	r1, [r0, #44]	@ 0x2c
 8003332:	68da      	ldr	r2, [r3, #12]
 8003334:	f821 2b02 	strh.w	r2, [r1], #2
  hi2s->RxXferCount--;
 8003338:	8e42      	ldrh	r2, [r0, #50]	@ 0x32
  hi2s->pRxBuffPtr++;
 800333a:	62c1      	str	r1, [r0, #44]	@ 0x2c
  hi2s->RxXferCount--;
 800333c:	3a01      	subs	r2, #1
 800333e:	b292      	uxth	r2, r2
 8003340:	8642      	strh	r2, [r0, #50]	@ 0x32
  if (hi2s->RxXferCount == 0U)
 8003342:	8e42      	ldrh	r2, [r0, #50]	@ 0x32
 8003344:	b292      	uxth	r2, r2
 8003346:	2a00      	cmp	r2, #0
 8003348:	d04a      	beq.n	80033e0 <I2S_IRQHandler+0xdc>
    if (((i2ssr & I2S_FLAG_OVR) == I2S_FLAG_OVR) && (__HAL_I2S_GET_IT_SOURCE(hi2s, I2S_IT_ERR) != RESET))
 800334a:	9b01      	ldr	r3, [sp, #4]
 800334c:	0659      	lsls	r1, r3, #25
 800334e:	d5e3      	bpl.n	8003318 <I2S_IRQHandler+0x14>
 8003350:	6823      	ldr	r3, [r4, #0]
 8003352:	685a      	ldr	r2, [r3, #4]
 8003354:	0692      	lsls	r2, r2, #26
 8003356:	d5df      	bpl.n	8003318 <I2S_IRQHandler+0x14>
      __HAL_I2S_DISABLE_IT(hi2s, (I2S_IT_RXNE | I2S_IT_ERR));
 8003358:	685a      	ldr	r2, [r3, #4]
      __HAL_I2S_CLEAR_OVRFLAG(hi2s);
 800335a:	2100      	movs	r1, #0
      __HAL_I2S_DISABLE_IT(hi2s, (I2S_IT_RXNE | I2S_IT_ERR));
 800335c:	f022 0260 	bic.w	r2, r2, #96	@ 0x60
 8003360:	605a      	str	r2, [r3, #4]
      __HAL_I2S_CLEAR_OVRFLAG(hi2s);
 8003362:	9102      	str	r1, [sp, #8]
 8003364:	68da      	ldr	r2, [r3, #12]
 8003366:	9202      	str	r2, [sp, #8]
 8003368:	689b      	ldr	r3, [r3, #8]
 800336a:	9302      	str	r3, [sp, #8]
      hi2s->State = HAL_I2S_STATE_READY;
 800336c:	2301      	movs	r3, #1
      __HAL_I2S_CLEAR_OVRFLAG(hi2s);
 800336e:	9a02      	ldr	r2, [sp, #8]
      hi2s->State = HAL_I2S_STATE_READY;
 8003370:	f884 3041 	strb.w	r3, [r4, #65]	@ 0x41
      SET_BIT(hi2s->ErrorCode, HAL_I2S_ERROR_OVR);
 8003374:	6c63      	ldr	r3, [r4, #68]	@ 0x44
 8003376:	f043 0302 	orr.w	r3, r3, #2
      HAL_I2S_ErrorCallback(hi2s);
 800337a:	4620      	mov	r0, r4
      SET_BIT(hi2s->ErrorCode, HAL_I2S_ERROR_OVR);
 800337c:	6463      	str	r3, [r4, #68]	@ 0x44
      HAL_I2S_ErrorCallback(hi2s);
 800337e:	f7ff ffbf 	bl	8003300 <HAL_I2S_ErrorCallback>
 8003382:	e7c9      	b.n	8003318 <I2S_IRQHandler+0x14>
    if (((i2ssr & I2S_FLAG_TXE) == I2S_FLAG_TXE) && (__HAL_I2S_GET_IT_SOURCE(hi2s, I2S_IT_TXE) != RESET))
 8003384:	9b01      	ldr	r3, [sp, #4]
 8003386:	079b      	lsls	r3, r3, #30
 8003388:	d50f      	bpl.n	80033aa <I2S_IRQHandler+0xa6>
 800338a:	6823      	ldr	r3, [r4, #0]
 800338c:	685a      	ldr	r2, [r3, #4]
 800338e:	0610      	lsls	r0, r2, #24
 8003390:	d50b      	bpl.n	80033aa <I2S_IRQHandler+0xa6>
  hi2s->Instance->DR = (*hi2s->pTxBuffPtr);
 8003392:	6a61      	ldr	r1, [r4, #36]	@ 0x24
 8003394:	f831 2b02 	ldrh.w	r2, [r1], #2
 8003398:	60da      	str	r2, [r3, #12]
  hi2s->TxXferCount--;
 800339a:	8d62      	ldrh	r2, [r4, #42]	@ 0x2a
  hi2s->pTxBuffPtr++;
 800339c:	6261      	str	r1, [r4, #36]	@ 0x24
  hi2s->TxXferCount--;
 800339e:	3a01      	subs	r2, #1
 80033a0:	b292      	uxth	r2, r2
 80033a2:	8562      	strh	r2, [r4, #42]	@ 0x2a
  if (hi2s->TxXferCount == 0U)
 80033a4:	8d62      	ldrh	r2, [r4, #42]	@ 0x2a
 80033a6:	b292      	uxth	r2, r2
 80033a8:	b322      	cbz	r2, 80033f4 <I2S_IRQHandler+0xf0>
    if (((i2ssr & I2S_FLAG_UDR) == I2S_FLAG_UDR) && (__HAL_I2S_GET_IT_SOURCE(hi2s, I2S_IT_ERR) != RESET))
 80033aa:	9b01      	ldr	r3, [sp, #4]
 80033ac:	0719      	lsls	r1, r3, #28
 80033ae:	d5b7      	bpl.n	8003320 <I2S_IRQHandler+0x1c>
 80033b0:	6823      	ldr	r3, [r4, #0]
 80033b2:	685a      	ldr	r2, [r3, #4]
 80033b4:	0692      	lsls	r2, r2, #26
 80033b6:	d5b3      	bpl.n	8003320 <I2S_IRQHandler+0x1c>
      __HAL_I2S_DISABLE_IT(hi2s, (I2S_IT_TXE | I2S_IT_ERR));
 80033b8:	685a      	ldr	r2, [r3, #4]
      __HAL_I2S_CLEAR_UDRFLAG(hi2s);
 80033ba:	2100      	movs	r1, #0
      __HAL_I2S_DISABLE_IT(hi2s, (I2S_IT_TXE | I2S_IT_ERR));
 80033bc:	f022 02a0 	bic.w	r2, r2, #160	@ 0xa0
 80033c0:	605a      	str	r2, [r3, #4]
      __HAL_I2S_CLEAR_UDRFLAG(hi2s);
 80033c2:	9103      	str	r1, [sp, #12]
 80033c4:	689b      	ldr	r3, [r3, #8]
 80033c6:	9303      	str	r3, [sp, #12]
      hi2s->State = HAL_I2S_STATE_READY;
 80033c8:	2301      	movs	r3, #1
      __HAL_I2S_CLEAR_UDRFLAG(hi2s);
 80033ca:	9a03      	ldr	r2, [sp, #12]
      hi2s->State = HAL_I2S_STATE_READY;
 80033cc:	f884 3041 	strb.w	r3, [r4, #65]	@ 0x41
      SET_BIT(hi2s->ErrorCode, HAL_I2S_ERROR_UDR);
 80033d0:	6c63      	ldr	r3, [r4, #68]	@ 0x44
 80033d2:	f043 0304 	orr.w	r3, r3, #4
      HAL_I2S_ErrorCallback(hi2s);
 80033d6:	4620      	mov	r0, r4
      SET_BIT(hi2s->ErrorCode, HAL_I2S_ERROR_UDR);
 80033d8:	6463      	str	r3, [r4, #68]	@ 0x44
      HAL_I2S_ErrorCallback(hi2s);
 80033da:	f7ff ff91 	bl	8003300 <HAL_I2S_ErrorCallback>
}
 80033de:	e79f      	b.n	8003320 <I2S_IRQHandler+0x1c>
    __HAL_I2S_DISABLE_IT(hi2s, (I2S_IT_RXNE | I2S_IT_ERR));
 80033e0:	685a      	ldr	r2, [r3, #4]
    hi2s->State = HAL_I2S_STATE_READY;
 80033e2:	2101      	movs	r1, #1
    __HAL_I2S_DISABLE_IT(hi2s, (I2S_IT_RXNE | I2S_IT_ERR));
 80033e4:	f022 0260 	bic.w	r2, r2, #96	@ 0x60
 80033e8:	605a      	str	r2, [r3, #4]
    hi2s->State = HAL_I2S_STATE_READY;
 80033ea:	f880 1041 	strb.w	r1, [r0, #65]	@ 0x41
    HAL_I2S_RxCpltCallback(hi2s);
 80033ee:	f7ff ff85 	bl	80032fc <HAL_I2S_RxCpltCallback>
 80033f2:	e7aa      	b.n	800334a <I2S_IRQHandler+0x46>
    __HAL_I2S_DISABLE_IT(hi2s, (I2S_IT_TXE | I2S_IT_ERR));
 80033f4:	685a      	ldr	r2, [r3, #4]
    hi2s->State = HAL_I2S_STATE_READY;
 80033f6:	2101      	movs	r1, #1
    __HAL_I2S_DISABLE_IT(hi2s, (I2S_IT_TXE | I2S_IT_ERR));
 80033f8:	f022 02a0 	bic.w	r2, r2, #160	@ 0xa0
 80033fc:	605a      	str	r2, [r3, #4]
    HAL_I2S_TxCpltCallback(hi2s);
 80033fe:	4620      	mov	r0, r4
    hi2s->State = HAL_I2S_STATE_READY;
 8003400:	f884 1041 	strb.w	r1, [r4, #65]	@ 0x41
    HAL_I2S_TxCpltCallback(hi2s);
 8003404:	f7fe f8fc 	bl	8001600 <HAL_I2S_TxCpltCallback>
 8003408:	e7cf      	b.n	80033aa <I2S_IRQHandler+0xa6>
 800340a:	bf00      	nop

0800340c <I2S_DMAError>:
  I2S_HandleTypeDef *hi2s = (I2S_HandleTypeDef *)((DMA_HandleTypeDef *)hdma)->Parent; /* Derogation MISRAC2012-Rule-11.5 */
 800340c:	6b80      	ldr	r0, [r0, #56]	@ 0x38
  CLEAR_BIT(hi2s->Instance->CR2, (SPI_CR2_RXDMAEN | SPI_CR2_TXDMAEN));
 800340e:	6801      	ldr	r1, [r0, #0]
{
 8003410:	b508      	push	{r3, lr}
  CLEAR_BIT(hi2s->Instance->CR2, (SPI_CR2_RXDMAEN | SPI_CR2_TXDMAEN));
 8003412:	684b      	ldr	r3, [r1, #4]
  hi2s->TxXferCount = 0U;
 8003414:	2200      	movs	r2, #0
  hi2s->State = HAL_I2S_STATE_READY;
 8003416:	f04f 0c01 	mov.w	ip, #1
  CLEAR_BIT(hi2s->Instance->CR2, (SPI_CR2_RXDMAEN | SPI_CR2_TXDMAEN));
 800341a:	f023 0303 	bic.w	r3, r3, #3
 800341e:	604b      	str	r3, [r1, #4]
  hi2s->TxXferCount = 0U;
 8003420:	8542      	strh	r2, [r0, #42]	@ 0x2a
  hi2s->RxXferCount = 0U;
 8003422:	8642      	strh	r2, [r0, #50]	@ 0x32
  hi2s->State = HAL_I2S_STATE_READY;
 8003424:	f880 c041 	strb.w	ip, [r0, #65]	@ 0x41
  SET_BIT(hi2s->ErrorCode, HAL_I2S_ERROR_DMA);
 8003428:	6c43      	ldr	r3, [r0, #68]	@ 0x44
 800342a:	f043 0308 	orr.w	r3, r3, #8
 800342e:	6443      	str	r3, [r0, #68]	@ 0x44
  HAL_I2S_ErrorCallback(hi2s);
 8003430:	f7ff ff66 	bl	8003300 <HAL_I2S_ErrorCallback>
}
 8003434:	bd08      	pop	{r3, pc}
 8003436:	bf00      	nop

08003438 <HAL_I2SEx_TxRxCpltCallback>:
/**
  * @brief  Tx and Rx Transfer completed callback
  * @param  hi2s I2S handle
  * @retval None
  */
__weak void HAL_I2SEx_TxRxCpltCallback(I2S_HandleTypeDef *hi2s)
 8003438:	4770      	bx	lr
 800343a:	bf00      	nop

0800343c <HAL_I2SEx_FullDuplex_IRQHandler>:
{
 800343c:	b510      	push	{r4, lr}
  __IO uint32_t i2ssr     = hi2s->Instance->SR;
 800343e:	6801      	ldr	r1, [r0, #0]
  __IO uint32_t i2sextsr  = I2SxEXT(hi2s->Instance)->SR;
 8003440:	4a93      	ldr	r2, [pc, #588]	@ (8003690 <HAL_I2SEx_FullDuplex_IRQHandler+0x254>)
  __IO uint32_t i2ssr     = hi2s->Instance->SR;
 8003442:	688b      	ldr	r3, [r1, #8]
{
 8003444:	b086      	sub	sp, #24
 8003446:	4604      	mov	r4, r0
  __IO uint32_t i2ssr     = hi2s->Instance->SR;
 8003448:	9300      	str	r3, [sp, #0]
  __IO uint32_t i2sextsr  = I2SxEXT(hi2s->Instance)->SR;
 800344a:	4b92      	ldr	r3, [pc, #584]	@ (8003694 <HAL_I2SEx_FullDuplex_IRQHandler+0x258>)
 800344c:	4291      	cmp	r1, r2
 800344e:	bf18      	it	ne
 8003450:	f04f 2340 	movne.w	r3, #1073758208	@ 0x40004000
 8003454:	689a      	ldr	r2, [r3, #8]
 8003456:	9201      	str	r2, [sp, #4]
  __IO uint32_t i2scr2    = hi2s->Instance->CR2;
 8003458:	684a      	ldr	r2, [r1, #4]
 800345a:	9202      	str	r2, [sp, #8]
  __IO uint32_t i2sextcr2 = I2SxEXT(hi2s->Instance)->CR2;
 800345c:	685a      	ldr	r2, [r3, #4]
 800345e:	9203      	str	r2, [sp, #12]
  if ((hi2s->Init.Mode == I2S_MODE_MASTER_TX) || (hi2s->Init.Mode == I2S_MODE_SLAVE_TX))
 8003460:	6842      	ldr	r2, [r0, #4]
 8003462:	f432 7200 	bics.w	r2, r2, #512	@ 0x200
 8003466:	d078      	beq.n	800355a <HAL_I2SEx_FullDuplex_IRQHandler+0x11e>
    if (((i2sextsr & I2S_FLAG_TXE) == I2S_FLAG_TXE) && ((i2sextcr2 & I2S_IT_TXE) != RESET))
 8003468:	9a01      	ldr	r2, [sp, #4]
 800346a:	0792      	lsls	r2, r2, #30
 800346c:	d51a      	bpl.n	80034a4 <HAL_I2SEx_FullDuplex_IRQHandler+0x68>
 800346e:	9a03      	ldr	r2, [sp, #12]
 8003470:	0611      	lsls	r1, r2, #24
 8003472:	d517      	bpl.n	80034a4 <HAL_I2SEx_FullDuplex_IRQHandler+0x68>
  * @retval None
  */
static void I2SEx_TxISR_I2SExt(I2S_HandleTypeDef *hi2s)
{
  /* Write Data on DR register */
  I2SxEXT(hi2s->Instance)->DR = (*hi2s->pTxBuffPtr++);
 8003474:	6a42      	ldr	r2, [r0, #36]	@ 0x24
 8003476:	1c91      	adds	r1, r2, #2
 8003478:	8812      	ldrh	r2, [r2, #0]
 800347a:	6241      	str	r1, [r0, #36]	@ 0x24
 800347c:	60da      	str	r2, [r3, #12]
  hi2s->TxXferCount--;
 800347e:	8d42      	ldrh	r2, [r0, #42]	@ 0x2a
 8003480:	3a01      	subs	r2, #1
 8003482:	b292      	uxth	r2, r2
 8003484:	8542      	strh	r2, [r0, #42]	@ 0x2a

  if (hi2s->TxXferCount == 0U)
 8003486:	8d42      	ldrh	r2, [r0, #42]	@ 0x2a
 8003488:	b292      	uxth	r2, r2
 800348a:	b95a      	cbnz	r2, 80034a4 <HAL_I2SEx_FullDuplex_IRQHandler+0x68>
  {
    /* Disable I2Sext TXE and ERR interrupt */
    __HAL_I2SEXT_DISABLE_IT(hi2s, (I2S_IT_TXE | I2S_IT_ERR));
 800348c:	685a      	ldr	r2, [r3, #4]
 800348e:	f022 02a0 	bic.w	r2, r2, #160	@ 0xa0
 8003492:	605a      	str	r2, [r3, #4]

    if (hi2s->RxXferCount == 0U)
 8003494:	8e43      	ldrh	r3, [r0, #50]	@ 0x32
 8003496:	b29b      	uxth	r3, r3
 8003498:	b923      	cbnz	r3, 80034a4 <HAL_I2SEx_FullDuplex_IRQHandler+0x68>
    {
      hi2s->State = HAL_I2S_STATE_READY;
 800349a:	2301      	movs	r3, #1
 800349c:	f880 3041 	strb.w	r3, [r0, #65]	@ 0x41
      /* Call user TxRx complete callback */
#if (USE_HAL_I2S_REGISTER_CALLBACKS == 1U)
      hi2s->TxRxCpltCallback(hi2s);
#else
      HAL_I2SEx_TxRxCpltCallback(hi2s);
 80034a0:	f7ff ffca 	bl	8003438 <HAL_I2SEx_TxRxCpltCallback>
    if (((i2ssr & I2S_FLAG_RXNE) == I2S_FLAG_RXNE) && ((i2scr2 & I2S_IT_RXNE) != RESET))
 80034a4:	9b00      	ldr	r3, [sp, #0]
 80034a6:	07da      	lsls	r2, r3, #31
 80034a8:	d51c      	bpl.n	80034e4 <HAL_I2SEx_FullDuplex_IRQHandler+0xa8>
 80034aa:	9b02      	ldr	r3, [sp, #8]
 80034ac:	065b      	lsls	r3, r3, #25
 80034ae:	d519      	bpl.n	80034e4 <HAL_I2SEx_FullDuplex_IRQHandler+0xa8>
  * @retval None
  */
static void I2SEx_RxISR_I2S(I2S_HandleTypeDef *hi2s)
{
  /* Read Data from DR register */
  (*hi2s->pRxBuffPtr++) = hi2s->Instance->DR;
 80034b0:	6ae3      	ldr	r3, [r4, #44]	@ 0x2c
 80034b2:	6822      	ldr	r2, [r4, #0]
 80034b4:	1c98      	adds	r0, r3, #2
 80034b6:	68d1      	ldr	r1, [r2, #12]
 80034b8:	62e0      	str	r0, [r4, #44]	@ 0x2c
 80034ba:	8019      	strh	r1, [r3, #0]
  hi2s->RxXferCount--;
 80034bc:	8e63      	ldrh	r3, [r4, #50]	@ 0x32
 80034be:	3b01      	subs	r3, #1
 80034c0:	b29b      	uxth	r3, r3
 80034c2:	8663      	strh	r3, [r4, #50]	@ 0x32

  if (hi2s->RxXferCount == 0U)
 80034c4:	8e63      	ldrh	r3, [r4, #50]	@ 0x32
 80034c6:	b29b      	uxth	r3, r3
 80034c8:	b963      	cbnz	r3, 80034e4 <HAL_I2SEx_FullDuplex_IRQHandler+0xa8>
  {
    /* Disable RXNE and ERR interrupt */
    __HAL_I2S_DISABLE_IT(hi2s, (I2S_IT_RXNE | I2S_IT_ERR));
 80034ca:	6853      	ldr	r3, [r2, #4]
 80034cc:	f023 0360 	bic.w	r3, r3, #96	@ 0x60
 80034d0:	6053      	str	r3, [r2, #4]

    if (hi2s->TxXferCount == 0U)
 80034d2:	8d63      	ldrh	r3, [r4, #42]	@ 0x2a
 80034d4:	b29b      	uxth	r3, r3
 80034d6:	b92b      	cbnz	r3, 80034e4 <HAL_I2SEx_FullDuplex_IRQHandler+0xa8>
    {
      hi2s->State = HAL_I2S_STATE_READY;
 80034d8:	2301      	movs	r3, #1
 80034da:	f884 3041 	strb.w	r3, [r4, #65]	@ 0x41
      /* Call user TxRx complete callback */
#if (USE_HAL_I2S_REGISTER_CALLBACKS == 1U)
      hi2s->TxRxCpltCallback(hi2s);
#else
      HAL_I2SEx_TxRxCpltCallback(hi2s);
 80034de:	4620      	mov	r0, r4
 80034e0:	f7ff ffaa 	bl	8003438 <HAL_I2SEx_TxRxCpltCallback>
    if (((i2ssr & I2S_FLAG_OVR) == I2S_FLAG_OVR) && ((i2scr2 & I2S_IT_ERR) != RESET))
 80034e4:	9b00      	ldr	r3, [sp, #0]
 80034e6:	0658      	lsls	r0, r3, #25
 80034e8:	d51b      	bpl.n	8003522 <HAL_I2SEx_FullDuplex_IRQHandler+0xe6>
 80034ea:	9b02      	ldr	r3, [sp, #8]
 80034ec:	0699      	lsls	r1, r3, #26
 80034ee:	d518      	bpl.n	8003522 <HAL_I2SEx_FullDuplex_IRQHandler+0xe6>
      __HAL_I2S_DISABLE_IT(hi2s, (I2S_IT_RXNE | I2S_IT_ERR));
 80034f0:	6822      	ldr	r2, [r4, #0]
      __HAL_I2SEXT_DISABLE_IT(hi2s, (I2S_IT_TXE | I2S_IT_ERR));
 80034f2:	4867      	ldr	r0, [pc, #412]	@ (8003690 <HAL_I2SEx_FullDuplex_IRQHandler+0x254>)
      __HAL_I2S_DISABLE_IT(hi2s, (I2S_IT_RXNE | I2S_IT_ERR));
 80034f4:	6851      	ldr	r1, [r2, #4]
      __HAL_I2SEXT_DISABLE_IT(hi2s, (I2S_IT_TXE | I2S_IT_ERR));
 80034f6:	4b67      	ldr	r3, [pc, #412]	@ (8003694 <HAL_I2SEx_FullDuplex_IRQHandler+0x258>)
      __HAL_I2S_DISABLE_IT(hi2s, (I2S_IT_RXNE | I2S_IT_ERR));
 80034f8:	f021 0160 	bic.w	r1, r1, #96	@ 0x60
      __HAL_I2SEXT_DISABLE_IT(hi2s, (I2S_IT_TXE | I2S_IT_ERR));
 80034fc:	4282      	cmp	r2, r0
 80034fe:	bf18      	it	ne
 8003500:	f04f 2340 	movne.w	r3, #1073758208	@ 0x40004000
      __HAL_I2S_DISABLE_IT(hi2s, (I2S_IT_RXNE | I2S_IT_ERR));
 8003504:	6051      	str	r1, [r2, #4]
      __HAL_I2SEXT_DISABLE_IT(hi2s, (I2S_IT_TXE | I2S_IT_ERR));
 8003506:	685a      	ldr	r2, [r3, #4]
      hi2s->State = HAL_I2S_STATE_READY;
 8003508:	2101      	movs	r1, #1
      __HAL_I2SEXT_DISABLE_IT(hi2s, (I2S_IT_TXE | I2S_IT_ERR));
 800350a:	f022 02a0 	bic.w	r2, r2, #160	@ 0xa0
 800350e:	605a      	str	r2, [r3, #4]
      hi2s->State = HAL_I2S_STATE_READY;
 8003510:	f884 1041 	strb.w	r1, [r4, #65]	@ 0x41
      SET_BIT(hi2s->ErrorCode, HAL_I2S_ERROR_OVR);
 8003514:	6c63      	ldr	r3, [r4, #68]	@ 0x44
 8003516:	f043 0302 	orr.w	r3, r3, #2
      HAL_I2S_ErrorCallback(hi2s);
 800351a:	4620      	mov	r0, r4
      SET_BIT(hi2s->ErrorCode, HAL_I2S_ERROR_OVR);
 800351c:	6463      	str	r3, [r4, #68]	@ 0x44
      HAL_I2S_ErrorCallback(hi2s);
 800351e:	f7ff feef 	bl	8003300 <HAL_I2S_ErrorCallback>
    if (((i2sextsr & I2S_FLAG_UDR) == I2S_FLAG_UDR) && ((i2sextcr2 & I2S_IT_ERR) != RESET))
 8003522:	9b01      	ldr	r3, [sp, #4]
 8003524:	071a      	lsls	r2, r3, #28
 8003526:	d571      	bpl.n	800360c <HAL_I2SEx_FullDuplex_IRQHandler+0x1d0>
 8003528:	9b03      	ldr	r3, [sp, #12]
 800352a:	069b      	lsls	r3, r3, #26
 800352c:	d56e      	bpl.n	800360c <HAL_I2SEx_FullDuplex_IRQHandler+0x1d0>
      __HAL_I2SEXT_DISABLE_IT(hi2s, (I2S_IT_TXE | I2S_IT_ERR));
 800352e:	6822      	ldr	r2, [r4, #0]
 8003530:	4957      	ldr	r1, [pc, #348]	@ (8003690 <HAL_I2SEx_FullDuplex_IRQHandler+0x254>)
 8003532:	4b58      	ldr	r3, [pc, #352]	@ (8003694 <HAL_I2SEx_FullDuplex_IRQHandler+0x258>)
 8003534:	428a      	cmp	r2, r1
 8003536:	bf18      	it	ne
 8003538:	f04f 2340 	movne.w	r3, #1073758208	@ 0x40004000
      hi2s->State = HAL_I2S_STATE_READY;
 800353c:	f04f 0c01 	mov.w	ip, #1
      __HAL_I2SEXT_DISABLE_IT(hi2s, (I2S_IT_TXE | I2S_IT_ERR));
 8003540:	6859      	ldr	r1, [r3, #4]
 8003542:	f021 01a0 	bic.w	r1, r1, #160	@ 0xa0
 8003546:	6059      	str	r1, [r3, #4]
      __HAL_I2S_DISABLE_IT(hi2s, (I2S_IT_RXNE | I2S_IT_ERR));
 8003548:	6853      	ldr	r3, [r2, #4]
 800354a:	f023 0360 	bic.w	r3, r3, #96	@ 0x60
 800354e:	6053      	str	r3, [r2, #4]
      hi2s->State = HAL_I2S_STATE_READY;
 8003550:	f884 c041 	strb.w	ip, [r4, #65]	@ 0x41
      SET_BIT(hi2s->ErrorCode, HAL_I2S_ERROR_UDR);
 8003554:	6c63      	ldr	r3, [r4, #68]	@ 0x44
      HAL_I2S_ErrorCallback(hi2s);
 8003556:	4620      	mov	r0, r4
 8003558:	e050      	b.n	80035fc <HAL_I2SEx_FullDuplex_IRQHandler+0x1c0>
    if (((i2ssr & I2S_FLAG_TXE) == I2S_FLAG_TXE) && ((i2scr2 & I2S_IT_TXE) != RESET))
 800355a:	9b00      	ldr	r3, [sp, #0]
 800355c:	079a      	lsls	r2, r3, #30
 800355e:	d502      	bpl.n	8003566 <HAL_I2SEx_FullDuplex_IRQHandler+0x12a>
 8003560:	9b02      	ldr	r3, [sp, #8]
 8003562:	061b      	lsls	r3, r3, #24
 8003564:	d454      	bmi.n	8003610 <HAL_I2SEx_FullDuplex_IRQHandler+0x1d4>
    if (((i2sextsr & I2S_FLAG_RXNE) == I2S_FLAG_RXNE) && ((i2sextcr2 & I2S_IT_RXNE) != RESET))
 8003566:	9b01      	ldr	r3, [sp, #4]
 8003568:	07d8      	lsls	r0, r3, #31
 800356a:	d502      	bpl.n	8003572 <HAL_I2SEx_FullDuplex_IRQHandler+0x136>
 800356c:	9b03      	ldr	r3, [sp, #12]
 800356e:	0659      	lsls	r1, r3, #25
 8003570:	d469      	bmi.n	8003646 <HAL_I2SEx_FullDuplex_IRQHandler+0x20a>
    if (((i2sextsr & I2S_FLAG_OVR) == I2S_FLAG_OVR) && ((i2sextcr2 & I2S_IT_ERR) != RESET))
 8003572:	9b01      	ldr	r3, [sp, #4]
 8003574:	065a      	lsls	r2, r3, #25
 8003576:	d522      	bpl.n	80035be <HAL_I2SEx_FullDuplex_IRQHandler+0x182>
 8003578:	9b03      	ldr	r3, [sp, #12]
 800357a:	069b      	lsls	r3, r3, #26
 800357c:	d51f      	bpl.n	80035be <HAL_I2SEx_FullDuplex_IRQHandler+0x182>
      __HAL_I2SEXT_DISABLE_IT(hi2s, (I2S_IT_RXNE | I2S_IT_ERR));
 800357e:	6823      	ldr	r3, [r4, #0]
 8003580:	4943      	ldr	r1, [pc, #268]	@ (8003690 <HAL_I2SEx_FullDuplex_IRQHandler+0x254>)
 8003582:	4a44      	ldr	r2, [pc, #272]	@ (8003694 <HAL_I2SEx_FullDuplex_IRQHandler+0x258>)
 8003584:	428b      	cmp	r3, r1
 8003586:	bf18      	it	ne
 8003588:	f04f 2240 	movne.w	r2, #1073758208	@ 0x40004000
      __HAL_I2S_CLEAR_OVRFLAG(hi2s);
 800358c:	2000      	movs	r0, #0
      __HAL_I2SEXT_DISABLE_IT(hi2s, (I2S_IT_RXNE | I2S_IT_ERR));
 800358e:	6851      	ldr	r1, [r2, #4]
 8003590:	f021 0160 	bic.w	r1, r1, #96	@ 0x60
 8003594:	6051      	str	r1, [r2, #4]
      __HAL_I2S_DISABLE_IT(hi2s, (I2S_IT_TXE | I2S_IT_ERR));
 8003596:	685a      	ldr	r2, [r3, #4]
 8003598:	f022 02a0 	bic.w	r2, r2, #160	@ 0xa0
 800359c:	605a      	str	r2, [r3, #4]
      __HAL_I2S_CLEAR_OVRFLAG(hi2s);
 800359e:	9004      	str	r0, [sp, #16]
 80035a0:	68da      	ldr	r2, [r3, #12]
 80035a2:	9204      	str	r2, [sp, #16]
 80035a4:	689b      	ldr	r3, [r3, #8]
 80035a6:	9304      	str	r3, [sp, #16]
      hi2s->State = HAL_I2S_STATE_READY;
 80035a8:	2101      	movs	r1, #1
      __HAL_I2S_CLEAR_OVRFLAG(hi2s);
 80035aa:	9b04      	ldr	r3, [sp, #16]
      hi2s->State = HAL_I2S_STATE_READY;
 80035ac:	f884 1041 	strb.w	r1, [r4, #65]	@ 0x41
      SET_BIT(hi2s->ErrorCode, HAL_I2S_ERROR_OVR);
 80035b0:	6c63      	ldr	r3, [r4, #68]	@ 0x44
 80035b2:	f043 0302 	orr.w	r3, r3, #2
      HAL_I2S_ErrorCallback(hi2s);
 80035b6:	4620      	mov	r0, r4
      SET_BIT(hi2s->ErrorCode, HAL_I2S_ERROR_OVR);
 80035b8:	6463      	str	r3, [r4, #68]	@ 0x44
      HAL_I2S_ErrorCallback(hi2s);
 80035ba:	f7ff fea1 	bl	8003300 <HAL_I2S_ErrorCallback>
    if (((i2ssr & I2S_FLAG_UDR) == I2S_FLAG_UDR) && ((i2scr2 & I2S_IT_ERR) != RESET))
 80035be:	9b00      	ldr	r3, [sp, #0]
 80035c0:	0718      	lsls	r0, r3, #28
 80035c2:	d523      	bpl.n	800360c <HAL_I2SEx_FullDuplex_IRQHandler+0x1d0>
 80035c4:	9b02      	ldr	r3, [sp, #8]
 80035c6:	0699      	lsls	r1, r3, #26
 80035c8:	d520      	bpl.n	800360c <HAL_I2SEx_FullDuplex_IRQHandler+0x1d0>
      __HAL_I2S_DISABLE_IT(hi2s, (I2S_IT_TXE | I2S_IT_ERR));
 80035ca:	6823      	ldr	r3, [r4, #0]
      __HAL_I2SEXT_DISABLE_IT(hi2s, (I2S_IT_RXNE | I2S_IT_ERR));
 80035cc:	4830      	ldr	r0, [pc, #192]	@ (8003690 <HAL_I2SEx_FullDuplex_IRQHandler+0x254>)
      __HAL_I2S_DISABLE_IT(hi2s, (I2S_IT_TXE | I2S_IT_ERR));
 80035ce:	6859      	ldr	r1, [r3, #4]
      __HAL_I2SEXT_DISABLE_IT(hi2s, (I2S_IT_RXNE | I2S_IT_ERR));
 80035d0:	4a30      	ldr	r2, [pc, #192]	@ (8003694 <HAL_I2SEx_FullDuplex_IRQHandler+0x258>)
      __HAL_I2S_DISABLE_IT(hi2s, (I2S_IT_TXE | I2S_IT_ERR));
 80035d2:	f021 01a0 	bic.w	r1, r1, #160	@ 0xa0
      __HAL_I2SEXT_DISABLE_IT(hi2s, (I2S_IT_RXNE | I2S_IT_ERR));
 80035d6:	4283      	cmp	r3, r0
 80035d8:	bf18      	it	ne
 80035da:	f04f 2240 	movne.w	r2, #1073758208	@ 0x40004000
      __HAL_I2S_DISABLE_IT(hi2s, (I2S_IT_TXE | I2S_IT_ERR));
 80035de:	6059      	str	r1, [r3, #4]
      __HAL_I2SEXT_DISABLE_IT(hi2s, (I2S_IT_RXNE | I2S_IT_ERR));
 80035e0:	6851      	ldr	r1, [r2, #4]
      __HAL_I2S_CLEAR_UDRFLAG(hi2s);
 80035e2:	2000      	movs	r0, #0
      __HAL_I2SEXT_DISABLE_IT(hi2s, (I2S_IT_RXNE | I2S_IT_ERR));
 80035e4:	f021 0160 	bic.w	r1, r1, #96	@ 0x60
 80035e8:	6051      	str	r1, [r2, #4]
      __HAL_I2S_CLEAR_UDRFLAG(hi2s);
 80035ea:	9005      	str	r0, [sp, #20]
 80035ec:	689b      	ldr	r3, [r3, #8]
 80035ee:	9305      	str	r3, [sp, #20]
      hi2s->State = HAL_I2S_STATE_READY;
 80035f0:	2301      	movs	r3, #1
      __HAL_I2S_CLEAR_UDRFLAG(hi2s);
 80035f2:	9a05      	ldr	r2, [sp, #20]
      hi2s->State = HAL_I2S_STATE_READY;
 80035f4:	f884 3041 	strb.w	r3, [r4, #65]	@ 0x41
      SET_BIT(hi2s->ErrorCode, HAL_I2S_ERROR_UDR);
 80035f8:	6c63      	ldr	r3, [r4, #68]	@ 0x44
      HAL_I2S_ErrorCallback(hi2s);
 80035fa:	4620      	mov	r0, r4
      SET_BIT(hi2s->ErrorCode, HAL_I2S_ERROR_UDR);
 80035fc:	f043 0304 	orr.w	r3, r3, #4
 8003600:	6463      	str	r3, [r4, #68]	@ 0x44
}
 8003602:	b006      	add	sp, #24
 8003604:	e8bd 4010 	ldmia.w	sp!, {r4, lr}
      HAL_I2S_ErrorCallback(hi2s);
 8003608:	f7ff be7a 	b.w	8003300 <HAL_I2S_ErrorCallback>
}
 800360c:	b006      	add	sp, #24
 800360e:	bd10      	pop	{r4, pc}
  hi2s->Instance->DR = (*hi2s->pTxBuffPtr++);
 8003610:	6a43      	ldr	r3, [r0, #36]	@ 0x24
 8003612:	1c9a      	adds	r2, r3, #2
 8003614:	881b      	ldrh	r3, [r3, #0]
 8003616:	6242      	str	r2, [r0, #36]	@ 0x24
 8003618:	60cb      	str	r3, [r1, #12]
  hi2s->TxXferCount--;
 800361a:	8d43      	ldrh	r3, [r0, #42]	@ 0x2a
 800361c:	3b01      	subs	r3, #1
 800361e:	b29b      	uxth	r3, r3
 8003620:	8543      	strh	r3, [r0, #42]	@ 0x2a
  if (hi2s->TxXferCount == 0U)
 8003622:	8d43      	ldrh	r3, [r0, #42]	@ 0x2a
 8003624:	b29b      	uxth	r3, r3
 8003626:	2b00      	cmp	r3, #0
 8003628:	d19d      	bne.n	8003566 <HAL_I2SEx_FullDuplex_IRQHandler+0x12a>
    __HAL_I2S_DISABLE_IT(hi2s, (I2S_IT_TXE | I2S_IT_ERR));
 800362a:	684b      	ldr	r3, [r1, #4]
 800362c:	f023 03a0 	bic.w	r3, r3, #160	@ 0xa0
 8003630:	604b      	str	r3, [r1, #4]
    if (hi2s->RxXferCount == 0U)
 8003632:	8e43      	ldrh	r3, [r0, #50]	@ 0x32
 8003634:	b29b      	uxth	r3, r3
 8003636:	2b00      	cmp	r3, #0
 8003638:	d195      	bne.n	8003566 <HAL_I2SEx_FullDuplex_IRQHandler+0x12a>
      hi2s->State = HAL_I2S_STATE_READY;
 800363a:	2301      	movs	r3, #1
 800363c:	f880 3041 	strb.w	r3, [r0, #65]	@ 0x41
      HAL_I2SEx_TxRxCpltCallback(hi2s);
 8003640:	f7ff fefa 	bl	8003438 <HAL_I2SEx_TxRxCpltCallback>
 8003644:	e78f      	b.n	8003566 <HAL_I2SEx_FullDuplex_IRQHandler+0x12a>
  * @retval None
  */
static void I2SEx_RxISR_I2SExt(I2S_HandleTypeDef *hi2s)
{
  /* Read Data from DR register */
  (*hi2s->pRxBuffPtr++) = I2SxEXT(hi2s->Instance)->DR;
 8003646:	6820      	ldr	r0, [r4, #0]
 8003648:	4911      	ldr	r1, [pc, #68]	@ (8003690 <HAL_I2SEx_FullDuplex_IRQHandler+0x254>)
 800364a:	4a12      	ldr	r2, [pc, #72]	@ (8003694 <HAL_I2SEx_FullDuplex_IRQHandler+0x258>)
 800364c:	6ae3      	ldr	r3, [r4, #44]	@ 0x2c
 800364e:	4288      	cmp	r0, r1
 8003650:	bf18      	it	ne
 8003652:	f04f 2240 	movne.w	r2, #1073758208	@ 0x40004000
 8003656:	1c98      	adds	r0, r3, #2
 8003658:	68d1      	ldr	r1, [r2, #12]
 800365a:	62e0      	str	r0, [r4, #44]	@ 0x2c
 800365c:	8019      	strh	r1, [r3, #0]
  hi2s->RxXferCount--;
 800365e:	8e63      	ldrh	r3, [r4, #50]	@ 0x32
 8003660:	3b01      	subs	r3, #1
 8003662:	b29b      	uxth	r3, r3
 8003664:	8663      	strh	r3, [r4, #50]	@ 0x32

  if (hi2s->RxXferCount == 0U)
 8003666:	8e63      	ldrh	r3, [r4, #50]	@ 0x32
 8003668:	b29b      	uxth	r3, r3
 800366a:	2b00      	cmp	r3, #0
 800366c:	d181      	bne.n	8003572 <HAL_I2SEx_FullDuplex_IRQHandler+0x136>
  {
    /* Disable I2Sext RXNE and ERR interrupt */
    __HAL_I2SEXT_DISABLE_IT(hi2s, (I2S_IT_RXNE | I2S_IT_ERR));
 800366e:	6853      	ldr	r3, [r2, #4]
 8003670:	f023 0360 	bic.w	r3, r3, #96	@ 0x60
 8003674:	6053      	str	r3, [r2, #4]

    if (hi2s->TxXferCount == 0U)
 8003676:	8d63      	ldrh	r3, [r4, #42]	@ 0x2a
 8003678:	b29b      	uxth	r3, r3
 800367a:	2b00      	cmp	r3, #0
 800367c:	f47f af79 	bne.w	8003572 <HAL_I2SEx_FullDuplex_IRQHandler+0x136>
    {
      hi2s->State = HAL_I2S_STATE_READY;
 8003680:	2301      	movs	r3, #1
 8003682:	f884 3041 	strb.w	r3, [r4, #65]	@ 0x41
      /* Call user TxRx complete callback */
#if (USE_HAL_I2S_REGISTER_CALLBACKS == 1U)
      hi2s->TxRxCpltCallback(hi2s);
#else
      HAL_I2SEx_TxRxCpltCallback(hi2s);
 8003686:	4620      	mov	r0, r4
 8003688:	f7ff fed6 	bl	8003438 <HAL_I2SEx_TxRxCpltCallback>
 800368c:	e771      	b.n	8003572 <HAL_I2SEx_FullDuplex_IRQHandler+0x136>
 800368e:	bf00      	nop
 8003690:	40003800 	.word	0x40003800
 8003694:	40003400 	.word	0x40003400

08003698 <HAL_RCC_OscConfig>:
__weak HAL_StatusTypeDef HAL_RCC_OscConfig(RCC_OscInitTypeDef  *RCC_OscInitStruct)
{
  uint32_t tickstart;
  uint32_t pll_config;
  /* Check Null pointer */
  if (RCC_OscInitStruct == NULL)
 8003698:	2800      	cmp	r0, #0
 800369a:	f000 81d8 	beq.w	8003a4e <HAL_RCC_OscConfig+0x3b6>
{
 800369e:	e92d 41f0 	stmdb	sp!, {r4, r5, r6, r7, r8, lr}
  }

  /* Check the parameters */
  assert_param(IS_RCC_OSCILLATORTYPE(RCC_OscInitStruct->OscillatorType));
  /*------------------------------- HSE Configuration ------------------------*/
  if (((RCC_OscInitStruct->OscillatorType) & RCC_OSCILLATORTYPE_HSE) == RCC_OSCILLATORTYPE_HSE)
 80036a2:	6803      	ldr	r3, [r0, #0]
 80036a4:	07dd      	lsls	r5, r3, #31
{
 80036a6:	b082      	sub	sp, #8
 80036a8:	4604      	mov	r4, r0
  if (((RCC_OscInitStruct->OscillatorType) & RCC_OSCILLATORTYPE_HSE) == RCC_OSCILLATORTYPE_HSE)
 80036aa:	d52f      	bpl.n	800370c <HAL_RCC_OscConfig+0x74>
  {
    /* Check the parameters */
    assert_param(IS_RCC_HSE(RCC_OscInitStruct->HSEState));
    /* When the HSE is used as system clock or clock source for PLL in these cases HSE will not disabled */
    if ((__HAL_RCC_GET_SYSCLK_SOURCE() == RCC_CFGR_SWS_HSE) || \
 80036ac:	499d      	ldr	r1, [pc, #628]	@ (8003924 <HAL_RCC_OscConfig+0x28c>)
 80036ae:	688a      	ldr	r2, [r1, #8]
 80036b0:	f002 020c 	and.w	r2, r2, #12
 80036b4:	2a04      	cmp	r2, #4
 80036b6:	f000 80ec 	beq.w	8003892 <HAL_RCC_OscConfig+0x1fa>
        ((__HAL_RCC_GET_SYSCLK_SOURCE() == RCC_CFGR_SWS_PLL) && ((RCC->PLLCFGR & RCC_PLLCFGR_PLLSRC) == RCC_PLLCFGR_PLLSRC_HSE)))
 80036ba:	688a      	ldr	r2, [r1, #8]
 80036bc:	f002 020c 	and.w	r2, r2, #12
    if ((__HAL_RCC_GET_SYSCLK_SOURCE() == RCC_CFGR_SWS_HSE) || \
 80036c0:	2a08      	cmp	r2, #8
 80036c2:	f000 80e2 	beq.w	800388a <HAL_RCC_OscConfig+0x1f2>
      }
    }
    else
    {
      /* Set the new HSE configuration ---------------------------------------*/
      __HAL_RCC_HSE_CONFIG(RCC_OscInitStruct->HSEState);
 80036c6:	6863      	ldr	r3, [r4, #4]
 80036c8:	f5b3 3f80 	cmp.w	r3, #65536	@ 0x10000
 80036cc:	f000 80eb 	beq.w	80038a6 <HAL_RCC_OscConfig+0x20e>
 80036d0:	f5b3 2fa0 	cmp.w	r3, #327680	@ 0x50000
 80036d4:	f000 8173 	beq.w	80039be <HAL_RCC_OscConfig+0x326>
 80036d8:	4d92      	ldr	r5, [pc, #584]	@ (8003924 <HAL_RCC_OscConfig+0x28c>)
 80036da:	682a      	ldr	r2, [r5, #0]
 80036dc:	f422 3280 	bic.w	r2, r2, #65536	@ 0x10000
 80036e0:	602a      	str	r2, [r5, #0]
 80036e2:	682a      	ldr	r2, [r5, #0]
 80036e4:	f422 2280 	bic.w	r2, r2, #262144	@ 0x40000
 80036e8:	602a      	str	r2, [r5, #0]

      /* Check the HSE State */
      if ((RCC_OscInitStruct->HSEState) != RCC_HSE_OFF)
 80036ea:	2b00      	cmp	r3, #0
 80036ec:	f040 80e0 	bne.w	80038b0 <HAL_RCC_OscConfig+0x218>
        }
      }
      else
      {
        /* Get Start Tick */
        tickstart = HAL_GetTick();
 80036f0:	f7fe fc78 	bl	8001fe4 <HAL_GetTick>
 80036f4:	4606      	mov	r6, r0

        /* Wait till HSE is bypassed or disabled */
        while (__HAL_RCC_GET_FLAG(RCC_FLAG_HSERDY) != RESET)
 80036f6:	e005      	b.n	8003704 <HAL_RCC_OscConfig+0x6c>
        {
          if ((HAL_GetTick() - tickstart) > HSE_TIMEOUT_VALUE)
 80036f8:	f7fe fc74 	bl	8001fe4 <HAL_GetTick>
 80036fc:	1b80      	subs	r0, r0, r6
 80036fe:	2864      	cmp	r0, #100	@ 0x64
 8003700:	f200 8100 	bhi.w	8003904 <HAL_RCC_OscConfig+0x26c>
        while (__HAL_RCC_GET_FLAG(RCC_FLAG_HSERDY) != RESET)
 8003704:	682b      	ldr	r3, [r5, #0]
 8003706:	039f      	lsls	r7, r3, #14
 8003708:	d4f6      	bmi.n	80036f8 <HAL_RCC_OscConfig+0x60>
        }
      }
    }
  }
  /*----------------------------- HSI Configuration --------------------------*/
  if (((RCC_OscInitStruct->OscillatorType) & RCC_OSCILLATORTYPE_HSI) == RCC_OSCILLATORTYPE_HSI)
 800370a:	6823      	ldr	r3, [r4, #0]
 800370c:	079d      	lsls	r5, r3, #30
 800370e:	d528      	bpl.n	8003762 <HAL_RCC_OscConfig+0xca>
    /* Check the parameters */
    assert_param(IS_RCC_HSI(RCC_OscInitStruct->HSIState));
    assert_param(IS_RCC_CALIBRATION_VALUE(RCC_OscInitStruct->HSICalibrationValue));

    /* Check if HSI is used as system clock or as PLL source when PLL is selected as system clock */
    if ((__HAL_RCC_GET_SYSCLK_SOURCE() == RCC_CFGR_SWS_HSI) || \
 8003710:	4a84      	ldr	r2, [pc, #528]	@ (8003924 <HAL_RCC_OscConfig+0x28c>)
 8003712:	6891      	ldr	r1, [r2, #8]
 8003714:	f011 0f0c 	tst.w	r1, #12
 8003718:	f000 809b 	beq.w	8003852 <HAL_RCC_OscConfig+0x1ba>
        ((__HAL_RCC_GET_SYSCLK_SOURCE() == RCC_CFGR_SWS_PLL) && ((RCC->PLLCFGR & RCC_PLLCFGR_PLLSRC) == RCC_PLLCFGR_PLLSRC_HSI)))
 800371c:	6891      	ldr	r1, [r2, #8]
 800371e:	f001 010c 	and.w	r1, r1, #12
    if ((__HAL_RCC_GET_SYSCLK_SOURCE() == RCC_CFGR_SWS_HSI) || \
 8003722:	2908      	cmp	r1, #8
 8003724:	f000 8091 	beq.w	800384a <HAL_RCC_OscConfig+0x1b2>
      }
    }
    else
    {
      /* Check the HSI State */
      if ((RCC_OscInitStruct->HSIState) != RCC_HSI_OFF)
 8003728:	68e3      	ldr	r3, [r4, #12]
 800372a:	2b00      	cmp	r3, #0
 800372c:	f000 810c 	beq.w	8003948 <HAL_RCC_OscConfig+0x2b0>
      {
        /* Enable the Internal High Speed oscillator (HSI). */
        __HAL_RCC_HSI_ENABLE();
 8003730:	4b7d      	ldr	r3, [pc, #500]	@ (8003928 <HAL_RCC_OscConfig+0x290>)

        /* Get Start Tick*/
        tickstart = HAL_GetTick();

        /* Wait till HSI is ready */
        while (__HAL_RCC_GET_FLAG(RCC_FLAG_HSIRDY) == RESET)
 8003732:	4e7c      	ldr	r6, [pc, #496]	@ (8003924 <HAL_RCC_OscConfig+0x28c>)
        __HAL_RCC_HSI_ENABLE();
 8003734:	2201      	movs	r2, #1
 8003736:	601a      	str	r2, [r3, #0]
        tickstart = HAL_GetTick();
 8003738:	f7fe fc54 	bl	8001fe4 <HAL_GetTick>
 800373c:	4605      	mov	r5, r0
        while (__HAL_RCC_GET_FLAG(RCC_FLAG_HSIRDY) == RESET)
 800373e:	e005      	b.n	800374c <HAL_RCC_OscConfig+0xb4>
        {
          if ((HAL_GetTick() - tickstart) > HSI_TIMEOUT_VALUE)
 8003740:	f7fe fc50 	bl	8001fe4 <HAL_GetTick>
 8003744:	1b40      	subs	r0, r0, r5
 8003746:	2802      	cmp	r0, #2
 8003748:	f200 80dc 	bhi.w	8003904 <HAL_RCC_OscConfig+0x26c>
        while (__HAL_RCC_GET_FLAG(RCC_FLAG_HSIRDY) == RESET)
 800374c:	6833      	ldr	r3, [r6, #0]
 800374e:	079f      	lsls	r7, r3, #30
 8003750:	d5f6      	bpl.n	8003740 <HAL_RCC_OscConfig+0xa8>
            return HAL_TIMEOUT;
          }
        }

        /* Adjusts the Internal High Speed oscillator (HSI) calibration value. */
        __HAL_RCC_HSI_CALIBRATIONVALUE_ADJUST(RCC_OscInitStruct->HSICalibrationValue);
 8003752:	6833      	ldr	r3, [r6, #0]
 8003754:	6922      	ldr	r2, [r4, #16]
 8003756:	f023 03f8 	bic.w	r3, r3, #248	@ 0xf8
 800375a:	ea43 03c2 	orr.w	r3, r3, r2, lsl #3
 800375e:	6033      	str	r3, [r6, #0]
        }
      }
    }
  }
  /*------------------------------ LSI Configuration -------------------------*/
  if (((RCC_OscInitStruct->OscillatorType) & RCC_OSCILLATORTYPE_LSI) == RCC_OSCILLATORTYPE_LSI)
 8003760:	6823      	ldr	r3, [r4, #0]
 8003762:	071a      	lsls	r2, r3, #28
 8003764:	d45c      	bmi.n	8003820 <HAL_RCC_OscConfig+0x188>
        }
      }
    }
  }
  /*------------------------------ LSE Configuration -------------------------*/
  if (((RCC_OscInitStruct->OscillatorType) & RCC_OSCILLATORTYPE_LSE) == RCC_OSCILLATORTYPE_LSE)
 8003766:	075d      	lsls	r5, r3, #29
 8003768:	d53a      	bpl.n	80037e0 <HAL_RCC_OscConfig+0x148>
    /* Check the parameters */
    assert_param(IS_RCC_LSE(RCC_OscInitStruct->LSEState));

    /* Update LSE configuration in Backup Domain control register    */
    /* Requires to enable write access to Backup Domain of necessary */
    if (__HAL_RCC_PWR_IS_CLK_DISABLED())
 800376a:	4a6e      	ldr	r2, [pc, #440]	@ (8003924 <HAL_RCC_OscConfig+0x28c>)
 800376c:	6c13      	ldr	r3, [r2, #64]	@ 0x40
 800376e:	f013 5380 	ands.w	r3, r3, #268435456	@ 0x10000000
 8003772:	f040 8088 	bne.w	8003886 <HAL_RCC_OscConfig+0x1ee>
    {
      __HAL_RCC_PWR_CLK_ENABLE();
 8003776:	9301      	str	r3, [sp, #4]
 8003778:	6c13      	ldr	r3, [r2, #64]	@ 0x40
 800377a:	f043 5380 	orr.w	r3, r3, #268435456	@ 0x10000000
 800377e:	6413      	str	r3, [r2, #64]	@ 0x40
 8003780:	6c13      	ldr	r3, [r2, #64]	@ 0x40
 8003782:	f003 5380 	and.w	r3, r3, #268435456	@ 0x10000000
 8003786:	9301      	str	r3, [sp, #4]
 8003788:	9b01      	ldr	r3, [sp, #4]
      pwrclkchanged = SET;
 800378a:	2501      	movs	r5, #1
    }

    if (HAL_IS_BIT_CLR(PWR->CR, PWR_CR_DBP))
 800378c:	4e67      	ldr	r6, [pc, #412]	@ (800392c <HAL_RCC_OscConfig+0x294>)
 800378e:	6833      	ldr	r3, [r6, #0]
 8003790:	05d8      	lsls	r0, r3, #23
 8003792:	f140 80a7 	bpl.w	80038e4 <HAL_RCC_OscConfig+0x24c>
        }
      }
    }

    /* Set the new LSE configuration -----------------------------------------*/
    __HAL_RCC_LSE_CONFIG(RCC_OscInitStruct->LSEState);
 8003796:	68a3      	ldr	r3, [r4, #8]
 8003798:	2b01      	cmp	r3, #1
 800379a:	f000 80b7 	beq.w	800390c <HAL_RCC_OscConfig+0x274>
 800379e:	2b05      	cmp	r3, #5
 80037a0:	f000 811d 	beq.w	80039de <HAL_RCC_OscConfig+0x346>
 80037a4:	4e5f      	ldr	r6, [pc, #380]	@ (8003924 <HAL_RCC_OscConfig+0x28c>)
 80037a6:	6f32      	ldr	r2, [r6, #112]	@ 0x70
 80037a8:	f022 0201 	bic.w	r2, r2, #1
 80037ac:	6732      	str	r2, [r6, #112]	@ 0x70
 80037ae:	6f32      	ldr	r2, [r6, #112]	@ 0x70
 80037b0:	f022 0204 	bic.w	r2, r2, #4
 80037b4:	6732      	str	r2, [r6, #112]	@ 0x70
    /* Check the LSE State */
    if ((RCC_OscInitStruct->LSEState) != RCC_LSE_OFF)
 80037b6:	2b00      	cmp	r3, #0
 80037b8:	f040 80ad 	bne.w	8003916 <HAL_RCC_OscConfig+0x27e>
      }
    }
    else
    {
      /* Get Start Tick */
      tickstart = HAL_GetTick();
 80037bc:	f7fe fc12 	bl	8001fe4 <HAL_GetTick>

      /* Wait till LSE is ready */
      while (__HAL_RCC_GET_FLAG(RCC_FLAG_LSERDY) != RESET)
      {
        if ((HAL_GetTick() - tickstart) > RCC_LSE_TIMEOUT_VALUE)
 80037c0:	f241 3888 	movw	r8, #5000	@ 0x1388
      tickstart = HAL_GetTick();
 80037c4:	4607      	mov	r7, r0
      while (__HAL_RCC_GET_FLAG(RCC_FLAG_LSERDY) != RESET)
 80037c6:	e005      	b.n	80037d4 <HAL_RCC_OscConfig+0x13c>
        if ((HAL_GetTick() - tickstart) > RCC_LSE_TIMEOUT_VALUE)
 80037c8:	f7fe fc0c 	bl	8001fe4 <HAL_GetTick>
 80037cc:	1bc0      	subs	r0, r0, r7
 80037ce:	4540      	cmp	r0, r8
 80037d0:	f200 8098 	bhi.w	8003904 <HAL_RCC_OscConfig+0x26c>
      while (__HAL_RCC_GET_FLAG(RCC_FLAG_LSERDY) != RESET)
 80037d4:	6f33      	ldr	r3, [r6, #112]	@ 0x70
 80037d6:	079b      	lsls	r3, r3, #30
 80037d8:	d4f6      	bmi.n	80037c8 <HAL_RCC_OscConfig+0x130>
        }
      }
    }

    /* Restore clock configuration if changed */
    if (pwrclkchanged == SET)
 80037da:	2d00      	cmp	r5, #0
 80037dc:	f040 80f9 	bne.w	80039d2 <HAL_RCC_OscConfig+0x33a>
    }
  }
  /*-------------------------------- PLL Configuration -----------------------*/
  /* Check the parameters */
  assert_param(IS_RCC_PLL(RCC_OscInitStruct->PLL.PLLState));
  if ((RCC_OscInitStruct->PLL.PLLState) != RCC_PLL_NONE)
 80037e0:	69a3      	ldr	r3, [r4, #24]
 80037e2:	b1cb      	cbz	r3, 8003818 <HAL_RCC_OscConfig+0x180>
  {
    /* Check if the PLL is used as system clock or not */
    if (__HAL_RCC_GET_SYSCLK_SOURCE() != RCC_CFGR_SWS_PLL)
 80037e4:	4d4f      	ldr	r5, [pc, #316]	@ (8003924 <HAL_RCC_OscConfig+0x28c>)
 80037e6:	68aa      	ldr	r2, [r5, #8]
 80037e8:	f002 020c 	and.w	r2, r2, #12
 80037ec:	2a08      	cmp	r2, #8
 80037ee:	f000 80bc 	beq.w	800396a <HAL_RCC_OscConfig+0x2d2>
    {
      if ((RCC_OscInitStruct->PLL.PLLState) == RCC_PLL_ON)
 80037f2:	2b02      	cmp	r3, #2
        assert_param(IS_RCC_PLLN_VALUE(RCC_OscInitStruct->PLL.PLLN));
        assert_param(IS_RCC_PLLP_VALUE(RCC_OscInitStruct->PLL.PLLP));
        assert_param(IS_RCC_PLLQ_VALUE(RCC_OscInitStruct->PLL.PLLQ));

        /* Disable the main PLL. */
        __HAL_RCC_PLL_DISABLE();
 80037f4:	4b4c      	ldr	r3, [pc, #304]	@ (8003928 <HAL_RCC_OscConfig+0x290>)
 80037f6:	f04f 0200 	mov.w	r2, #0
 80037fa:	661a      	str	r2, [r3, #96]	@ 0x60
      if ((RCC_OscInitStruct->PLL.PLLState) == RCC_PLL_ON)
 80037fc:	f000 80f9 	beq.w	80039f2 <HAL_RCC_OscConfig+0x35a>
      {
        /* Disable the main PLL. */
        __HAL_RCC_PLL_DISABLE();

        /* Get Start Tick */
        tickstart = HAL_GetTick();
 8003800:	f7fe fbf0 	bl	8001fe4 <HAL_GetTick>
 8003804:	4604      	mov	r4, r0

        /* Wait till PLL is disabled */
        while (__HAL_RCC_GET_FLAG(RCC_FLAG_PLLRDY) != RESET)
 8003806:	e004      	b.n	8003812 <HAL_RCC_OscConfig+0x17a>
        {
          if ((HAL_GetTick() - tickstart) > PLL_TIMEOUT_VALUE)
 8003808:	f7fe fbec 	bl	8001fe4 <HAL_GetTick>
 800380c:	1b00      	subs	r0, r0, r4
 800380e:	2802      	cmp	r0, #2
 8003810:	d878      	bhi.n	8003904 <HAL_RCC_OscConfig+0x26c>
        while (__HAL_RCC_GET_FLAG(RCC_FLAG_PLLRDY) != RESET)
 8003812:	682b      	ldr	r3, [r5, #0]
 8003814:	019b      	lsls	r3, r3, #6
 8003816:	d4f7      	bmi.n	8003808 <HAL_RCC_OscConfig+0x170>
          return HAL_ERROR;
        }
      }
    }
  }
  return HAL_OK;
 8003818:	2000      	movs	r0, #0
}
 800381a:	b002      	add	sp, #8
 800381c:	e8bd 81f0 	ldmia.w	sp!, {r4, r5, r6, r7, r8, pc}
    if ((RCC_OscInitStruct->LSIState) != RCC_LSI_OFF)
 8003820:	6963      	ldr	r3, [r4, #20]
 8003822:	b1fb      	cbz	r3, 8003864 <HAL_RCC_OscConfig+0x1cc>
      __HAL_RCC_LSI_ENABLE();
 8003824:	4b40      	ldr	r3, [pc, #256]	@ (8003928 <HAL_RCC_OscConfig+0x290>)
      while (__HAL_RCC_GET_FLAG(RCC_FLAG_LSIRDY) == RESET)
 8003826:	4e3f      	ldr	r6, [pc, #252]	@ (8003924 <HAL_RCC_OscConfig+0x28c>)
      __HAL_RCC_LSI_ENABLE();
 8003828:	2201      	movs	r2, #1
 800382a:	f8c3 2e80 	str.w	r2, [r3, #3712]	@ 0xe80
      tickstart = HAL_GetTick();
 800382e:	f7fe fbd9 	bl	8001fe4 <HAL_GetTick>
 8003832:	4605      	mov	r5, r0
      while (__HAL_RCC_GET_FLAG(RCC_FLAG_LSIRDY) == RESET)
 8003834:	e004      	b.n	8003840 <HAL_RCC_OscConfig+0x1a8>
        if ((HAL_GetTick() - tickstart) > LSI_TIMEOUT_VALUE)
 8003836:	f7fe fbd5 	bl	8001fe4 <HAL_GetTick>
 800383a:	1b40      	subs	r0, r0, r5
 800383c:	2802      	cmp	r0, #2
 800383e:	d861      	bhi.n	8003904 <HAL_RCC_OscConfig+0x26c>
      while (__HAL_RCC_GET_FLAG(RCC_FLAG_LSIRDY) == RESET)
 8003840:	6f73      	ldr	r3, [r6, #116]	@ 0x74
 8003842:	079b      	lsls	r3, r3, #30
 8003844:	d5f7      	bpl.n	8003836 <HAL_RCC_OscConfig+0x19e>
  if (((RCC_OscInitStruct->OscillatorType) & RCC_OSCILLATORTYPE_LSE) == RCC_OSCILLATORTYPE_LSE)
 8003846:	6823      	ldr	r3, [r4, #0]
 8003848:	e78d      	b.n	8003766 <HAL_RCC_OscConfig+0xce>
        ((__HAL_RCC_GET_SYSCLK_SOURCE() == RCC_CFGR_SWS_PLL) && ((RCC->PLLCFGR & RCC_PLLCFGR_PLLSRC) == RCC_PLLCFGR_PLLSRC_HSI)))
 800384a:	6852      	ldr	r2, [r2, #4]
 800384c:	0251      	lsls	r1, r2, #9
 800384e:	f53f af6b 	bmi.w	8003728 <HAL_RCC_OscConfig+0x90>
      if ((__HAL_RCC_GET_FLAG(RCC_FLAG_HSIRDY) != RESET) && (RCC_OscInitStruct->HSIState != RCC_HSI_ON))
 8003852:	4a34      	ldr	r2, [pc, #208]	@ (8003924 <HAL_RCC_OscConfig+0x28c>)
 8003854:	6812      	ldr	r2, [r2, #0]
 8003856:	0792      	lsls	r2, r2, #30
 8003858:	d538      	bpl.n	80038cc <HAL_RCC_OscConfig+0x234>
 800385a:	68e2      	ldr	r2, [r4, #12]
 800385c:	2a01      	cmp	r2, #1
 800385e:	d035      	beq.n	80038cc <HAL_RCC_OscConfig+0x234>
    return HAL_ERROR;
 8003860:	2001      	movs	r0, #1
 8003862:	e7da      	b.n	800381a <HAL_RCC_OscConfig+0x182>
      __HAL_RCC_LSI_DISABLE();
 8003864:	4a30      	ldr	r2, [pc, #192]	@ (8003928 <HAL_RCC_OscConfig+0x290>)
      while (__HAL_RCC_GET_FLAG(RCC_FLAG_LSIRDY) != RESET)
 8003866:	4e2f      	ldr	r6, [pc, #188]	@ (8003924 <HAL_RCC_OscConfig+0x28c>)
      __HAL_RCC_LSI_DISABLE();
 8003868:	f8c2 3e80 	str.w	r3, [r2, #3712]	@ 0xe80
      tickstart = HAL_GetTick();
 800386c:	f7fe fbba 	bl	8001fe4 <HAL_GetTick>
 8003870:	4605      	mov	r5, r0
      while (__HAL_RCC_GET_FLAG(RCC_FLAG_LSIRDY) != RESET)
 8003872:	e004      	b.n	800387e <HAL_RCC_OscConfig+0x1e6>
        if ((HAL_GetTick() - tickstart) > LSI_TIMEOUT_VALUE)
 8003874:	f7fe fbb6 	bl	8001fe4 <HAL_GetTick>
 8003878:	1b40      	subs	r0, r0, r5
 800387a:	2802      	cmp	r0, #2
 800387c:	d842      	bhi.n	8003904 <HAL_RCC_OscConfig+0x26c>
      while (__HAL_RCC_GET_FLAG(RCC_FLAG_LSIRDY) != RESET)
 800387e:	6f73      	ldr	r3, [r6, #116]	@ 0x74
 8003880:	079f      	lsls	r7, r3, #30
 8003882:	d4f7      	bmi.n	8003874 <HAL_RCC_OscConfig+0x1dc>
 8003884:	e7df      	b.n	8003846 <HAL_RCC_OscConfig+0x1ae>
    FlagStatus       pwrclkchanged = RESET;
 8003886:	2500      	movs	r5, #0
 8003888:	e780      	b.n	800378c <HAL_RCC_OscConfig+0xf4>
        ((__HAL_RCC_GET_SYSCLK_SOURCE() == RCC_CFGR_SWS_PLL) && ((RCC->PLLCFGR & RCC_PLLCFGR_PLLSRC) == RCC_PLLCFGR_PLLSRC_HSE)))
 800388a:	684a      	ldr	r2, [r1, #4]
 800388c:	0251      	lsls	r1, r2, #9
 800388e:	f57f af1a 	bpl.w	80036c6 <HAL_RCC_OscConfig+0x2e>
      if ((__HAL_RCC_GET_FLAG(RCC_FLAG_HSERDY) != RESET) && (RCC_OscInitStruct->HSEState == RCC_HSE_OFF))
 8003892:	4a24      	ldr	r2, [pc, #144]	@ (8003924 <HAL_RCC_OscConfig+0x28c>)
 8003894:	6812      	ldr	r2, [r2, #0]
 8003896:	0392      	lsls	r2, r2, #14
 8003898:	f57f af38 	bpl.w	800370c <HAL_RCC_OscConfig+0x74>
 800389c:	6862      	ldr	r2, [r4, #4]
 800389e:	2a00      	cmp	r2, #0
 80038a0:	f47f af34 	bne.w	800370c <HAL_RCC_OscConfig+0x74>
 80038a4:	e7dc      	b.n	8003860 <HAL_RCC_OscConfig+0x1c8>
      __HAL_RCC_HSE_CONFIG(RCC_OscInitStruct->HSEState);
 80038a6:	4a1f      	ldr	r2, [pc, #124]	@ (8003924 <HAL_RCC_OscConfig+0x28c>)
 80038a8:	6813      	ldr	r3, [r2, #0]
 80038aa:	f443 3380 	orr.w	r3, r3, #65536	@ 0x10000
 80038ae:	6013      	str	r3, [r2, #0]
        tickstart = HAL_GetTick();
 80038b0:	f7fe fb98 	bl	8001fe4 <HAL_GetTick>
        while (__HAL_RCC_GET_FLAG(RCC_FLAG_HSERDY) == RESET)
 80038b4:	4e1b      	ldr	r6, [pc, #108]	@ (8003924 <HAL_RCC_OscConfig+0x28c>)
        tickstart = HAL_GetTick();
 80038b6:	4605      	mov	r5, r0
        while (__HAL_RCC_GET_FLAG(RCC_FLAG_HSERDY) == RESET)
 80038b8:	e004      	b.n	80038c4 <HAL_RCC_OscConfig+0x22c>
          if ((HAL_GetTick() - tickstart) > HSE_TIMEOUT_VALUE)
 80038ba:	f7fe fb93 	bl	8001fe4 <HAL_GetTick>
 80038be:	1b40      	subs	r0, r0, r5
 80038c0:	2864      	cmp	r0, #100	@ 0x64
 80038c2:	d81f      	bhi.n	8003904 <HAL_RCC_OscConfig+0x26c>
        while (__HAL_RCC_GET_FLAG(RCC_FLAG_HSERDY) == RESET)
 80038c4:	6833      	ldr	r3, [r6, #0]
 80038c6:	039b      	lsls	r3, r3, #14
 80038c8:	d5f7      	bpl.n	80038ba <HAL_RCC_OscConfig+0x222>
 80038ca:	e71e      	b.n	800370a <HAL_RCC_OscConfig+0x72>
        __HAL_RCC_HSI_CALIBRATIONVALUE_ADJUST(RCC_OscInitStruct->HSICalibrationValue);
 80038cc:	4915      	ldr	r1, [pc, #84]	@ (8003924 <HAL_RCC_OscConfig+0x28c>)
 80038ce:	6920      	ldr	r0, [r4, #16]
 80038d0:	680a      	ldr	r2, [r1, #0]
 80038d2:	f022 02f8 	bic.w	r2, r2, #248	@ 0xf8
 80038d6:	ea42 02c0 	orr.w	r2, r2, r0, lsl #3
 80038da:	600a      	str	r2, [r1, #0]
  if (((RCC_OscInitStruct->OscillatorType) & RCC_OSCILLATORTYPE_LSI) == RCC_OSCILLATORTYPE_LSI)
 80038dc:	071a      	lsls	r2, r3, #28
 80038de:	f57f af42 	bpl.w	8003766 <HAL_RCC_OscConfig+0xce>
 80038e2:	e79d      	b.n	8003820 <HAL_RCC_OscConfig+0x188>
      SET_BIT(PWR->CR, PWR_CR_DBP);
 80038e4:	6833      	ldr	r3, [r6, #0]
 80038e6:	f443 7380 	orr.w	r3, r3, #256	@ 0x100
 80038ea:	6033      	str	r3, [r6, #0]
      tickstart = HAL_GetTick();
 80038ec:	f7fe fb7a 	bl	8001fe4 <HAL_GetTick>
 80038f0:	4607      	mov	r7, r0
      while (HAL_IS_BIT_CLR(PWR->CR, PWR_CR_DBP))
 80038f2:	6833      	ldr	r3, [r6, #0]
 80038f4:	05d9      	lsls	r1, r3, #23
 80038f6:	f53f af4e 	bmi.w	8003796 <HAL_RCC_OscConfig+0xfe>
        if ((HAL_GetTick() - tickstart) > RCC_DBP_TIMEOUT_VALUE)
 80038fa:	f7fe fb73 	bl	8001fe4 <HAL_GetTick>
 80038fe:	1bc0      	subs	r0, r0, r7
 8003900:	2802      	cmp	r0, #2
 8003902:	d9f6      	bls.n	80038f2 <HAL_RCC_OscConfig+0x25a>
            return HAL_TIMEOUT;
 8003904:	2003      	movs	r0, #3
}
 8003906:	b002      	add	sp, #8
 8003908:	e8bd 81f0 	ldmia.w	sp!, {r4, r5, r6, r7, r8, pc}
    __HAL_RCC_LSE_CONFIG(RCC_OscInitStruct->LSEState);
 800390c:	4a05      	ldr	r2, [pc, #20]	@ (8003924 <HAL_RCC_OscConfig+0x28c>)
 800390e:	6f13      	ldr	r3, [r2, #112]	@ 0x70
 8003910:	f043 0301 	orr.w	r3, r3, #1
 8003914:	6713      	str	r3, [r2, #112]	@ 0x70
      tickstart = HAL_GetTick();
 8003916:	f7fe fb65 	bl	8001fe4 <HAL_GetTick>
      while (__HAL_RCC_GET_FLAG(RCC_FLAG_LSERDY) == RESET)
 800391a:	4f02      	ldr	r7, [pc, #8]	@ (8003924 <HAL_RCC_OscConfig+0x28c>)
      tickstart = HAL_GetTick();
 800391c:	4606      	mov	r6, r0
        if ((HAL_GetTick() - tickstart) > RCC_LSE_TIMEOUT_VALUE)
 800391e:	f241 3888 	movw	r8, #5000	@ 0x1388
      while (__HAL_RCC_GET_FLAG(RCC_FLAG_LSERDY) == RESET)
 8003922:	e00a      	b.n	800393a <HAL_RCC_OscConfig+0x2a2>
 8003924:	40023800 	.word	0x40023800
 8003928:	42470000 	.word	0x42470000
 800392c:	40007000 	.word	0x40007000
        if ((HAL_GetTick() - tickstart) > RCC_LSE_TIMEOUT_VALUE)
 8003930:	f7fe fb58 	bl	8001fe4 <HAL_GetTick>
 8003934:	1b80      	subs	r0, r0, r6
 8003936:	4540      	cmp	r0, r8
 8003938:	d8e4      	bhi.n	8003904 <HAL_RCC_OscConfig+0x26c>
      while (__HAL_RCC_GET_FLAG(RCC_FLAG_LSERDY) == RESET)
 800393a:	6f3b      	ldr	r3, [r7, #112]	@ 0x70
 800393c:	079a      	lsls	r2, r3, #30
 800393e:	d5f7      	bpl.n	8003930 <HAL_RCC_OscConfig+0x298>
    if (pwrclkchanged == SET)
 8003940:	2d00      	cmp	r5, #0
 8003942:	f43f af4d 	beq.w	80037e0 <HAL_RCC_OscConfig+0x148>
 8003946:	e044      	b.n	80039d2 <HAL_RCC_OscConfig+0x33a>
        __HAL_RCC_HSI_DISABLE();
 8003948:	4a42      	ldr	r2, [pc, #264]	@ (8003a54 <HAL_RCC_OscConfig+0x3bc>)
        while (__HAL_RCC_GET_FLAG(RCC_FLAG_HSIRDY) != RESET)
 800394a:	4e43      	ldr	r6, [pc, #268]	@ (8003a58 <HAL_RCC_OscConfig+0x3c0>)
        __HAL_RCC_HSI_DISABLE();
 800394c:	6013      	str	r3, [r2, #0]
        tickstart = HAL_GetTick();
 800394e:	f7fe fb49 	bl	8001fe4 <HAL_GetTick>
 8003952:	4605      	mov	r5, r0
        while (__HAL_RCC_GET_FLAG(RCC_FLAG_HSIRDY) != RESET)
 8003954:	e004      	b.n	8003960 <HAL_RCC_OscConfig+0x2c8>
          if ((HAL_GetTick() - tickstart) > HSI_TIMEOUT_VALUE)
 8003956:	f7fe fb45 	bl	8001fe4 <HAL_GetTick>
 800395a:	1b40      	subs	r0, r0, r5
 800395c:	2802      	cmp	r0, #2
 800395e:	d8d1      	bhi.n	8003904 <HAL_RCC_OscConfig+0x26c>
        while (__HAL_RCC_GET_FLAG(RCC_FLAG_HSIRDY) != RESET)
 8003960:	6833      	ldr	r3, [r6, #0]
 8003962:	0799      	lsls	r1, r3, #30
 8003964:	d4f7      	bmi.n	8003956 <HAL_RCC_OscConfig+0x2be>
  if (((RCC_OscInitStruct->OscillatorType) & RCC_OSCILLATORTYPE_LSI) == RCC_OSCILLATORTYPE_LSI)
 8003966:	6823      	ldr	r3, [r4, #0]
 8003968:	e6fb      	b.n	8003762 <HAL_RCC_OscConfig+0xca>
      if ((RCC_OscInitStruct->PLL.PLLState) == RCC_PLL_OFF)
 800396a:	2b01      	cmp	r3, #1
 800396c:	f43f af78 	beq.w	8003860 <HAL_RCC_OscConfig+0x1c8>
        pll_config = RCC->PLLCFGR;
 8003970:	686b      	ldr	r3, [r5, #4]
        if (((RCC_OscInitStruct->PLL.PLLState) == RCC_PLL_OFF) ||
 8003972:	69e2      	ldr	r2, [r4, #28]
            (READ_BIT(pll_config, RCC_PLLCFGR_PLLSRC) != RCC_OscInitStruct->PLL.PLLSource) ||
 8003974:	f403 0180 	and.w	r1, r3, #4194304	@ 0x400000
        if (((RCC_OscInitStruct->PLL.PLLState) == RCC_PLL_OFF) ||
 8003978:	4291      	cmp	r1, r2
 800397a:	f47f af71 	bne.w	8003860 <HAL_RCC_OscConfig+0x1c8>
            (READ_BIT(pll_config, RCC_PLLCFGR_PLLSRC) != RCC_OscInitStruct->PLL.PLLSource) ||
 800397e:	6a22      	ldr	r2, [r4, #32]
            (READ_BIT(pll_config, RCC_PLLCFGR_PLLM) != (RCC_OscInitStruct->PLL.PLLM) << RCC_PLLCFGR_PLLM_Pos) ||
 8003980:	f003 013f 	and.w	r1, r3, #63	@ 0x3f
            (READ_BIT(pll_config, RCC_PLLCFGR_PLLSRC) != RCC_OscInitStruct->PLL.PLLSource) ||
 8003984:	4291      	cmp	r1, r2
 8003986:	f47f af6b 	bne.w	8003860 <HAL_RCC_OscConfig+0x1c8>
            (READ_BIT(pll_config, RCC_PLLCFGR_PLLN) != (RCC_OscInitStruct->PLL.PLLN) << RCC_PLLCFGR_PLLN_Pos) ||
 800398a:	6a61      	ldr	r1, [r4, #36]	@ 0x24
 800398c:	f647 72c0 	movw	r2, #32704	@ 0x7fc0
 8003990:	401a      	ands	r2, r3
            (READ_BIT(pll_config, RCC_PLLCFGR_PLLM) != (RCC_OscInitStruct->PLL.PLLM) << RCC_PLLCFGR_PLLM_Pos) ||
 8003992:	ebb2 1f81 	cmp.w	r2, r1, lsl #6
 8003996:	f47f af63 	bne.w	8003860 <HAL_RCC_OscConfig+0x1c8>
            (READ_BIT(pll_config, RCC_PLLCFGR_PLLP) != (((RCC_OscInitStruct->PLL.PLLP >> 1U) - 1U)) << RCC_PLLCFGR_PLLP_Pos) ||
 800399a:	6aa2      	ldr	r2, [r4, #40]	@ 0x28
 800399c:	0852      	lsrs	r2, r2, #1
 800399e:	f403 3140 	and.w	r1, r3, #196608	@ 0x30000
 80039a2:	3a01      	subs	r2, #1
            (READ_BIT(pll_config, RCC_PLLCFGR_PLLN) != (RCC_OscInitStruct->PLL.PLLN) << RCC_PLLCFGR_PLLN_Pos) ||
 80039a4:	ebb1 4f02 	cmp.w	r1, r2, lsl #16
 80039a8:	f47f af5a 	bne.w	8003860 <HAL_RCC_OscConfig+0x1c8>
            (READ_BIT(pll_config, RCC_PLLCFGR_PLLQ) != (RCC_OscInitStruct->PLL.PLLQ << RCC_PLLCFGR_PLLQ_Pos)))
 80039ac:	6ae2      	ldr	r2, [r4, #44]	@ 0x2c
 80039ae:	f003 6370 	and.w	r3, r3, #251658240	@ 0xf000000
            (READ_BIT(pll_config, RCC_PLLCFGR_PLLP) != (((RCC_OscInitStruct->PLL.PLLP >> 1U) - 1U)) << RCC_PLLCFGR_PLLP_Pos) ||
 80039b2:	ebb3 6f02 	cmp.w	r3, r2, lsl #24
 80039b6:	bf14      	ite	ne
 80039b8:	2001      	movne	r0, #1
 80039ba:	2000      	moveq	r0, #0
 80039bc:	e72d      	b.n	800381a <HAL_RCC_OscConfig+0x182>
      __HAL_RCC_HSE_CONFIG(RCC_OscInitStruct->HSEState);
 80039be:	4b26      	ldr	r3, [pc, #152]	@ (8003a58 <HAL_RCC_OscConfig+0x3c0>)
 80039c0:	681a      	ldr	r2, [r3, #0]
 80039c2:	f442 2280 	orr.w	r2, r2, #262144	@ 0x40000
 80039c6:	601a      	str	r2, [r3, #0]
 80039c8:	681a      	ldr	r2, [r3, #0]
 80039ca:	f442 3280 	orr.w	r2, r2, #65536	@ 0x10000
 80039ce:	601a      	str	r2, [r3, #0]
      if ((RCC_OscInitStruct->HSEState) != RCC_HSE_OFF)
 80039d0:	e76e      	b.n	80038b0 <HAL_RCC_OscConfig+0x218>
      __HAL_RCC_PWR_CLK_DISABLE();
 80039d2:	4a21      	ldr	r2, [pc, #132]	@ (8003a58 <HAL_RCC_OscConfig+0x3c0>)
 80039d4:	6c13      	ldr	r3, [r2, #64]	@ 0x40
 80039d6:	f023 5380 	bic.w	r3, r3, #268435456	@ 0x10000000
 80039da:	6413      	str	r3, [r2, #64]	@ 0x40
 80039dc:	e700      	b.n	80037e0 <HAL_RCC_OscConfig+0x148>
    __HAL_RCC_LSE_CONFIG(RCC_OscInitStruct->LSEState);
 80039de:	4b1e      	ldr	r3, [pc, #120]	@ (8003a58 <HAL_RCC_OscConfig+0x3c0>)
 80039e0:	6f1a      	ldr	r2, [r3, #112]	@ 0x70
 80039e2:	f042 0204 	orr.w	r2, r2, #4
 80039e6:	671a      	str	r2, [r3, #112]	@ 0x70
 80039e8:	6f1a      	ldr	r2, [r3, #112]	@ 0x70
 80039ea:	f042 0201 	orr.w	r2, r2, #1
 80039ee:	671a      	str	r2, [r3, #112]	@ 0x70
    if ((RCC_OscInitStruct->LSEState) != RCC_LSE_OFF)
 80039f0:	e791      	b.n	8003916 <HAL_RCC_OscConfig+0x27e>
        tickstart = HAL_GetTick();
 80039f2:	f7fe faf7 	bl	8001fe4 <HAL_GetTick>
 80039f6:	4606      	mov	r6, r0
        while (__HAL_RCC_GET_FLAG(RCC_FLAG_PLLRDY) != RESET)
 80039f8:	e005      	b.n	8003a06 <HAL_RCC_OscConfig+0x36e>
          if ((HAL_GetTick() - tickstart) > PLL_TIMEOUT_VALUE)
 80039fa:	f7fe faf3 	bl	8001fe4 <HAL_GetTick>
 80039fe:	1b80      	subs	r0, r0, r6
 8003a00:	2802      	cmp	r0, #2
 8003a02:	f63f af7f 	bhi.w	8003904 <HAL_RCC_OscConfig+0x26c>
        while (__HAL_RCC_GET_FLAG(RCC_FLAG_PLLRDY) != RESET)
 8003a06:	682b      	ldr	r3, [r5, #0]
 8003a08:	0199      	lsls	r1, r3, #6
 8003a0a:	d4f6      	bmi.n	80039fa <HAL_RCC_OscConfig+0x362>
        WRITE_REG(RCC->PLLCFGR, (RCC_OscInitStruct->PLL.PLLSource                                            | \
 8003a0c:	e9d4 3107 	ldrd	r3, r1, [r4, #28]
 8003a10:	6a62      	ldr	r2, [r4, #36]	@ 0x24
 8003a12:	430b      	orrs	r3, r1
 8003a14:	ea43 1382 	orr.w	r3, r3, r2, lsl #6
 8003a18:	e9d4 210a 	ldrd	r2, r1, [r4, #40]	@ 0x28
 8003a1c:	0852      	lsrs	r2, r2, #1
 8003a1e:	ea43 6301 	orr.w	r3, r3, r1, lsl #24
 8003a22:	3a01      	subs	r2, #1
        __HAL_RCC_PLL_ENABLE();
 8003a24:	490b      	ldr	r1, [pc, #44]	@ (8003a54 <HAL_RCC_OscConfig+0x3bc>)
        WRITE_REG(RCC->PLLCFGR, (RCC_OscInitStruct->PLL.PLLSource                                            | \
 8003a26:	ea43 4302 	orr.w	r3, r3, r2, lsl #16
        __HAL_RCC_PLL_ENABLE();
 8003a2a:	2201      	movs	r2, #1
        WRITE_REG(RCC->PLLCFGR, (RCC_OscInitStruct->PLL.PLLSource                                            | \
 8003a2c:	606b      	str	r3, [r5, #4]
        __HAL_RCC_PLL_ENABLE();
 8003a2e:	660a      	str	r2, [r1, #96]	@ 0x60
        tickstart = HAL_GetTick();
 8003a30:	f7fe fad8 	bl	8001fe4 <HAL_GetTick>
        while (__HAL_RCC_GET_FLAG(RCC_FLAG_PLLRDY) == RESET)
 8003a34:	4d08      	ldr	r5, [pc, #32]	@ (8003a58 <HAL_RCC_OscConfig+0x3c0>)
        tickstart = HAL_GetTick();
 8003a36:	4604      	mov	r4, r0
        while (__HAL_RCC_GET_FLAG(RCC_FLAG_PLLRDY) == RESET)
 8003a38:	e005      	b.n	8003a46 <HAL_RCC_OscConfig+0x3ae>
          if ((HAL_GetTick() - tickstart) > PLL_TIMEOUT_VALUE)
 8003a3a:	f7fe fad3 	bl	8001fe4 <HAL_GetTick>
 8003a3e:	1b00      	subs	r0, r0, r4
 8003a40:	2802      	cmp	r0, #2
 8003a42:	f63f af5f 	bhi.w	8003904 <HAL_RCC_OscConfig+0x26c>
        while (__HAL_RCC_GET_FLAG(RCC_FLAG_PLLRDY) == RESET)
 8003a46:	682b      	ldr	r3, [r5, #0]
 8003a48:	019a      	lsls	r2, r3, #6
 8003a4a:	d5f6      	bpl.n	8003a3a <HAL_RCC_OscConfig+0x3a2>
 8003a4c:	e6e4      	b.n	8003818 <HAL_RCC_OscConfig+0x180>
    return HAL_ERROR;
 8003a4e:	2001      	movs	r0, #1
}
 8003a50:	4770      	bx	lr
 8003a52:	bf00      	nop
 8003a54:	42470000 	.word	0x42470000
 8003a58:	40023800 	.word	0x40023800

08003a5c <HAL_RCC_GetSysClockFreq>:
  uint32_t pllvco = 0U;
  uint32_t pllp = 0U;
  uint32_t sysclockfreq = 0U;

  /* Get SYSCLK source -------------------------------------------------------*/
  switch (RCC->CFGR & RCC_CFGR_SWS)
 8003a5c:	4916      	ldr	r1, [pc, #88]	@ (8003ab8 <HAL_RCC_GetSysClockFreq+0x5c>)
{
 8003a5e:	b508      	push	{r3, lr}
  switch (RCC->CFGR & RCC_CFGR_SWS)
 8003a60:	688b      	ldr	r3, [r1, #8]
 8003a62:	f003 030c 	and.w	r3, r3, #12
 8003a66:	2b04      	cmp	r3, #4
 8003a68:	d01b      	beq.n	8003aa2 <HAL_RCC_GetSysClockFreq+0x46>
 8003a6a:	2b08      	cmp	r3, #8
 8003a6c:	d117      	bne.n	8003a9e <HAL_RCC_GetSysClockFreq+0x42>
    }
    case RCC_CFGR_SWS_PLL:  /* PLL used as system clock  source */
    {
      /* PLL_VCO = (HSE_VALUE or HSI_VALUE / PLLM) * PLLN
      SYSCLK = PLL_VCO / PLLP */
      pllm = RCC->PLLCFGR & RCC_PLLCFGR_PLLM;
 8003a6e:	684a      	ldr	r2, [r1, #4]
      if (__HAL_RCC_GET_PLL_OSCSOURCE() != RCC_PLLSOURCE_HSI)
 8003a70:	684b      	ldr	r3, [r1, #4]
      {
        /* HSE used as PLL clock source */
        pllvco = (uint32_t)((((uint64_t) HSE_VALUE * ((uint64_t)((RCC->PLLCFGR & RCC_PLLCFGR_PLLN) >> RCC_PLLCFGR_PLLN_Pos)))) / (uint64_t)pllm);
 8003a72:	6849      	ldr	r1, [r1, #4]
      if (__HAL_RCC_GET_PLL_OSCSOURCE() != RCC_PLLSOURCE_HSI)
 8003a74:	f413 0380 	ands.w	r3, r3, #4194304	@ 0x400000
      pllm = RCC->PLLCFGR & RCC_PLLCFGR_PLLM;
 8003a78:	f002 023f 	and.w	r2, r2, #63	@ 0x3f
      if (__HAL_RCC_GET_PLL_OSCSOURCE() != RCC_PLLSOURCE_HSI)
 8003a7c:	d113      	bne.n	8003aa6 <HAL_RCC_GetSysClockFreq+0x4a>
      }
      else
      {
        /* HSI used as PLL clock source */
        pllvco = (uint32_t)((((uint64_t) HSI_VALUE * ((uint64_t)((RCC->PLLCFGR & RCC_PLLCFGR_PLLN) >> RCC_PLLCFGR_PLLN_Pos)))) / (uint64_t)pllm);
 8003a7e:	480f      	ldr	r0, [pc, #60]	@ (8003abc <HAL_RCC_GetSysClockFreq+0x60>)
 8003a80:	f3c1 1188 	ubfx	r1, r1, #6, #9
 8003a84:	fba1 0100 	umull	r0, r1, r1, r0
 8003a88:	f7fd f894 	bl	8000bb4 <__aeabi_uldivmod>
      }
      pllp = ((((RCC->PLLCFGR & RCC_PLLCFGR_PLLP) >> RCC_PLLCFGR_PLLP_Pos) + 1U) * 2U);
 8003a8c:	4b0a      	ldr	r3, [pc, #40]	@ (8003ab8 <HAL_RCC_GetSysClockFreq+0x5c>)
 8003a8e:	685b      	ldr	r3, [r3, #4]
 8003a90:	f3c3 4301 	ubfx	r3, r3, #16, #2
 8003a94:	3301      	adds	r3, #1
 8003a96:	005b      	lsls	r3, r3, #1

      sysclockfreq = pllvco / pllp;
 8003a98:	fbb0 f0f3 	udiv	r0, r0, r3
      sysclockfreq = HSI_VALUE;
      break;
    }
  }
  return sysclockfreq;
}
 8003a9c:	bd08      	pop	{r3, pc}
      sysclockfreq = HSI_VALUE;
 8003a9e:	4807      	ldr	r0, [pc, #28]	@ (8003abc <HAL_RCC_GetSysClockFreq+0x60>)
}
 8003aa0:	bd08      	pop	{r3, pc}
  switch (RCC->CFGR & RCC_CFGR_SWS)
 8003aa2:	4807      	ldr	r0, [pc, #28]	@ (8003ac0 <HAL_RCC_GetSysClockFreq+0x64>)
}
 8003aa4:	bd08      	pop	{r3, pc}
        pllvco = (uint32_t)((((uint64_t) HSE_VALUE * ((uint64_t)((RCC->PLLCFGR & RCC_PLLCFGR_PLLN) >> RCC_PLLCFGR_PLLN_Pos)))) / (uint64_t)pllm);
 8003aa6:	4806      	ldr	r0, [pc, #24]	@ (8003ac0 <HAL_RCC_GetSysClockFreq+0x64>)
 8003aa8:	f3c1 1188 	ubfx	r1, r1, #6, #9
 8003aac:	2300      	movs	r3, #0
 8003aae:	fba1 0100 	umull	r0, r1, r1, r0
 8003ab2:	f7fd f87f 	bl	8000bb4 <__aeabi_uldivmod>
 8003ab6:	e7e9      	b.n	8003a8c <HAL_RCC_GetSysClockFreq+0x30>
 8003ab8:	40023800 	.word	0x40023800
 8003abc:	00f42400 	.word	0x00f42400
 8003ac0:	017d7840 	.word	0x017d7840

08003ac4 <HAL_RCC_ClockConfig>:
  if (RCC_ClkInitStruct == NULL)
 8003ac4:	2800      	cmp	r0, #0
 8003ac6:	f000 8087 	beq.w	8003bd8 <HAL_RCC_ClockConfig+0x114>
  if (FLatency > __HAL_FLASH_GET_LATENCY())
 8003aca:	4a48      	ldr	r2, [pc, #288]	@ (8003bec <HAL_RCC_ClockConfig+0x128>)
 8003acc:	6813      	ldr	r3, [r2, #0]
 8003ace:	f003 0307 	and.w	r3, r3, #7
 8003ad2:	428b      	cmp	r3, r1
{
 8003ad4:	e92d 41f0 	stmdb	sp!, {r4, r5, r6, r7, r8, lr}
 8003ad8:	460d      	mov	r5, r1
 8003ada:	4604      	mov	r4, r0
  if (FLatency > __HAL_FLASH_GET_LATENCY())
 8003adc:	d209      	bcs.n	8003af2 <HAL_RCC_ClockConfig+0x2e>
    __HAL_FLASH_SET_LATENCY(FLatency);
 8003ade:	b2cb      	uxtb	r3, r1
 8003ae0:	7013      	strb	r3, [r2, #0]
    if (__HAL_FLASH_GET_LATENCY() != FLatency)
 8003ae2:	6813      	ldr	r3, [r2, #0]
 8003ae4:	f003 0307 	and.w	r3, r3, #7
 8003ae8:	428b      	cmp	r3, r1
 8003aea:	d002      	beq.n	8003af2 <HAL_RCC_ClockConfig+0x2e>
    return HAL_ERROR;
 8003aec:	2001      	movs	r0, #1
}
 8003aee:	e8bd 81f0 	ldmia.w	sp!, {r4, r5, r6, r7, r8, pc}
  if (((RCC_ClkInitStruct->ClockType) & RCC_CLOCKTYPE_HCLK) == RCC_CLOCKTYPE_HCLK)
 8003af2:	6823      	ldr	r3, [r4, #0]
 8003af4:	0798      	lsls	r0, r3, #30
 8003af6:	d514      	bpl.n	8003b22 <HAL_RCC_ClockConfig+0x5e>
    if (((RCC_ClkInitStruct->ClockType) & RCC_CLOCKTYPE_PCLK1) == RCC_CLOCKTYPE_PCLK1)
 8003af8:	0759      	lsls	r1, r3, #29
 8003afa:	d504      	bpl.n	8003b06 <HAL_RCC_ClockConfig+0x42>
      MODIFY_REG(RCC->CFGR, RCC_CFGR_PPRE1, RCC_HCLK_DIV16);
 8003afc:	493c      	ldr	r1, [pc, #240]	@ (8003bf0 <HAL_RCC_ClockConfig+0x12c>)
 8003afe:	688a      	ldr	r2, [r1, #8]
 8003b00:	f442 52e0 	orr.w	r2, r2, #7168	@ 0x1c00
 8003b04:	608a      	str	r2, [r1, #8]
    if (((RCC_ClkInitStruct->ClockType) & RCC_CLOCKTYPE_PCLK2) == RCC_CLOCKTYPE_PCLK2)
 8003b06:	071a      	lsls	r2, r3, #28
 8003b08:	d504      	bpl.n	8003b14 <HAL_RCC_ClockConfig+0x50>
      MODIFY_REG(RCC->CFGR, RCC_CFGR_PPRE2, (RCC_HCLK_DIV16 << 3));
 8003b0a:	4939      	ldr	r1, [pc, #228]	@ (8003bf0 <HAL_RCC_ClockConfig+0x12c>)
 8003b0c:	688a      	ldr	r2, [r1, #8]
 8003b0e:	f442 4260 	orr.w	r2, r2, #57344	@ 0xe000
 8003b12:	608a      	str	r2, [r1, #8]
    MODIFY_REG(RCC->CFGR, RCC_CFGR_HPRE, RCC_ClkInitStruct->AHBCLKDivider);
 8003b14:	4936      	ldr	r1, [pc, #216]	@ (8003bf0 <HAL_RCC_ClockConfig+0x12c>)
 8003b16:	68a0      	ldr	r0, [r4, #8]
 8003b18:	688a      	ldr	r2, [r1, #8]
 8003b1a:	f022 02f0 	bic.w	r2, r2, #240	@ 0xf0
 8003b1e:	4302      	orrs	r2, r0
 8003b20:	608a      	str	r2, [r1, #8]
  if (((RCC_ClkInitStruct->ClockType) & RCC_CLOCKTYPE_SYSCLK) == RCC_CLOCKTYPE_SYSCLK)
 8003b22:	07df      	lsls	r7, r3, #31
 8003b24:	d521      	bpl.n	8003b6a <HAL_RCC_ClockConfig+0xa6>
    if (RCC_ClkInitStruct->SYSCLKSource == RCC_SYSCLKSOURCE_HSE)
 8003b26:	6862      	ldr	r2, [r4, #4]
 8003b28:	2a01      	cmp	r2, #1
 8003b2a:	d057      	beq.n	8003bdc <HAL_RCC_ClockConfig+0x118>
    else if ((RCC_ClkInitStruct->SYSCLKSource == RCC_SYSCLKSOURCE_PLLCLK)   ||
 8003b2c:	1e93      	subs	r3, r2, #2
 8003b2e:	2b01      	cmp	r3, #1
      if (__HAL_RCC_GET_FLAG(RCC_FLAG_PLLRDY) == RESET)
 8003b30:	4b2f      	ldr	r3, [pc, #188]	@ (8003bf0 <HAL_RCC_ClockConfig+0x12c>)
 8003b32:	681b      	ldr	r3, [r3, #0]
    else if ((RCC_ClkInitStruct->SYSCLKSource == RCC_SYSCLKSOURCE_PLLCLK)   ||
 8003b34:	d94d      	bls.n	8003bd2 <HAL_RCC_ClockConfig+0x10e>
      if (__HAL_RCC_GET_FLAG(RCC_FLAG_HSIRDY) == RESET)
 8003b36:	0799      	lsls	r1, r3, #30
 8003b38:	d5d8      	bpl.n	8003aec <HAL_RCC_ClockConfig+0x28>
    __HAL_RCC_SYSCLK_CONFIG(RCC_ClkInitStruct->SYSCLKSource);
 8003b3a:	4e2d      	ldr	r6, [pc, #180]	@ (8003bf0 <HAL_RCC_ClockConfig+0x12c>)
 8003b3c:	68b3      	ldr	r3, [r6, #8]
 8003b3e:	f023 0303 	bic.w	r3, r3, #3
 8003b42:	4313      	orrs	r3, r2
 8003b44:	60b3      	str	r3, [r6, #8]
    tickstart = HAL_GetTick();
 8003b46:	f7fe fa4d 	bl	8001fe4 <HAL_GetTick>
      if ((HAL_GetTick() - tickstart) > CLOCKSWITCH_TIMEOUT_VALUE)
 8003b4a:	f241 3888 	movw	r8, #5000	@ 0x1388
    tickstart = HAL_GetTick();
 8003b4e:	4607      	mov	r7, r0
    while (__HAL_RCC_GET_SYSCLK_SOURCE() != (RCC_ClkInitStruct->SYSCLKSource << RCC_CFGR_SWS_Pos))
 8003b50:	e004      	b.n	8003b5c <HAL_RCC_ClockConfig+0x98>
      if ((HAL_GetTick() - tickstart) > CLOCKSWITCH_TIMEOUT_VALUE)
 8003b52:	f7fe fa47 	bl	8001fe4 <HAL_GetTick>
 8003b56:	1bc0      	subs	r0, r0, r7
 8003b58:	4540      	cmp	r0, r8
 8003b5a:	d844      	bhi.n	8003be6 <HAL_RCC_ClockConfig+0x122>
    while (__HAL_RCC_GET_SYSCLK_SOURCE() != (RCC_ClkInitStruct->SYSCLKSource << RCC_CFGR_SWS_Pos))
 8003b5c:	68b3      	ldr	r3, [r6, #8]
 8003b5e:	6862      	ldr	r2, [r4, #4]
 8003b60:	f003 030c 	and.w	r3, r3, #12
 8003b64:	ebb3 0f82 	cmp.w	r3, r2, lsl #2
 8003b68:	d1f3      	bne.n	8003b52 <HAL_RCC_ClockConfig+0x8e>
  if (FLatency < __HAL_FLASH_GET_LATENCY())
 8003b6a:	4a20      	ldr	r2, [pc, #128]	@ (8003bec <HAL_RCC_ClockConfig+0x128>)
 8003b6c:	6813      	ldr	r3, [r2, #0]
 8003b6e:	f003 0307 	and.w	r3, r3, #7
 8003b72:	42ab      	cmp	r3, r5
 8003b74:	d906      	bls.n	8003b84 <HAL_RCC_ClockConfig+0xc0>
    __HAL_FLASH_SET_LATENCY(FLatency);
 8003b76:	b2eb      	uxtb	r3, r5
 8003b78:	7013      	strb	r3, [r2, #0]
    if (__HAL_FLASH_GET_LATENCY() != FLatency)
 8003b7a:	6813      	ldr	r3, [r2, #0]
 8003b7c:	f003 0307 	and.w	r3, r3, #7
 8003b80:	42ab      	cmp	r3, r5
 8003b82:	d1b3      	bne.n	8003aec <HAL_RCC_ClockConfig+0x28>
  if (((RCC_ClkInitStruct->ClockType) & RCC_CLOCKTYPE_PCLK1) == RCC_CLOCKTYPE_PCLK1)
 8003b84:	6823      	ldr	r3, [r4, #0]
 8003b86:	075a      	lsls	r2, r3, #29
 8003b88:	d506      	bpl.n	8003b98 <HAL_RCC_ClockConfig+0xd4>
    MODIFY_REG(RCC->CFGR, RCC_CFGR_PPRE1, RCC_ClkInitStruct->APB1CLKDivider);
 8003b8a:	4919      	ldr	r1, [pc, #100]	@ (8003bf0 <HAL_RCC_ClockConfig+0x12c>)
 8003b8c:	68e0      	ldr	r0, [r4, #12]
 8003b8e:	688a      	ldr	r2, [r1, #8]
 8003b90:	f422 52e0 	bic.w	r2, r2, #7168	@ 0x1c00
 8003b94:	4302      	orrs	r2, r0
 8003b96:	608a      	str	r2, [r1, #8]
  if (((RCC_ClkInitStruct->ClockType) & RCC_CLOCKTYPE_PCLK2) == RCC_CLOCKTYPE_PCLK2)
 8003b98:	071b      	lsls	r3, r3, #28
 8003b9a:	d507      	bpl.n	8003bac <HAL_RCC_ClockConfig+0xe8>
    MODIFY_REG(RCC->CFGR, RCC_CFGR_PPRE2, ((RCC_ClkInitStruct->APB2CLKDivider) << 3U));
 8003b9c:	4a14      	ldr	r2, [pc, #80]	@ (8003bf0 <HAL_RCC_ClockConfig+0x12c>)
 8003b9e:	6921      	ldr	r1, [r4, #16]
 8003ba0:	6893      	ldr	r3, [r2, #8]
 8003ba2:	f423 4360 	bic.w	r3, r3, #57344	@ 0xe000
 8003ba6:	ea43 03c1 	orr.w	r3, r3, r1, lsl #3
 8003baa:	6093      	str	r3, [r2, #8]
  SystemCoreClock = HAL_RCC_GetSysClockFreq() >> AHBPrescTable[(RCC->CFGR & RCC_CFGR_HPRE) >> RCC_CFGR_HPRE_Pos];
 8003bac:	f7ff ff56 	bl	8003a5c <HAL_RCC_GetSysClockFreq>
 8003bb0:	4a0f      	ldr	r2, [pc, #60]	@ (8003bf0 <HAL_RCC_ClockConfig+0x12c>)
 8003bb2:	4c10      	ldr	r4, [pc, #64]	@ (8003bf4 <HAL_RCC_ClockConfig+0x130>)
 8003bb4:	6892      	ldr	r2, [r2, #8]
 8003bb6:	4910      	ldr	r1, [pc, #64]	@ (8003bf8 <HAL_RCC_ClockConfig+0x134>)
 8003bb8:	f3c2 1203 	ubfx	r2, r2, #4, #4
 8003bbc:	4603      	mov	r3, r0
 8003bbe:	5ca2      	ldrb	r2, [r4, r2]
  HAL_InitTick(uwTickPrio);
 8003bc0:	480e      	ldr	r0, [pc, #56]	@ (8003bfc <HAL_RCC_ClockConfig+0x138>)
  SystemCoreClock = HAL_RCC_GetSysClockFreq() >> AHBPrescTable[(RCC->CFGR & RCC_CFGR_HPRE) >> RCC_CFGR_HPRE_Pos];
 8003bc2:	40d3      	lsrs	r3, r2
  HAL_InitTick(uwTickPrio);
 8003bc4:	6800      	ldr	r0, [r0, #0]
  SystemCoreClock = HAL_RCC_GetSysClockFreq() >> AHBPrescTable[(RCC->CFGR & RCC_CFGR_HPRE) >> RCC_CFGR_HPRE_Pos];
 8003bc6:	600b      	str	r3, [r1, #0]
  HAL_InitTick(uwTickPrio);
 8003bc8:	f7fe f9c2 	bl	8001f50 <HAL_InitTick>
  return HAL_OK;
 8003bcc:	2000      	movs	r0, #0
}
 8003bce:	e8bd 81f0 	ldmia.w	sp!, {r4, r5, r6, r7, r8, pc}
      if (__HAL_RCC_GET_FLAG(RCC_FLAG_PLLRDY) == RESET)
 8003bd2:	0198      	lsls	r0, r3, #6
 8003bd4:	d4b1      	bmi.n	8003b3a <HAL_RCC_ClockConfig+0x76>
 8003bd6:	e789      	b.n	8003aec <HAL_RCC_ClockConfig+0x28>
    return HAL_ERROR;
 8003bd8:	2001      	movs	r0, #1
}
 8003bda:	4770      	bx	lr
      if (__HAL_RCC_GET_FLAG(RCC_FLAG_HSERDY) == RESET)
 8003bdc:	4b04      	ldr	r3, [pc, #16]	@ (8003bf0 <HAL_RCC_ClockConfig+0x12c>)
 8003bde:	681b      	ldr	r3, [r3, #0]
 8003be0:	039e      	lsls	r6, r3, #14
 8003be2:	d4aa      	bmi.n	8003b3a <HAL_RCC_ClockConfig+0x76>
 8003be4:	e782      	b.n	8003aec <HAL_RCC_ClockConfig+0x28>
        return HAL_TIMEOUT;
 8003be6:	2003      	movs	r0, #3
 8003be8:	e781      	b.n	8003aee <HAL_RCC_ClockConfig+0x2a>
 8003bea:	bf00      	nop
 8003bec:	40023c00 	.word	0x40023c00
 8003bf0:	40023800 	.word	0x40023800
 8003bf4:	08007160 	.word	0x08007160
 8003bf8:	20000010 	.word	0x20000010
 8003bfc:	20000018 	.word	0x20000018

08003c00 <HAL_RCC_GetPCLK1Freq>:
  * @retval PCLK1 frequency
  */
uint32_t HAL_RCC_GetPCLK1Freq(void)
{
  /* Get HCLK source and Compute PCLK1 frequency ---------------------------*/
  return (HAL_RCC_GetHCLKFreq() >> APBPrescTable[(RCC->CFGR & RCC_CFGR_PPRE1) >> RCC_CFGR_PPRE1_Pos]);
 8003c00:	4b04      	ldr	r3, [pc, #16]	@ (8003c14 <HAL_RCC_GetPCLK1Freq+0x14>)
  return SystemCoreClock;
 8003c02:	4905      	ldr	r1, [pc, #20]	@ (8003c18 <HAL_RCC_GetPCLK1Freq+0x18>)
  return (HAL_RCC_GetHCLKFreq() >> APBPrescTable[(RCC->CFGR & RCC_CFGR_PPRE1) >> RCC_CFGR_PPRE1_Pos]);
 8003c04:	689b      	ldr	r3, [r3, #8]
 8003c06:	4a05      	ldr	r2, [pc, #20]	@ (8003c1c <HAL_RCC_GetPCLK1Freq+0x1c>)
 8003c08:	6808      	ldr	r0, [r1, #0]
 8003c0a:	f3c3 2382 	ubfx	r3, r3, #10, #3
 8003c0e:	5cd3      	ldrb	r3, [r2, r3]
}
 8003c10:	40d8      	lsrs	r0, r3
 8003c12:	4770      	bx	lr
 8003c14:	40023800 	.word	0x40023800
 8003c18:	20000010 	.word	0x20000010
 8003c1c:	08007158 	.word	0x08007158

08003c20 <HAL_RCC_GetPCLK2Freq>:
  * @retval PCLK2 frequency
  */
uint32_t HAL_RCC_GetPCLK2Freq(void)
{
  /* Get HCLK source and Compute PCLK2 frequency ---------------------------*/
  return (HAL_RCC_GetHCLKFreq() >> APBPrescTable[(RCC->CFGR & RCC_CFGR_PPRE2) >> RCC_CFGR_PPRE2_Pos]);
 8003c20:	4b04      	ldr	r3, [pc, #16]	@ (8003c34 <HAL_RCC_GetPCLK2Freq+0x14>)
  return SystemCoreClock;
 8003c22:	4905      	ldr	r1, [pc, #20]	@ (8003c38 <HAL_RCC_GetPCLK2Freq+0x18>)
  return (HAL_RCC_GetHCLKFreq() >> APBPrescTable[(RCC->CFGR & RCC_CFGR_PPRE2) >> RCC_CFGR_PPRE2_Pos]);
 8003c24:	689b      	ldr	r3, [r3, #8]
 8003c26:	4a05      	ldr	r2, [pc, #20]	@ (8003c3c <HAL_RCC_GetPCLK2Freq+0x1c>)
 8003c28:	6808      	ldr	r0, [r1, #0]
 8003c2a:	f3c3 3342 	ubfx	r3, r3, #13, #3
 8003c2e:	5cd3      	ldrb	r3, [r2, r3]
}
 8003c30:	40d8      	lsrs	r0, r3
 8003c32:	4770      	bx	lr
 8003c34:	40023800 	.word	0x40023800
 8003c38:	20000010 	.word	0x20000010
 8003c3c:	08007158 	.word	0x08007158

08003c40 <HAL_RCCEx_PeriphCLKConfig>:
  *        domain (RTC and RCC_BDCR register expect BKPSRAM) will be reset
  *
  * @retval HAL status
  */
HAL_StatusTypeDef HAL_RCCEx_PeriphCLKConfig(RCC_PeriphCLKInitTypeDef  *PeriphClkInit)
{
 8003c40:	b5f0      	push	{r4, r5, r6, r7, lr}

  /* Check the parameters */
  assert_param(IS_RCC_PERIPHCLOCK(PeriphClkInit->PeriphClockSelection));

  /*---------------------------- I2S configuration ---------------------------*/
  if ((((PeriphClkInit->PeriphClockSelection) & RCC_PERIPHCLK_I2S) == RCC_PERIPHCLK_I2S) ||
 8003c42:	6803      	ldr	r3, [r0, #0]
 8003c44:	f013 0f05 	tst.w	r3, #5
{
 8003c48:	b083      	sub	sp, #12
 8003c4a:	4604      	mov	r4, r0
  if ((((PeriphClkInit->PeriphClockSelection) & RCC_PERIPHCLK_I2S) == RCC_PERIPHCLK_I2S) ||
 8003c4c:	d10b      	bne.n	8003c66 <HAL_RCCEx_PeriphCLKConfig+0x26>
      }
    }
  }

  /*---------------------------- RTC configuration ---------------------------*/
  if (((PeriphClkInit->PeriphClockSelection) & RCC_PERIPHCLK_RTC) == (RCC_PERIPHCLK_RTC))
 8003c4e:	079d      	lsls	r5, r3, #30
 8003c50:	d444      	bmi.n	8003cdc <HAL_RCCEx_PeriphCLKConfig+0x9c>
    }
    __HAL_RCC_RTC_CONFIG(PeriphClkInit->RTCClockSelection);
  }
#if defined(STM32F401xC) || defined(STM32F401xE) || defined(STM32F411xE)
  /*---------------------------- TIM configuration ---------------------------*/
  if (((PeriphClkInit->PeriphClockSelection) & RCC_PERIPHCLK_TIM) == (RCC_PERIPHCLK_TIM))
 8003c52:	071b      	lsls	r3, r3, #28
 8003c54:	d402      	bmi.n	8003c5c <HAL_RCCEx_PeriphCLKConfig+0x1c>
  {
    __HAL_RCC_TIMCLKPRESCALER(PeriphClkInit->TIMPresSelection);
  }
#endif /* STM32F401xC || STM32F401xE || STM32F411xE */
  return HAL_OK;
 8003c56:	2000      	movs	r0, #0
}
 8003c58:	b003      	add	sp, #12
 8003c5a:	bdf0      	pop	{r4, r5, r6, r7, pc}
    __HAL_RCC_TIMCLKPRESCALER(PeriphClkInit->TIMPresSelection);
 8003c5c:	4b49      	ldr	r3, [pc, #292]	@ (8003d84 <HAL_RCCEx_PeriphCLKConfig+0x144>)
 8003c5e:	7d22      	ldrb	r2, [r4, #20]
 8003c60:	f8c3 21e0 	str.w	r2, [r3, #480]	@ 0x1e0
 8003c64:	e7f7      	b.n	8003c56 <HAL_RCCEx_PeriphCLKConfig+0x16>
    __HAL_RCC_PLLI2S_DISABLE();
 8003c66:	4b48      	ldr	r3, [pc, #288]	@ (8003d88 <HAL_RCCEx_PeriphCLKConfig+0x148>)
    while (__HAL_RCC_GET_FLAG(RCC_FLAG_PLLI2SRDY)  != RESET)
 8003c68:	4e48      	ldr	r6, [pc, #288]	@ (8003d8c <HAL_RCCEx_PeriphCLKConfig+0x14c>)
    __HAL_RCC_PLLI2S_DISABLE();
 8003c6a:	2200      	movs	r2, #0
 8003c6c:	669a      	str	r2, [r3, #104]	@ 0x68
    tickstart = HAL_GetTick();
 8003c6e:	f7fe f9b9 	bl	8001fe4 <HAL_GetTick>
 8003c72:	4605      	mov	r5, r0
    while (__HAL_RCC_GET_FLAG(RCC_FLAG_PLLI2SRDY)  != RESET)
 8003c74:	e004      	b.n	8003c80 <HAL_RCCEx_PeriphCLKConfig+0x40>
      if ((HAL_GetTick() - tickstart) > PLLI2S_TIMEOUT_VALUE)
 8003c76:	f7fe f9b5 	bl	8001fe4 <HAL_GetTick>
 8003c7a:	1b43      	subs	r3, r0, r5
 8003c7c:	2b02      	cmp	r3, #2
 8003c7e:	d82a      	bhi.n	8003cd6 <HAL_RCCEx_PeriphCLKConfig+0x96>
    while (__HAL_RCC_GET_FLAG(RCC_FLAG_PLLI2SRDY)  != RESET)
 8003c80:	6833      	ldr	r3, [r6, #0]
 8003c82:	011b      	lsls	r3, r3, #4
 8003c84:	d4f7      	bmi.n	8003c76 <HAL_RCCEx_PeriphCLKConfig+0x36>
    __HAL_RCC_PLLI2S_I2SCLK_CONFIG(PeriphClkInit->PLLI2S.PLLI2SM, PeriphClkInit->PLLI2S.PLLI2SN,
 8003c86:	e9d4 1302 	ldrd	r1, r3, [r4, #8]
 8003c8a:	6862      	ldr	r2, [r4, #4]
 8003c8c:	071b      	lsls	r3, r3, #28
 8003c8e:	ea43 1381 	orr.w	r3, r3, r1, lsl #6
 8003c92:	4313      	orrs	r3, r2
    __HAL_RCC_PLLI2S_ENABLE();
 8003c94:	4a3c      	ldr	r2, [pc, #240]	@ (8003d88 <HAL_RCCEx_PeriphCLKConfig+0x148>)
    __HAL_RCC_PLLI2S_I2SCLK_CONFIG(PeriphClkInit->PLLI2S.PLLI2SM, PeriphClkInit->PLLI2S.PLLI2SN,
 8003c96:	f8c6 3084 	str.w	r3, [r6, #132]	@ 0x84
    __HAL_RCC_PLLI2S_ENABLE();
 8003c9a:	2101      	movs	r1, #1
 8003c9c:	6691      	str	r1, [r2, #104]	@ 0x68
    tickstart = HAL_GetTick();
 8003c9e:	f7fe f9a1 	bl	8001fe4 <HAL_GetTick>
    while (__HAL_RCC_GET_FLAG(RCC_FLAG_PLLI2SRDY)  == RESET)
 8003ca2:	4e3a      	ldr	r6, [pc, #232]	@ (8003d8c <HAL_RCCEx_PeriphCLKConfig+0x14c>)
    tickstart = HAL_GetTick();
 8003ca4:	4605      	mov	r5, r0
    while (__HAL_RCC_GET_FLAG(RCC_FLAG_PLLI2SRDY)  == RESET)
 8003ca6:	e004      	b.n	8003cb2 <HAL_RCCEx_PeriphCLKConfig+0x72>
      if ((HAL_GetTick() - tickstart) > PLLI2S_TIMEOUT_VALUE)
 8003ca8:	f7fe f99c 	bl	8001fe4 <HAL_GetTick>
 8003cac:	1b43      	subs	r3, r0, r5
 8003cae:	2b02      	cmp	r3, #2
 8003cb0:	d811      	bhi.n	8003cd6 <HAL_RCCEx_PeriphCLKConfig+0x96>
    while (__HAL_RCC_GET_FLAG(RCC_FLAG_PLLI2SRDY)  == RESET)
 8003cb2:	6833      	ldr	r3, [r6, #0]
 8003cb4:	011f      	lsls	r7, r3, #4
 8003cb6:	d5f7      	bpl.n	8003ca8 <HAL_RCCEx_PeriphCLKConfig+0x68>
  if (((PeriphClkInit->PeriphClockSelection) & RCC_PERIPHCLK_RTC) == (RCC_PERIPHCLK_RTC))
 8003cb8:	6823      	ldr	r3, [r4, #0]
 8003cba:	e7c8      	b.n	8003c4e <HAL_RCCEx_PeriphCLKConfig+0xe>
        tickstart = HAL_GetTick();
 8003cbc:	f7fe f992 	bl	8001fe4 <HAL_GetTick>
          if ((HAL_GetTick() - tickstart) > RCC_LSE_TIMEOUT_VALUE)
 8003cc0:	f241 3788 	movw	r7, #5000	@ 0x1388
        tickstart = HAL_GetTick();
 8003cc4:	4606      	mov	r6, r0
        while (__HAL_RCC_GET_FLAG(RCC_FLAG_LSERDY) == RESET)
 8003cc6:	6f2b      	ldr	r3, [r5, #112]	@ 0x70
 8003cc8:	079a      	lsls	r2, r3, #30
 8003cca:	d43c      	bmi.n	8003d46 <HAL_RCCEx_PeriphCLKConfig+0x106>
          if ((HAL_GetTick() - tickstart) > RCC_LSE_TIMEOUT_VALUE)
 8003ccc:	f7fe f98a 	bl	8001fe4 <HAL_GetTick>
 8003cd0:	1b80      	subs	r0, r0, r6
 8003cd2:	42b8      	cmp	r0, r7
 8003cd4:	d9f7      	bls.n	8003cc6 <HAL_RCCEx_PeriphCLKConfig+0x86>
        return HAL_TIMEOUT;
 8003cd6:	2003      	movs	r0, #3
}
 8003cd8:	b003      	add	sp, #12
 8003cda:	bdf0      	pop	{r4, r5, r6, r7, pc}
    __HAL_RCC_PWR_CLK_ENABLE();
 8003cdc:	4b2b      	ldr	r3, [pc, #172]	@ (8003d8c <HAL_RCCEx_PeriphCLKConfig+0x14c>)
    PWR->CR |= PWR_CR_DBP;
 8003cde:	4d2c      	ldr	r5, [pc, #176]	@ (8003d90 <HAL_RCCEx_PeriphCLKConfig+0x150>)
    __HAL_RCC_PWR_CLK_ENABLE();
 8003ce0:	2200      	movs	r2, #0
 8003ce2:	9201      	str	r2, [sp, #4]
 8003ce4:	6c1a      	ldr	r2, [r3, #64]	@ 0x40
 8003ce6:	f042 5280 	orr.w	r2, r2, #268435456	@ 0x10000000
 8003cea:	641a      	str	r2, [r3, #64]	@ 0x40
 8003cec:	6c1b      	ldr	r3, [r3, #64]	@ 0x40
 8003cee:	f003 5380 	and.w	r3, r3, #268435456	@ 0x10000000
 8003cf2:	9301      	str	r3, [sp, #4]
 8003cf4:	9b01      	ldr	r3, [sp, #4]
    PWR->CR |= PWR_CR_DBP;
 8003cf6:	682b      	ldr	r3, [r5, #0]
 8003cf8:	f443 7380 	orr.w	r3, r3, #256	@ 0x100
 8003cfc:	602b      	str	r3, [r5, #0]
    tickstart = HAL_GetTick();
 8003cfe:	f7fe f971 	bl	8001fe4 <HAL_GetTick>
 8003d02:	4606      	mov	r6, r0
    while ((PWR->CR & PWR_CR_DBP) == RESET)
 8003d04:	e004      	b.n	8003d10 <HAL_RCCEx_PeriphCLKConfig+0xd0>
      if ((HAL_GetTick() - tickstart) > RCC_DBP_TIMEOUT_VALUE)
 8003d06:	f7fe f96d 	bl	8001fe4 <HAL_GetTick>
 8003d0a:	1b83      	subs	r3, r0, r6
 8003d0c:	2b02      	cmp	r3, #2
 8003d0e:	d8e2      	bhi.n	8003cd6 <HAL_RCCEx_PeriphCLKConfig+0x96>
    while ((PWR->CR & PWR_CR_DBP) == RESET)
 8003d10:	682b      	ldr	r3, [r5, #0]
 8003d12:	05d8      	lsls	r0, r3, #23
 8003d14:	d5f7      	bpl.n	8003d06 <HAL_RCCEx_PeriphCLKConfig+0xc6>
    tmpreg1 = (RCC->BDCR & RCC_BDCR_RTCSEL);
 8003d16:	4d1d      	ldr	r5, [pc, #116]	@ (8003d8c <HAL_RCCEx_PeriphCLKConfig+0x14c>)
    if ((tmpreg1 != 0x00000000U) && ((tmpreg1) != (PeriphClkInit->RTCClockSelection & RCC_BDCR_RTCSEL)))
 8003d18:	6923      	ldr	r3, [r4, #16]
    tmpreg1 = (RCC->BDCR & RCC_BDCR_RTCSEL);
 8003d1a:	6f2a      	ldr	r2, [r5, #112]	@ 0x70
    if ((tmpreg1 != 0x00000000U) && ((tmpreg1) != (PeriphClkInit->RTCClockSelection & RCC_BDCR_RTCSEL)))
 8003d1c:	f412 7240 	ands.w	r2, r2, #768	@ 0x300
 8003d20:	f403 7140 	and.w	r1, r3, #768	@ 0x300
 8003d24:	d012      	beq.n	8003d4c <HAL_RCCEx_PeriphCLKConfig+0x10c>
 8003d26:	428a      	cmp	r2, r1
 8003d28:	d010      	beq.n	8003d4c <HAL_RCCEx_PeriphCLKConfig+0x10c>
      tmpreg1 = (RCC->BDCR & ~(RCC_BDCR_RTCSEL));
 8003d2a:	6f2b      	ldr	r3, [r5, #112]	@ 0x70
      __HAL_RCC_BACKUPRESET_FORCE();
 8003d2c:	4a16      	ldr	r2, [pc, #88]	@ (8003d88 <HAL_RCCEx_PeriphCLKConfig+0x148>)
 8003d2e:	2101      	movs	r1, #1
 8003d30:	f8c2 1e40 	str.w	r1, [r2, #3648]	@ 0xe40
      tmpreg1 = (RCC->BDCR & ~(RCC_BDCR_RTCSEL));
 8003d34:	f423 7340 	bic.w	r3, r3, #768	@ 0x300
      __HAL_RCC_BACKUPRESET_RELEASE();
 8003d38:	2100      	movs	r1, #0
 8003d3a:	f8c2 1e40 	str.w	r1, [r2, #3648]	@ 0xe40
      RCC->BDCR = tmpreg1;
 8003d3e:	672b      	str	r3, [r5, #112]	@ 0x70
      if (HAL_IS_BIT_SET(RCC->BDCR, RCC_BDCR_LSEON))
 8003d40:	6f2b      	ldr	r3, [r5, #112]	@ 0x70
 8003d42:	07d9      	lsls	r1, r3, #31
 8003d44:	d4ba      	bmi.n	8003cbc <HAL_RCCEx_PeriphCLKConfig+0x7c>
    __HAL_RCC_RTC_CONFIG(PeriphClkInit->RTCClockSelection);
 8003d46:	6923      	ldr	r3, [r4, #16]
 8003d48:	f403 7140 	and.w	r1, r3, #768	@ 0x300
 8003d4c:	f5b1 7f40 	cmp.w	r1, #768	@ 0x300
 8003d50:	d00c      	beq.n	8003d6c <HAL_RCCEx_PeriphCLKConfig+0x12c>
 8003d52:	490e      	ldr	r1, [pc, #56]	@ (8003d8c <HAL_RCCEx_PeriphCLKConfig+0x14c>)
 8003d54:	688a      	ldr	r2, [r1, #8]
 8003d56:	f422 12f8 	bic.w	r2, r2, #2031616	@ 0x1f0000
 8003d5a:	608a      	str	r2, [r1, #8]
 8003d5c:	4a0b      	ldr	r2, [pc, #44]	@ (8003d8c <HAL_RCCEx_PeriphCLKConfig+0x14c>)
 8003d5e:	6f11      	ldr	r1, [r2, #112]	@ 0x70
 8003d60:	f3c3 030b 	ubfx	r3, r3, #0, #12
 8003d64:	430b      	orrs	r3, r1
 8003d66:	6713      	str	r3, [r2, #112]	@ 0x70
  if (((PeriphClkInit->PeriphClockSelection) & RCC_PERIPHCLK_TIM) == (RCC_PERIPHCLK_TIM))
 8003d68:	6823      	ldr	r3, [r4, #0]
 8003d6a:	e772      	b.n	8003c52 <HAL_RCCEx_PeriphCLKConfig+0x12>
    __HAL_RCC_RTC_CONFIG(PeriphClkInit->RTCClockSelection);
 8003d6c:	4807      	ldr	r0, [pc, #28]	@ (8003d8c <HAL_RCCEx_PeriphCLKConfig+0x14c>)
 8003d6e:	6882      	ldr	r2, [r0, #8]
 8003d70:	f023 4170 	bic.w	r1, r3, #4026531840	@ 0xf0000000
 8003d74:	f421 7140 	bic.w	r1, r1, #768	@ 0x300
 8003d78:	f422 12f8 	bic.w	r2, r2, #2031616	@ 0x1f0000
 8003d7c:	430a      	orrs	r2, r1
 8003d7e:	6082      	str	r2, [r0, #8]
 8003d80:	e7ec      	b.n	8003d5c <HAL_RCCEx_PeriphCLKConfig+0x11c>
 8003d82:	bf00      	nop
 8003d84:	42471000 	.word	0x42471000
 8003d88:	42470000 	.word	0x42470000
 8003d8c:	40023800 	.word	0x40023800
 8003d90:	40007000 	.word	0x40007000

08003d94 <HAL_RCCEx_GetPeriphCLKFreq>:
  /* This variable used to store the VCO Input (value in Hz) */
  uint32_t vcoinput = 0U;
  uint32_t srcclk = 0U;
  /* This variable used to store the VCO Output (value in Hz) */
  uint32_t vcooutput = 0U;
  switch (PeriphClk)
 8003d94:	2801      	cmp	r0, #1
 8003d96:	d001      	beq.n	8003d9c <HAL_RCCEx_GetPeriphCLKFreq+0x8>
 8003d98:	2000      	movs	r0, #0
 8003d9a:	4770      	bx	lr
  {
    case RCC_PERIPHCLK_I2S:
    {
      /* Get the current I2S source */
      srcclk = __HAL_RCC_GET_I2S_SOURCE();
 8003d9c:	4b0f      	ldr	r3, [pc, #60]	@ (8003ddc <HAL_RCCEx_GetPeriphCLKFreq+0x48>)
 8003d9e:	689a      	ldr	r2, [r3, #8]
      switch (srcclk)
 8003da0:	0211      	lsls	r1, r2, #8
 8003da2:	d501      	bpl.n	8003da8 <HAL_RCCEx_GetPeriphCLKFreq+0x14>
      {
        /* Check if I2S clock selection is External clock mapped on the I2S_CKIN pin used as I2S clock */
        case RCC_I2SCLKSOURCE_EXT:
        {
          /* Set the I2S clock to the external clock  value */
          frequency = EXTERNAL_CLOCK_VALUE;
 8003da4:	480e      	ldr	r0, [pc, #56]	@ (8003de0 <HAL_RCCEx_GetPeriphCLKFreq+0x4c>)
    {
      break;
    }
  }
  return frequency;
}
 8003da6:	4770      	bx	lr
          if ((RCC->PLLCFGR & RCC_PLLCFGR_PLLSRC) == RCC_PLLSOURCE_HSE)
 8003da8:	685a      	ldr	r2, [r3, #4]
            vcoinput = (uint32_t)(HSE_VALUE / (uint32_t)(RCC->PLLI2SCFGR & RCC_PLLI2SCFGR_PLLI2SM));
 8003daa:	f8d3 3084 	ldr.w	r3, [r3, #132]	@ 0x84
          if ((RCC->PLLCFGR & RCC_PLLCFGR_PLLSRC) == RCC_PLLSOURCE_HSE)
 8003dae:	0252      	lsls	r2, r2, #9
            vcoinput = (uint32_t)(HSE_VALUE / (uint32_t)(RCC->PLLI2SCFGR & RCC_PLLI2SCFGR_PLLI2SM));
 8003db0:	bf4c      	ite	mi
 8003db2:	4a0c      	ldrmi	r2, [pc, #48]	@ (8003de4 <HAL_RCCEx_GetPeriphCLKFreq+0x50>)
            vcoinput = (uint32_t)(HSI_VALUE / (uint32_t)(RCC->PLLI2SCFGR & RCC_PLLI2SCFGR_PLLI2SM));
 8003db4:	4a0c      	ldrpl	r2, [pc, #48]	@ (8003de8 <HAL_RCCEx_GetPeriphCLKFreq+0x54>)
 8003db6:	f003 033f 	and.w	r3, r3, #63	@ 0x3f
 8003dba:	fbb2 f2f3 	udiv	r2, r2, r3
          vcooutput = (uint32_t)(vcoinput * (((RCC->PLLI2SCFGR & RCC_PLLI2SCFGR_PLLI2SN) >> 6U) & (RCC_PLLI2SCFGR_PLLI2SN >> 6U)));
 8003dbe:	4b07      	ldr	r3, [pc, #28]	@ (8003ddc <HAL_RCCEx_GetPeriphCLKFreq+0x48>)
 8003dc0:	f8d3 0084 	ldr.w	r0, [r3, #132]	@ 0x84
          frequency = (uint32_t)(vcooutput / (((RCC->PLLI2SCFGR & RCC_PLLI2SCFGR_PLLI2SR) >> 28U) & (RCC_PLLI2SCFGR_PLLI2SR >> 28U)));
 8003dc4:	f8d3 3084 	ldr.w	r3, [r3, #132]	@ 0x84
          vcooutput = (uint32_t)(vcoinput * (((RCC->PLLI2SCFGR & RCC_PLLI2SCFGR_PLLI2SN) >> 6U) & (RCC_PLLI2SCFGR_PLLI2SN >> 6U)));
 8003dc8:	f3c0 1088 	ubfx	r0, r0, #6, #9
 8003dcc:	fb02 f000 	mul.w	r0, r2, r0
          frequency = (uint32_t)(vcooutput / (((RCC->PLLI2SCFGR & RCC_PLLI2SCFGR_PLLI2SR) >> 28U) & (RCC_PLLI2SCFGR_PLLI2SR >> 28U)));
 8003dd0:	f3c3 7302 	ubfx	r3, r3, #28, #3
 8003dd4:	fbb0 f0f3 	udiv	r0, r0, r3
          break;
 8003dd8:	4770      	bx	lr
 8003dda:	bf00      	nop
 8003ddc:	40023800 	.word	0x40023800
 8003de0:	00bb8000 	.word	0x00bb8000
 8003de4:	017d7840 	.word	0x017d7840
 8003de8:	00f42400 	.word	0x00f42400

08003dec <HAL_UART_Init>:
  * @retval HAL status
  */
HAL_StatusTypeDef HAL_UART_Init(UART_HandleTypeDef *huart)
{
  /* Check the UART handle allocation */
  if (huart == NULL)
 8003dec:	2800      	cmp	r0, #0
 8003dee:	f000 8087 	beq.w	8003f00 <HAL_UART_Init+0x114>
{
 8003df2:	b538      	push	{r3, r4, r5, lr}
    assert_param(IS_UART_INSTANCE(huart->Instance));
  }
  assert_param(IS_UART_WORD_LENGTH(huart->Init.WordLength));
  assert_param(IS_UART_OVERSAMPLING(huart->Init.OverSampling));

  if (huart->gState == HAL_UART_STATE_RESET)
 8003df4:	f890 3041 	ldrb.w	r3, [r0, #65]	@ 0x41
 8003df8:	4604      	mov	r4, r0
 8003dfa:	f003 02ff 	and.w	r2, r3, #255	@ 0xff
 8003dfe:	2b00      	cmp	r3, #0
 8003e00:	d079      	beq.n	8003ef6 <HAL_UART_Init+0x10a>
  }

  huart->gState = HAL_UART_STATE_BUSY;

  /* Disable the peripheral */
  __HAL_UART_DISABLE(huart);
 8003e02:	6823      	ldr	r3, [r4, #0]
  assert_param(IS_UART_MODE(huart->Init.Mode));

  /*-------------------------- USART CR2 Configuration -----------------------*/
  /* Configure the UART Stop Bits: Set STOP[13:12] bits
     according to huart->Init.StopBits value */
  MODIFY_REG(huart->Instance->CR2, USART_CR2_STOP, huart->Init.StopBits);
 8003e04:	68e0      	ldr	r0, [r4, #12]
  huart->gState = HAL_UART_STATE_BUSY;
 8003e06:	2224      	movs	r2, #36	@ 0x24
 8003e08:	f884 2041 	strb.w	r2, [r4, #65]	@ 0x41
  __HAL_UART_DISABLE(huart);
 8003e0c:	68da      	ldr	r2, [r3, #12]
 8003e0e:	f422 5200 	bic.w	r2, r2, #8192	@ 0x2000
 8003e12:	60da      	str	r2, [r3, #12]
  MODIFY_REG(huart->Instance->CR2, USART_CR2_STOP, huart->Init.StopBits);
 8003e14:	6919      	ldr	r1, [r3, #16]
     Set the M bits according to huart->Init.WordLength value
     Set PCE and PS bits according to huart->Init.Parity value
     Set TE and RE bits according to huart->Init.Mode value
     Set OVER8 bit according to huart->Init.OverSampling value */

  tmpreg = (uint32_t)huart->Init.WordLength | huart->Init.Parity | huart->Init.Mode | huart->Init.OverSampling;
 8003e16:	68a2      	ldr	r2, [r4, #8]
  MODIFY_REG(huart->Instance->CR2, USART_CR2_STOP, huart->Init.StopBits);
 8003e18:	f421 5140 	bic.w	r1, r1, #12288	@ 0x3000
 8003e1c:	4301      	orrs	r1, r0
  tmpreg = (uint32_t)huart->Init.WordLength | huart->Init.Parity | huart->Init.Mode | huart->Init.OverSampling;
 8003e1e:	6920      	ldr	r0, [r4, #16]
  MODIFY_REG(huart->Instance->CR2, USART_CR2_STOP, huart->Init.StopBits);
 8003e20:	6119      	str	r1, [r3, #16]
  tmpreg = (uint32_t)huart->Init.WordLength | huart->Init.Parity | huart->Init.Mode | huart->Init.OverSampling;
 8003e22:	4302      	orrs	r2, r0
 8003e24:	6960      	ldr	r0, [r4, #20]
  MODIFY_REG(huart->Instance->CR1,
 8003e26:	68d9      	ldr	r1, [r3, #12]
  tmpreg = (uint32_t)huart->Init.WordLength | huart->Init.Parity | huart->Init.Mode | huart->Init.OverSampling;
 8003e28:	4302      	orrs	r2, r0
 8003e2a:	69e0      	ldr	r0, [r4, #28]
  MODIFY_REG(huart->Instance->CR1,
 8003e2c:	f421 4116 	bic.w	r1, r1, #38400	@ 0x9600
 8003e30:	f021 010c 	bic.w	r1, r1, #12
  tmpreg = (uint32_t)huart->Init.WordLength | huart->Init.Parity | huart->Init.Mode | huart->Init.OverSampling;
 8003e34:	4302      	orrs	r2, r0
  MODIFY_REG(huart->Instance->CR1,
 8003e36:	430a      	orrs	r2, r1
 8003e38:	60da      	str	r2, [r3, #12]
             (uint32_t)(USART_CR1_M | USART_CR1_PCE | USART_CR1_PS | USART_CR1_TE | USART_CR1_RE | USART_CR1_OVER8),
             tmpreg);

  /*-------------------------- USART CR3 Configuration -----------------------*/
  /* Configure the UART HFC: Set CTSE and RTSE bits according to huart->Init.HwFlowCtl value */
  MODIFY_REG(huart->Instance->CR3, (USART_CR3_RTSE | USART_CR3_CTSE), huart->Init.HwFlowCtl);
 8003e3a:	695a      	ldr	r2, [r3, #20]
 8003e3c:	69a0      	ldr	r0, [r4, #24]
    if ((huart->Instance == USART1) || (huart->Instance == USART6) || (huart->Instance == UART9) || (huart->Instance == UART10))
    {
      pclk = HAL_RCC_GetPCLK2Freq();
    }
#elif defined(USART6)
    if ((huart->Instance == USART1) || (huart->Instance == USART6))
 8003e3e:	4931      	ldr	r1, [pc, #196]	@ (8003f04 <HAL_UART_Init+0x118>)
  MODIFY_REG(huart->Instance->CR3, (USART_CR3_RTSE | USART_CR3_CTSE), huart->Init.HwFlowCtl);
 8003e40:	f422 7240 	bic.w	r2, r2, #768	@ 0x300
 8003e44:	4302      	orrs	r2, r0
    if ((huart->Instance == USART1) || (huart->Instance == USART6))
 8003e46:	428b      	cmp	r3, r1
  MODIFY_REG(huart->Instance->CR3, (USART_CR3_RTSE | USART_CR3_CTSE), huart->Init.HwFlowCtl);
 8003e48:	615a      	str	r2, [r3, #20]
    if ((huart->Instance == USART1) || (huart->Instance == USART6))
 8003e4a:	d036      	beq.n	8003eba <HAL_UART_Init+0xce>
 8003e4c:	4a2e      	ldr	r2, [pc, #184]	@ (8003f08 <HAL_UART_Init+0x11c>)
 8003e4e:	4293      	cmp	r3, r2
 8003e50:	d033      	beq.n	8003eba <HAL_UART_Init+0xce>
      pclk = HAL_RCC_GetPCLK2Freq();
    }
#endif /* USART6 */
    else
    {
      pclk = HAL_RCC_GetPCLK1Freq();
 8003e52:	f7ff fed5 	bl	8003c00 <HAL_RCC_GetPCLK1Freq>
    }
  /*-------------------------- USART BRR Configuration ---------------------*/
  if (huart->Init.OverSampling == UART_OVERSAMPLING_8)
 8003e56:	69e2      	ldr	r2, [r4, #28]
  {
    huart->Instance->BRR = UART_BRR_SAMPLING8(pclk, huart->Init.BaudRate);
 8003e58:	2119      	movs	r1, #25
  if (huart->Init.OverSampling == UART_OVERSAMPLING_8)
 8003e5a:	f5b2 4f00 	cmp.w	r2, #32768	@ 0x8000
    huart->Instance->BRR = UART_BRR_SAMPLING8(pclk, huart->Init.BaudRate);
 8003e5e:	e9d4 5300 	ldrd	r5, r3, [r4]
 8003e62:	fba0 0101 	umull	r0, r1, r0, r1
  if (huart->Init.OverSampling == UART_OVERSAMPLING_8)
 8003e66:	d02b      	beq.n	8003ec0 <HAL_UART_Init+0xd4>
  }
  else
  {
    huart->Instance->BRR = UART_BRR_SAMPLING16(pclk, huart->Init.BaudRate);
 8003e68:	009a      	lsls	r2, r3, #2
 8003e6a:	0f9b      	lsrs	r3, r3, #30
 8003e6c:	f7fc fea2 	bl	8000bb4 <__aeabi_uldivmod>
 8003e70:	4a26      	ldr	r2, [pc, #152]	@ (8003f0c <HAL_UART_Init+0x120>)
 8003e72:	fba2 1300 	umull	r1, r3, r2, r0
 8003e76:	095b      	lsrs	r3, r3, #5
 8003e78:	2164      	movs	r1, #100	@ 0x64
 8003e7a:	fb01 0013 	mls	r0, r1, r3, r0
 8003e7e:	0100      	lsls	r0, r0, #4
 8003e80:	3032      	adds	r0, #50	@ 0x32
 8003e82:	fba2 2000 	umull	r2, r0, r2, r0
 8003e86:	011b      	lsls	r3, r3, #4
 8003e88:	eb03 1350 	add.w	r3, r3, r0, lsr #5
 8003e8c:	60ab      	str	r3, [r5, #8]
  CLEAR_BIT(huart->Instance->CR2, (USART_CR2_LINEN | USART_CR2_CLKEN));
 8003e8e:	692a      	ldr	r2, [r5, #16]
 8003e90:	f422 4290 	bic.w	r2, r2, #18432	@ 0x4800
 8003e94:	612a      	str	r2, [r5, #16]
  CLEAR_BIT(huart->Instance->CR3, (USART_CR3_SCEN | USART_CR3_HDSEL | USART_CR3_IREN));
 8003e96:	696a      	ldr	r2, [r5, #20]
 8003e98:	f022 022a 	bic.w	r2, r2, #42	@ 0x2a
 8003e9c:	616a      	str	r2, [r5, #20]
  __HAL_UART_ENABLE(huart);
 8003e9e:	68ea      	ldr	r2, [r5, #12]
  huart->ErrorCode = HAL_UART_ERROR_NONE;
 8003ea0:	2300      	movs	r3, #0
  huart->gState = HAL_UART_STATE_READY;
 8003ea2:	2120      	movs	r1, #32
  __HAL_UART_ENABLE(huart);
 8003ea4:	f442 5200 	orr.w	r2, r2, #8192	@ 0x2000
 8003ea8:	60ea      	str	r2, [r5, #12]
  huart->ErrorCode = HAL_UART_ERROR_NONE;
 8003eaa:	6463      	str	r3, [r4, #68]	@ 0x44
  huart->gState = HAL_UART_STATE_READY;
 8003eac:	f884 1041 	strb.w	r1, [r4, #65]	@ 0x41
  huart->RxState = HAL_UART_STATE_READY;
 8003eb0:	f884 1042 	strb.w	r1, [r4, #66]	@ 0x42
  return HAL_OK;
 8003eb4:	4618      	mov	r0, r3
  huart->RxEventType = HAL_UART_RXEVENT_TC;
 8003eb6:	6363      	str	r3, [r4, #52]	@ 0x34
}
 8003eb8:	bd38      	pop	{r3, r4, r5, pc}
      pclk = HAL_RCC_GetPCLK2Freq();
 8003eba:	f7ff feb1 	bl	8003c20 <HAL_RCC_GetPCLK2Freq>
 8003ebe:	e7ca      	b.n	8003e56 <HAL_UART_Init+0x6a>
    huart->Instance->BRR = UART_BRR_SAMPLING8(pclk, huart->Init.BaudRate);
 8003ec0:	18da      	adds	r2, r3, r3
 8003ec2:	f04f 0300 	mov.w	r3, #0
 8003ec6:	415b      	adcs	r3, r3
 8003ec8:	f7fc fe74 	bl	8000bb4 <__aeabi_uldivmod>
 8003ecc:	4a0f      	ldr	r2, [pc, #60]	@ (8003f0c <HAL_UART_Init+0x120>)
 8003ece:	fba2 3100 	umull	r3, r1, r2, r0
 8003ed2:	0949      	lsrs	r1, r1, #5
 8003ed4:	2364      	movs	r3, #100	@ 0x64
 8003ed6:	fb03 0311 	mls	r3, r3, r1, r0
 8003eda:	00db      	lsls	r3, r3, #3
 8003edc:	3332      	adds	r3, #50	@ 0x32
 8003ede:	fba2 2303 	umull	r2, r3, r2, r3
 8003ee2:	f3c3 1242 	ubfx	r2, r3, #5, #3
 8003ee6:	091b      	lsrs	r3, r3, #4
 8003ee8:	eb02 1201 	add.w	r2, r2, r1, lsl #4
 8003eec:	f403 73f8 	and.w	r3, r3, #496	@ 0x1f0
 8003ef0:	4413      	add	r3, r2
 8003ef2:	60ab      	str	r3, [r5, #8]
 8003ef4:	e7cb      	b.n	8003e8e <HAL_UART_Init+0xa2>
    huart->Lock = HAL_UNLOCKED;
 8003ef6:	f880 2040 	strb.w	r2, [r0, #64]	@ 0x40
    HAL_UART_MspInit(huart);
 8003efa:	f7fd ff41 	bl	8001d80 <HAL_UART_MspInit>
 8003efe:	e780      	b.n	8003e02 <HAL_UART_Init+0x16>
    return HAL_ERROR;
 8003f00:	2001      	movs	r0, #1
}
 8003f02:	4770      	bx	lr
 8003f04:	40011000 	.word	0x40011000
 8003f08:	40011400 	.word	0x40011400
 8003f0c:	51eb851f 	.word	0x51eb851f

08003f10 <HAL_UART_TxCpltCallback>:
__weak void HAL_UART_TxCpltCallback(UART_HandleTypeDef *huart)
 8003f10:	4770      	bx	lr
 8003f12:	bf00      	nop

08003f14 <HAL_UART_RxHalfCpltCallback>:
__weak void HAL_UART_RxHalfCpltCallback(UART_HandleTypeDef *huart)
 8003f14:	4770      	bx	lr
 8003f16:	bf00      	nop

08003f18 <HAL_UART_ErrorCallback>:
__weak void HAL_UART_ErrorCallback(UART_HandleTypeDef *huart)
 8003f18:	4770      	bx	lr
 8003f1a:	bf00      	nop

08003f1c <UART_DMAError>:
{
 8003f1c:	b508      	push	{r3, lr}
  UART_HandleTypeDef *huart = (UART_HandleTypeDef *)((DMA_HandleTypeDef *)hdma)->Parent;
 8003f1e:	6b80      	ldr	r0, [r0, #56]	@ 0x38
  dmarequest = HAL_IS_BIT_SET(huart->Instance->CR3, USART_CR3_DMAT);
 8003f20:	6803      	ldr	r3, [r0, #0]
 8003f22:	6959      	ldr	r1, [r3, #20]
  if ((huart->gState == HAL_UART_STATE_BUSY_TX) && dmarequest)
 8003f24:	f890 2041 	ldrb.w	r2, [r0, #65]	@ 0x41
 8003f28:	2a21      	cmp	r2, #33	@ 0x21
 8003f2a:	d00b      	beq.n	8003f44 <UART_DMAError+0x28>
  dmarequest = HAL_IS_BIT_SET(huart->Instance->CR3, USART_CR3_DMAR);
 8003f2c:	6959      	ldr	r1, [r3, #20]
  if ((huart->RxState == HAL_UART_STATE_BUSY_RX) && dmarequest)
 8003f2e:	f890 2042 	ldrb.w	r2, [r0, #66]	@ 0x42
 8003f32:	2a22      	cmp	r2, #34	@ 0x22
 8003f34:	d01e      	beq.n	8003f74 <UART_DMAError+0x58>
  huart->ErrorCode |= HAL_UART_ERROR_DMA;
 8003f36:	6c43      	ldr	r3, [r0, #68]	@ 0x44
 8003f38:	f043 0310 	orr.w	r3, r3, #16
 8003f3c:	6443      	str	r3, [r0, #68]	@ 0x44
  HAL_UART_ErrorCallback(huart);
 8003f3e:	f7ff ffeb 	bl	8003f18 <HAL_UART_ErrorCallback>
}
 8003f42:	bd08      	pop	{r3, pc}
  if ((huart->gState == HAL_UART_STATE_BUSY_TX) && dmarequest)
 8003f44:	0609      	lsls	r1, r1, #24
 8003f46:	d5f1      	bpl.n	8003f2c <UART_DMAError+0x10>
    huart->TxXferCount = 0x00U;
 8003f48:	2200      	movs	r2, #0
 8003f4a:	84c2      	strh	r2, [r0, #38]	@ 0x26
   __ASM volatile ("ldrex %0, %1" : "=r" (result) : "Q" (*addr) );
 8003f4c:	f103 020c 	add.w	r2, r3, #12
 8003f50:	e852 2f00 	ldrex	r2, [r2]
  ATOMIC_CLEAR_BIT(huart->Instance->CR1, (USART_CR1_TXEIE | USART_CR1_TCIE));
 8003f54:	f022 02c0 	bic.w	r2, r2, #192	@ 0xc0
   __ASM volatile ("strex %0, %2, %1" : "=&r" (result), "=Q" (*addr) : "r" (value) );
 8003f58:	f103 0c0c 	add.w	ip, r3, #12
 8003f5c:	e84c 2100 	strex	r1, r2, [ip]
 8003f60:	2900      	cmp	r1, #0
 8003f62:	d1f3      	bne.n	8003f4c <UART_DMAError+0x30>
  huart->gState = HAL_UART_STATE_READY;
 8003f64:	2220      	movs	r2, #32
 8003f66:	f880 2041 	strb.w	r2, [r0, #65]	@ 0x41
  dmarequest = HAL_IS_BIT_SET(huart->Instance->CR3, USART_CR3_DMAR);
 8003f6a:	6959      	ldr	r1, [r3, #20]
  if ((huart->RxState == HAL_UART_STATE_BUSY_RX) && dmarequest)
 8003f6c:	f890 2042 	ldrb.w	r2, [r0, #66]	@ 0x42
 8003f70:	2a22      	cmp	r2, #34	@ 0x22
 8003f72:	d1e0      	bne.n	8003f36 <UART_DMAError+0x1a>
 8003f74:	064a      	lsls	r2, r1, #25
 8003f76:	d5de      	bpl.n	8003f36 <UART_DMAError+0x1a>
    huart->RxXferCount = 0x00U;
 8003f78:	2200      	movs	r2, #0
 8003f7a:	85c2      	strh	r2, [r0, #46]	@ 0x2e
   __ASM volatile ("ldrex %0, %1" : "=r" (result) : "Q" (*addr) );
 8003f7c:	f103 020c 	add.w	r2, r3, #12
 8003f80:	e852 2f00 	ldrex	r2, [r2]
  ATOMIC_CLEAR_BIT(huart->Instance->CR1, (USART_CR1_RXNEIE | USART_CR1_PEIE));
 8003f84:	f422 7290 	bic.w	r2, r2, #288	@ 0x120
   __ASM volatile ("strex %0, %2, %1" : "=&r" (result), "=Q" (*addr) : "r" (value) );
 8003f88:	f103 0c0c 	add.w	ip, r3, #12
 8003f8c:	e84c 2100 	strex	r1, r2, [ip]
 8003f90:	2900      	cmp	r1, #0
 8003f92:	d1f3      	bne.n	8003f7c <UART_DMAError+0x60>
   __ASM volatile ("ldrex %0, %1" : "=r" (result) : "Q" (*addr) );
 8003f94:	f103 0214 	add.w	r2, r3, #20
 8003f98:	e852 2f00 	ldrex	r2, [r2]
  ATOMIC_CLEAR_BIT(huart->Instance->CR3, USART_CR3_EIE);
 8003f9c:	f022 0201 	bic.w	r2, r2, #1
   __ASM volatile ("strex %0, %2, %1" : "=&r" (result), "=Q" (*addr) : "r" (value) );
 8003fa0:	f103 0c14 	add.w	ip, r3, #20
 8003fa4:	e84c 2100 	strex	r1, r2, [ip]
 8003fa8:	2900      	cmp	r1, #0
 8003faa:	d1f3      	bne.n	8003f94 <UART_DMAError+0x78>
  if (huart->ReceptionType == HAL_UART_RECEPTION_TOIDLE)
 8003fac:	6b02      	ldr	r2, [r0, #48]	@ 0x30
 8003fae:	2a01      	cmp	r2, #1
 8003fb0:	d005      	beq.n	8003fbe <UART_DMAError+0xa2>
  huart->RxState = HAL_UART_STATE_READY;
 8003fb2:	2220      	movs	r2, #32
  huart->ReceptionType = HAL_UART_RECEPTION_STANDARD;
 8003fb4:	2300      	movs	r3, #0
  huart->RxState = HAL_UART_STATE_READY;
 8003fb6:	f880 2042 	strb.w	r2, [r0, #66]	@ 0x42
  huart->ReceptionType = HAL_UART_RECEPTION_STANDARD;
 8003fba:	6303      	str	r3, [r0, #48]	@ 0x30
}
 8003fbc:	e7bb      	b.n	8003f36 <UART_DMAError+0x1a>
   __ASM volatile ("ldrex %0, %1" : "=r" (result) : "Q" (*addr) );
 8003fbe:	f103 020c 	add.w	r2, r3, #12
 8003fc2:	e852 2f00 	ldrex	r2, [r2]
    ATOMIC_CLEAR_BIT(huart->Instance->CR1, USART_CR1_IDLEIE);
 8003fc6:	f022 0210 	bic.w	r2, r2, #16
   __ASM volatile ("strex %0, %2, %1" : "=&r" (result), "=Q" (*addr) : "r" (value) );
 8003fca:	f103 0c0c 	add.w	ip, r3, #12
 8003fce:	e84c 2100 	strex	r1, r2, [ip]
 8003fd2:	2900      	cmp	r1, #0
 8003fd4:	d1f3      	bne.n	8003fbe <UART_DMAError+0xa2>
 8003fd6:	e7ec      	b.n	8003fb2 <UART_DMAError+0x96>

08003fd8 <UART_DMAAbortOnError>:
{
 8003fd8:	b508      	push	{r3, lr}
  UART_HandleTypeDef *huart = (UART_HandleTypeDef *)((DMA_HandleTypeDef *)hdma)->Parent;
 8003fda:	6b80      	ldr	r0, [r0, #56]	@ 0x38
  huart->RxXferCount = 0x00U;
 8003fdc:	2300      	movs	r3, #0
 8003fde:	85c3      	strh	r3, [r0, #46]	@ 0x2e
  huart->TxXferCount = 0x00U;
 8003fe0:	84c3      	strh	r3, [r0, #38]	@ 0x26
  HAL_UART_ErrorCallback(huart);
 8003fe2:	f7ff ff99 	bl	8003f18 <HAL_UART_ErrorCallback>
}
 8003fe6:	bd08      	pop	{r3, pc}

08003fe8 <HAL_UARTEx_RxEventCallback>:
}
 8003fe8:	4770      	bx	lr
 8003fea:	bf00      	nop

08003fec <UART_DMARxHalfCplt>:
  UART_HandleTypeDef *huart = (UART_HandleTypeDef *)((DMA_HandleTypeDef *)hdma)->Parent;
 8003fec:	6b80      	ldr	r0, [r0, #56]	@ 0x38
{
 8003fee:	b508      	push	{r3, lr}
  huart->RxEventType = HAL_UART_RXEVENT_HT;
 8003ff0:	2301      	movs	r3, #1
 8003ff2:	6343      	str	r3, [r0, #52]	@ 0x34
  if (huart->ReceptionType == HAL_UART_RECEPTION_TOIDLE)
 8003ff4:	6b03      	ldr	r3, [r0, #48]	@ 0x30
 8003ff6:	2b01      	cmp	r3, #1
 8003ff8:	d002      	beq.n	8004000 <UART_DMARxHalfCplt+0x14>
    HAL_UART_RxHalfCpltCallback(huart);
 8003ffa:	f7ff ff8b 	bl	8003f14 <HAL_UART_RxHalfCpltCallback>
}
 8003ffe:	bd08      	pop	{r3, pc}
    HAL_UARTEx_RxEventCallback(huart, huart->RxXferSize / 2U);
 8004000:	8d81      	ldrh	r1, [r0, #44]	@ 0x2c
 8004002:	0849      	lsrs	r1, r1, #1
 8004004:	f7ff fff0 	bl	8003fe8 <HAL_UARTEx_RxEventCallback>
}
 8004008:	bd08      	pop	{r3, pc}
 800400a:	bf00      	nop

0800400c <UART_DMAReceiveCplt>:
{
 800400c:	b508      	push	{r3, lr}
  if ((hdma->Instance->CR & DMA_SxCR_CIRC) == 0U)
 800400e:	6803      	ldr	r3, [r0, #0]
  UART_HandleTypeDef *huart = (UART_HandleTypeDef *)((DMA_HandleTypeDef *)hdma)->Parent;
 8004010:	6b80      	ldr	r0, [r0, #56]	@ 0x38
  if ((hdma->Instance->CR & DMA_SxCR_CIRC) == 0U)
 8004012:	681a      	ldr	r2, [r3, #0]
 8004014:	f412 7280 	ands.w	r2, r2, #256	@ 0x100
 8004018:	d12b      	bne.n	8004072 <UART_DMAReceiveCplt+0x66>
    huart->RxXferCount = 0U;
 800401a:	6803      	ldr	r3, [r0, #0]
 800401c:	85c2      	strh	r2, [r0, #46]	@ 0x2e
   __ASM volatile ("ldrex %0, %1" : "=r" (result) : "Q" (*addr) );
 800401e:	f103 020c 	add.w	r2, r3, #12
 8004022:	e852 2f00 	ldrex	r2, [r2]
    ATOMIC_CLEAR_BIT(huart->Instance->CR1, USART_CR1_PEIE);
 8004026:	f422 7280 	bic.w	r2, r2, #256	@ 0x100
   __ASM volatile ("strex %0, %2, %1" : "=&r" (result), "=Q" (*addr) : "r" (value) );
 800402a:	f103 0c0c 	add.w	ip, r3, #12
 800402e:	e84c 2100 	strex	r1, r2, [ip]
 8004032:	2900      	cmp	r1, #0
 8004034:	d1f3      	bne.n	800401e <UART_DMAReceiveCplt+0x12>
   __ASM volatile ("ldrex %0, %1" : "=r" (result) : "Q" (*addr) );
 8004036:	f103 0214 	add.w	r2, r3, #20
 800403a:	e852 2f00 	ldrex	r2, [r2]
    ATOMIC_CLEAR_BIT(huart->Instance->CR3, USART_CR3_EIE);
 800403e:	f022 0201 	bic.w	r2, r2, #1
   __ASM volatile ("strex %0, %2, %1" : "=&r" (result), "=Q" (*addr) : "r" (value) );
 8004042:	f103 0c14 	add.w	ip, r3, #20
 8004046:	e84c 2100 	strex	r1, r2, [ip]
 800404a:	2900      	cmp	r1, #0
 800404c:	d1f3      	bne.n	8004036 <UART_DMAReceiveCplt+0x2a>
   __ASM volatile ("ldrex %0, %1" : "=r" (result) : "Q" (*addr) );
 800404e:	f103 0214 	add.w	r2, r3, #20
 8004052:	e852 2f00 	ldrex	r2, [r2]
    ATOMIC_CLEAR_BIT(huart->Instance->CR3, USART_CR3_DMAR);
 8004056:	f022 0240 	bic.w	r2, r2, #64	@ 0x40
   __ASM volatile ("strex %0, %2, %1" : "=&r" (result), "=Q" (*addr) : "r" (value) );
 800405a:	f103 0c14 	add.w	ip, r3, #20
 800405e:	e84c 2100 	strex	r1, r2, [ip]
 8004062:	2900      	cmp	r1, #0
 8004064:	d1f3      	bne.n	800404e <UART_DMAReceiveCplt+0x42>
    huart->RxState = HAL_UART_STATE_READY;
 8004066:	2220      	movs	r2, #32
 8004068:	f880 2042 	strb.w	r2, [r0, #66]	@ 0x42
    if (huart->ReceptionType == HAL_UART_RECEPTION_TOIDLE)
 800406c:	6b02      	ldr	r2, [r0, #48]	@ 0x30
 800406e:	2a01      	cmp	r2, #1
 8004070:	d007      	beq.n	8004082 <UART_DMAReceiveCplt+0x76>
  huart->RxEventType = HAL_UART_RXEVENT_TC;
 8004072:	2300      	movs	r3, #0
 8004074:	6343      	str	r3, [r0, #52]	@ 0x34
  if (huart->ReceptionType == HAL_UART_RECEPTION_TOIDLE)
 8004076:	6b03      	ldr	r3, [r0, #48]	@ 0x30
 8004078:	2b01      	cmp	r3, #1
 800407a:	d00f      	beq.n	800409c <UART_DMAReceiveCplt+0x90>
    HAL_UART_RxCpltCallback(huart);
 800407c:	f7fc ffb4 	bl	8000fe8 <HAL_UART_RxCpltCallback>
}
 8004080:	bd08      	pop	{r3, pc}
   __ASM volatile ("ldrex %0, %1" : "=r" (result) : "Q" (*addr) );
 8004082:	f103 020c 	add.w	r2, r3, #12
 8004086:	e852 2f00 	ldrex	r2, [r2]
      ATOMIC_CLEAR_BIT(huart->Instance->CR1, USART_CR1_IDLEIE);
 800408a:	f022 0210 	bic.w	r2, r2, #16
   __ASM volatile ("strex %0, %2, %1" : "=&r" (result), "=Q" (*addr) : "r" (value) );
 800408e:	f103 0c0c 	add.w	ip, r3, #12
 8004092:	e84c 2100 	strex	r1, r2, [ip]
 8004096:	2900      	cmp	r1, #0
 8004098:	d1f3      	bne.n	8004082 <UART_DMAReceiveCplt+0x76>
 800409a:	e7ea      	b.n	8004072 <UART_DMAReceiveCplt+0x66>
    HAL_UARTEx_RxEventCallback(huart, huart->RxXferSize);
 800409c:	8d81      	ldrh	r1, [r0, #44]	@ 0x2c
 800409e:	f7ff ffa3 	bl	8003fe8 <HAL_UARTEx_RxEventCallback>
}
 80040a2:	bd08      	pop	{r3, pc}

080040a4 <UART_Receive_IT.part.0.isra.0>:
    if ((huart->Init.WordLength == UART_WORDLENGTH_9B) && (huart->Init.Parity == UART_PARITY_NONE))
 80040a4:	6883      	ldr	r3, [r0, #8]
      *pdata16bits = (uint16_t)(huart->Instance->DR & (uint16_t)0x01FF);
 80040a6:	6801      	ldr	r1, [r0, #0]
      pdata16bits = (uint16_t *) huart->pRxBuffPtr;
 80040a8:	6a82      	ldr	r2, [r0, #40]	@ 0x28
    if ((huart->Init.WordLength == UART_WORDLENGTH_9B) && (huart->Init.Parity == UART_PARITY_NONE))
 80040aa:	f5b3 5f80 	cmp.w	r3, #4096	@ 0x1000
 80040ae:	d042      	beq.n	8004136 <UART_Receive_IT.part.0.isra.0+0x92>
      if ((huart->Init.WordLength == UART_WORDLENGTH_9B) || ((huart->Init.WordLength == UART_WORDLENGTH_8B) && (huart->Init.Parity == UART_PARITY_NONE)))
 80040b0:	2b00      	cmp	r3, #0
 80040b2:	d039      	beq.n	8004128 <UART_Receive_IT.part.0.isra.0+0x84>
        *pdata8bits = (uint8_t)(huart->Instance->DR & (uint8_t)0x007F);
 80040b4:	684b      	ldr	r3, [r1, #4]
 80040b6:	f003 037f 	and.w	r3, r3, #127	@ 0x7f
        *pdata8bits = (uint8_t)(huart->Instance->DR & (uint8_t)0x00FF);
 80040ba:	7013      	strb	r3, [r2, #0]
      huart->pRxBuffPtr += 1U;
 80040bc:	6a82      	ldr	r2, [r0, #40]	@ 0x28
 80040be:	3201      	adds	r2, #1
    if (--huart->RxXferCount == 0U)
 80040c0:	8dc3      	ldrh	r3, [r0, #46]	@ 0x2e
      huart->pRxBuffPtr += 2U;
 80040c2:	6282      	str	r2, [r0, #40]	@ 0x28
    if (--huart->RxXferCount == 0U)
 80040c4:	3b01      	subs	r3, #1
 80040c6:	b29b      	uxth	r3, r3
 80040c8:	85c3      	strh	r3, [r0, #46]	@ 0x2e
 80040ca:	2b00      	cmp	r3, #0
 80040cc:	d132      	bne.n	8004134 <UART_Receive_IT.part.0.isra.0+0x90>
      __HAL_UART_DISABLE_IT(huart, UART_IT_RXNE);
 80040ce:	6802      	ldr	r2, [r0, #0]
 80040d0:	68d1      	ldr	r1, [r2, #12]
 80040d2:	f021 0120 	bic.w	r1, r1, #32
static HAL_StatusTypeDef UART_Receive_IT(UART_HandleTypeDef *huart)
 80040d6:	b500      	push	{lr}
      __HAL_UART_DISABLE_IT(huart, UART_IT_RXNE);
 80040d8:	60d1      	str	r1, [r2, #12]
      __HAL_UART_DISABLE_IT(huart, UART_IT_PE);
 80040da:	68d1      	ldr	r1, [r2, #12]
 80040dc:	f421 7180 	bic.w	r1, r1, #256	@ 0x100
 80040e0:	60d1      	str	r1, [r2, #12]
      __HAL_UART_DISABLE_IT(huart, UART_IT_ERR);
 80040e2:	6951      	ldr	r1, [r2, #20]
      huart->RxState = HAL_UART_STATE_READY;
 80040e4:	f04f 0c20 	mov.w	ip, #32
      __HAL_UART_DISABLE_IT(huart, UART_IT_ERR);
 80040e8:	f021 0101 	bic.w	r1, r1, #1
 80040ec:	6151      	str	r1, [r2, #20]
      huart->RxState = HAL_UART_STATE_READY;
 80040ee:	f880 c042 	strb.w	ip, [r0, #66]	@ 0x42
      huart->RxEventType = HAL_UART_RXEVENT_TC;
 80040f2:	6343      	str	r3, [r0, #52]	@ 0x34
      if (huart->ReceptionType == HAL_UART_RECEPTION_TOIDLE)
 80040f4:	6b01      	ldr	r1, [r0, #48]	@ 0x30
 80040f6:	2901      	cmp	r1, #1
static HAL_StatusTypeDef UART_Receive_IT(UART_HandleTypeDef *huart)
 80040f8:	b083      	sub	sp, #12
      if (huart->ReceptionType == HAL_UART_RECEPTION_TOIDLE)
 80040fa:	d125      	bne.n	8004148 <UART_Receive_IT.part.0.isra.0+0xa4>
        huart->ReceptionType = HAL_UART_RECEPTION_STANDARD;
 80040fc:	6303      	str	r3, [r0, #48]	@ 0x30
   __ASM volatile ("ldrex %0, %1" : "=r" (result) : "Q" (*addr) );
 80040fe:	f102 030c 	add.w	r3, r2, #12
 8004102:	e853 3f00 	ldrex	r3, [r3]
        ATOMIC_CLEAR_BIT(huart->Instance->CR1, USART_CR1_IDLEIE);
 8004106:	f023 0310 	bic.w	r3, r3, #16
   __ASM volatile ("strex %0, %2, %1" : "=&r" (result), "=Q" (*addr) : "r" (value) );
 800410a:	f102 0c0c 	add.w	ip, r2, #12
 800410e:	e84c 3100 	strex	r1, r3, [ip]
 8004112:	2900      	cmp	r1, #0
 8004114:	d1f3      	bne.n	80040fe <UART_Receive_IT.part.0.isra.0+0x5a>
        if (__HAL_UART_GET_FLAG(huart, UART_FLAG_IDLE))
 8004116:	6813      	ldr	r3, [r2, #0]
 8004118:	06db      	lsls	r3, r3, #27
 800411a:	d41a      	bmi.n	8004152 <UART_Receive_IT.part.0.isra.0+0xae>
        HAL_UARTEx_RxEventCallback(huart, huart->RxXferSize);
 800411c:	8d81      	ldrh	r1, [r0, #44]	@ 0x2c
 800411e:	f7ff ff63 	bl	8003fe8 <HAL_UARTEx_RxEventCallback>
}
 8004122:	b003      	add	sp, #12
 8004124:	f85d fb04 	ldr.w	pc, [sp], #4
      if ((huart->Init.WordLength == UART_WORDLENGTH_9B) || ((huart->Init.WordLength == UART_WORDLENGTH_8B) && (huart->Init.Parity == UART_PARITY_NONE)))
 8004128:	6903      	ldr	r3, [r0, #16]
 800412a:	2b00      	cmp	r3, #0
 800412c:	d1c2      	bne.n	80040b4 <UART_Receive_IT.part.0.isra.0+0x10>
        *pdata8bits = (uint8_t)(huart->Instance->DR & (uint8_t)0x00FF);
 800412e:	684b      	ldr	r3, [r1, #4]
 8004130:	b2db      	uxtb	r3, r3
 8004132:	e7c2      	b.n	80040ba <UART_Receive_IT.part.0.isra.0+0x16>
 8004134:	4770      	bx	lr
    if ((huart->Init.WordLength == UART_WORDLENGTH_9B) && (huart->Init.Parity == UART_PARITY_NONE))
 8004136:	6903      	ldr	r3, [r0, #16]
 8004138:	2b00      	cmp	r3, #0
 800413a:	d1f8      	bne.n	800412e <UART_Receive_IT.part.0.isra.0+0x8a>
      *pdata16bits = (uint16_t)(huart->Instance->DR & (uint16_t)0x01FF);
 800413c:	684b      	ldr	r3, [r1, #4]
 800413e:	f3c3 0308 	ubfx	r3, r3, #0, #9
 8004142:	f822 3b02 	strh.w	r3, [r2], #2
      huart->pRxBuffPtr += 2U;
 8004146:	e7bb      	b.n	80040c0 <UART_Receive_IT.part.0.isra.0+0x1c>
        HAL_UART_RxCpltCallback(huart);
 8004148:	f7fc ff4e 	bl	8000fe8 <HAL_UART_RxCpltCallback>
}
 800414c:	b003      	add	sp, #12
 800414e:	f85d fb04 	ldr.w	pc, [sp], #4
          __HAL_UART_CLEAR_IDLEFLAG(huart);
 8004152:	2300      	movs	r3, #0
 8004154:	9301      	str	r3, [sp, #4]
 8004156:	6813      	ldr	r3, [r2, #0]
 8004158:	9301      	str	r3, [sp, #4]
 800415a:	6853      	ldr	r3, [r2, #4]
 800415c:	9301      	str	r3, [sp, #4]
 800415e:	9b01      	ldr	r3, [sp, #4]
 8004160:	e7dc      	b.n	800411c <UART_Receive_IT.part.0.isra.0+0x78>
 8004162:	bf00      	nop

08004164 <HAL_UART_IRQHandler>:
{
 8004164:	b530      	push	{r4, r5, lr}
  uint32_t isrflags   = READ_REG(huart->Instance->SR);
 8004166:	6803      	ldr	r3, [r0, #0]
 8004168:	681a      	ldr	r2, [r3, #0]
  uint32_t cr1its     = READ_REG(huart->Instance->CR1);
 800416a:	68dd      	ldr	r5, [r3, #12]
  uint32_t cr3its     = READ_REG(huart->Instance->CR3);
 800416c:	6959      	ldr	r1, [r3, #20]
  if (errorflags == RESET)
 800416e:	f012 0f0f 	tst.w	r2, #15
{
 8004172:	b083      	sub	sp, #12
 8004174:	4604      	mov	r4, r0
  if (errorflags == RESET)
 8004176:	d170      	bne.n	800425a <HAL_UART_IRQHandler+0xf6>
    if (((isrflags & USART_SR_RXNE) != RESET) && ((cr1its & USART_CR1_RXNEIE) != RESET))
 8004178:	0691      	lsls	r1, r2, #26
 800417a:	d502      	bpl.n	8004182 <HAL_UART_IRQHandler+0x1e>
 800417c:	06a9      	lsls	r1, r5, #26
 800417e:	f100 80a1 	bmi.w	80042c4 <HAL_UART_IRQHandler+0x160>
  if ((huart->ReceptionType == HAL_UART_RECEPTION_TOIDLE)
 8004182:	6b21      	ldr	r1, [r4, #48]	@ 0x30
 8004184:	2901      	cmp	r1, #1
 8004186:	d00b      	beq.n	80041a0 <HAL_UART_IRQHandler+0x3c>
  if (((isrflags & USART_SR_TXE) != RESET) && ((cr1its & USART_CR1_TXEIE) != RESET))
 8004188:	0610      	lsls	r0, r2, #24
 800418a:	d502      	bpl.n	8004192 <HAL_UART_IRQHandler+0x2e>
 800418c:	0629      	lsls	r1, r5, #24
 800418e:	f100 80a3 	bmi.w	80042d8 <HAL_UART_IRQHandler+0x174>
  if (((isrflags & USART_SR_TC) != RESET) && ((cr1its & USART_CR1_TCIE) != RESET))
 8004192:	0652      	lsls	r2, r2, #25
 8004194:	d502      	bpl.n	800419c <HAL_UART_IRQHandler+0x38>
 8004196:	0668      	lsls	r0, r5, #25
 8004198:	f100 80bd 	bmi.w	8004316 <HAL_UART_IRQHandler+0x1b2>
}
 800419c:	b003      	add	sp, #12
 800419e:	bd30      	pop	{r4, r5, pc}
      && ((isrflags & USART_SR_IDLE) != 0U)
 80041a0:	06d0      	lsls	r0, r2, #27
 80041a2:	d5f1      	bpl.n	8004188 <HAL_UART_IRQHandler+0x24>
      && ((cr1its & USART_SR_IDLE) != 0U))
 80041a4:	06e9      	lsls	r1, r5, #27
 80041a6:	d5ef      	bpl.n	8004188 <HAL_UART_IRQHandler+0x24>
    __HAL_UART_CLEAR_IDLEFLAG(huart);
 80041a8:	2200      	movs	r2, #0
 80041aa:	9201      	str	r2, [sp, #4]
 80041ac:	681a      	ldr	r2, [r3, #0]
 80041ae:	9201      	str	r2, [sp, #4]
 80041b0:	685a      	ldr	r2, [r3, #4]
 80041b2:	9201      	str	r2, [sp, #4]
 80041b4:	9a01      	ldr	r2, [sp, #4]
    if (HAL_IS_BIT_SET(huart->Instance->CR3, USART_CR3_DMAR))
 80041b6:	695a      	ldr	r2, [r3, #20]
 80041b8:	0655      	lsls	r5, r2, #25
 80041ba:	f140 8136 	bpl.w	800442a <HAL_UART_IRQHandler+0x2c6>
      uint16_t nb_remaining_rx_data = (uint16_t) __HAL_DMA_GET_COUNTER(huart->hdmarx);
 80041be:	6be0      	ldr	r0, [r4, #60]	@ 0x3c
 80041c0:	6802      	ldr	r2, [r0, #0]
 80041c2:	6852      	ldr	r2, [r2, #4]
 80041c4:	b292      	uxth	r2, r2
      if ((nb_remaining_rx_data > 0U)
 80041c6:	2a00      	cmp	r2, #0
 80041c8:	d0e8      	beq.n	800419c <HAL_UART_IRQHandler+0x38>
          && (nb_remaining_rx_data < huart->RxXferSize))
 80041ca:	8da1      	ldrh	r1, [r4, #44]	@ 0x2c
 80041cc:	4291      	cmp	r1, r2
 80041ce:	d9e5      	bls.n	800419c <HAL_UART_IRQHandler+0x38>
        huart->RxXferCount = nb_remaining_rx_data;
 80041d0:	85e2      	strh	r2, [r4, #46]	@ 0x2e
        if (huart->hdmarx->Init.Mode != DMA_CIRCULAR)
 80041d2:	69c2      	ldr	r2, [r0, #28]
 80041d4:	f5b2 7f80 	cmp.w	r2, #256	@ 0x100
 80041d8:	d036      	beq.n	8004248 <HAL_UART_IRQHandler+0xe4>
   __ASM volatile ("ldrex %0, %1" : "=r" (result) : "Q" (*addr) );
 80041da:	f103 020c 	add.w	r2, r3, #12
 80041de:	e852 2f00 	ldrex	r2, [r2]
          ATOMIC_CLEAR_BIT(huart->Instance->CR1, USART_CR1_PEIE);
 80041e2:	f422 7280 	bic.w	r2, r2, #256	@ 0x100
   __ASM volatile ("strex %0, %2, %1" : "=&r" (result), "=Q" (*addr) : "r" (value) );
 80041e6:	f103 050c 	add.w	r5, r3, #12
 80041ea:	e845 2100 	strex	r1, r2, [r5]
 80041ee:	2900      	cmp	r1, #0
 80041f0:	d1f3      	bne.n	80041da <HAL_UART_IRQHandler+0x76>
   __ASM volatile ("ldrex %0, %1" : "=r" (result) : "Q" (*addr) );
 80041f2:	f103 0214 	add.w	r2, r3, #20
 80041f6:	e852 2f00 	ldrex	r2, [r2]
          ATOMIC_CLEAR_BIT(huart->Instance->CR3, USART_CR3_EIE);
 80041fa:	f022 0201 	bic.w	r2, r2, #1
   __ASM volatile ("strex %0, %2, %1" : "=&r" (result), "=Q" (*addr) : "r" (value) );
 80041fe:	f103 0514 	add.w	r5, r3, #20
 8004202:	e845 2100 	strex	r1, r2, [r5]
 8004206:	2900      	cmp	r1, #0
 8004208:	d1f3      	bne.n	80041f2 <HAL_UART_IRQHandler+0x8e>
   __ASM volatile ("ldrex %0, %1" : "=r" (result) : "Q" (*addr) );
 800420a:	f103 0214 	add.w	r2, r3, #20
 800420e:	e852 2f00 	ldrex	r2, [r2]
          ATOMIC_CLEAR_BIT(huart->Instance->CR3, USART_CR3_DMAR);
 8004212:	f022 0240 	bic.w	r2, r2, #64	@ 0x40
   __ASM volatile ("strex %0, %2, %1" : "=&r" (result), "=Q" (*addr) : "r" (value) );
 8004216:	f103 0514 	add.w	r5, r3, #20
 800421a:	e845 2100 	strex	r1, r2, [r5]
 800421e:	2900      	cmp	r1, #0
 8004220:	d1f3      	bne.n	800420a <HAL_UART_IRQHandler+0xa6>
          huart->RxState = HAL_UART_STATE_READY;
 8004222:	2220      	movs	r2, #32
 8004224:	f884 2042 	strb.w	r2, [r4, #66]	@ 0x42
          huart->ReceptionType = HAL_UART_RECEPTION_STANDARD;
 8004228:	6321      	str	r1, [r4, #48]	@ 0x30
   __ASM volatile ("ldrex %0, %1" : "=r" (result) : "Q" (*addr) );
 800422a:	f103 020c 	add.w	r2, r3, #12
 800422e:	e852 2f00 	ldrex	r2, [r2]
          ATOMIC_CLEAR_BIT(huart->Instance->CR1, USART_CR1_IDLEIE);
 8004232:	f022 0210 	bic.w	r2, r2, #16
   __ASM volatile ("strex %0, %2, %1" : "=&r" (result), "=Q" (*addr) : "r" (value) );
 8004236:	f103 050c 	add.w	r5, r3, #12
 800423a:	e845 2100 	strex	r1, r2, [r5]
 800423e:	2900      	cmp	r1, #0
 8004240:	d1f3      	bne.n	800422a <HAL_UART_IRQHandler+0xc6>
          (void)HAL_DMA_Abort(huart->hdmarx);
 8004242:	f7fe fa73 	bl	800272c <HAL_DMA_Abort>
        HAL_UARTEx_RxEventCallback(huart, (huart->RxXferSize - huart->RxXferCount));
 8004246:	8da1      	ldrh	r1, [r4, #44]	@ 0x2c
        huart->RxEventType = HAL_UART_RXEVENT_IDLE;
 8004248:	2302      	movs	r3, #2
 800424a:	6363      	str	r3, [r4, #52]	@ 0x34
        HAL_UARTEx_RxEventCallback(huart, (huart->RxXferSize - huart->RxXferCount));
 800424c:	8de3      	ldrh	r3, [r4, #46]	@ 0x2e
 800424e:	1ac9      	subs	r1, r1, r3
 8004250:	4620      	mov	r0, r4
 8004252:	b289      	uxth	r1, r1
 8004254:	f7ff fec8 	bl	8003fe8 <HAL_UARTEx_RxEventCallback>
 8004258:	e7a0      	b.n	800419c <HAL_UART_IRQHandler+0x38>
  if ((errorflags != RESET) && (((cr3its & USART_CR3_EIE) != RESET)
 800425a:	f011 0101 	ands.w	r1, r1, #1
 800425e:	d178      	bne.n	8004352 <HAL_UART_IRQHandler+0x1ee>
                                || ((cr1its & (USART_CR1_RXNEIE | USART_CR1_PEIE)) != RESET)))
 8004260:	f415 7f90 	tst.w	r5, #288	@ 0x120
 8004264:	d08d      	beq.n	8004182 <HAL_UART_IRQHandler+0x1e>
    if (((isrflags & USART_SR_PE) != RESET) && ((cr1its & USART_CR1_PEIE) != RESET))
 8004266:	07d0      	lsls	r0, r2, #31
 8004268:	d50a      	bpl.n	8004280 <HAL_UART_IRQHandler+0x11c>
 800426a:	05e8      	lsls	r0, r5, #23
 800426c:	f140 80d9 	bpl.w	8004422 <HAL_UART_IRQHandler+0x2be>
      huart->ErrorCode |= HAL_UART_ERROR_PE;
 8004270:	6c60      	ldr	r0, [r4, #68]	@ 0x44
 8004272:	f040 0001 	orr.w	r0, r0, #1
 8004276:	6460      	str	r0, [r4, #68]	@ 0x44
    if (((isrflags & USART_SR_NE) != RESET) && ((cr3its & USART_CR3_EIE) != RESET))
 8004278:	0750      	lsls	r0, r2, #29
 800427a:	d55b      	bpl.n	8004334 <HAL_UART_IRQHandler+0x1d0>
 800427c:	2900      	cmp	r1, #0
 800427e:	d16c      	bne.n	800435a <HAL_UART_IRQHandler+0x1f6>
    if (((isrflags & USART_SR_FE) != RESET) && ((cr3its & USART_CR3_EIE) != RESET))
 8004280:	0790      	lsls	r0, r2, #30
 8004282:	d570      	bpl.n	8004366 <HAL_UART_IRQHandler+0x202>
    if (((isrflags & USART_SR_ORE) != RESET) && (((cr1its & USART_CR1_RXNEIE) != RESET)
 8004284:	0710      	lsls	r0, r2, #28
 8004286:	f100 80c9 	bmi.w	800441c <HAL_UART_IRQHandler+0x2b8>
    if (huart->ErrorCode != HAL_UART_ERROR_NONE)
 800428a:	6c61      	ldr	r1, [r4, #68]	@ 0x44
 800428c:	2900      	cmp	r1, #0
 800428e:	d085      	beq.n	800419c <HAL_UART_IRQHandler+0x38>
      if (((isrflags & USART_SR_RXNE) != RESET) && ((cr1its & USART_CR1_RXNEIE) != RESET))
 8004290:	0691      	lsls	r1, r2, #26
 8004292:	d509      	bpl.n	80042a8 <HAL_UART_IRQHandler+0x144>
 8004294:	06aa      	lsls	r2, r5, #26
 8004296:	d507      	bpl.n	80042a8 <HAL_UART_IRQHandler+0x144>
  if (huart->RxState == HAL_UART_STATE_BUSY_RX)
 8004298:	f894 2042 	ldrb.w	r2, [r4, #66]	@ 0x42
 800429c:	2a22      	cmp	r2, #34	@ 0x22
 800429e:	d103      	bne.n	80042a8 <HAL_UART_IRQHandler+0x144>
 80042a0:	4620      	mov	r0, r4
 80042a2:	f7ff feff 	bl	80040a4 <UART_Receive_IT.part.0.isra.0>
      dmarequest = HAL_IS_BIT_SET(huart->Instance->CR3, USART_CR3_DMAR);
 80042a6:	6823      	ldr	r3, [r4, #0]
 80042a8:	695a      	ldr	r2, [r3, #20]
      if (((huart->ErrorCode & HAL_UART_ERROR_ORE) != RESET) || dmarequest)
 80042aa:	6c61      	ldr	r1, [r4, #68]	@ 0x44
      dmarequest = HAL_IS_BIT_SET(huart->Instance->CR3, USART_CR3_DMAR);
 80042ac:	f002 0240 	and.w	r2, r2, #64	@ 0x40
      if (((huart->ErrorCode & HAL_UART_ERROR_ORE) != RESET) || dmarequest)
 80042b0:	f001 0108 	and.w	r1, r1, #8
 80042b4:	ea52 0501 	orrs.w	r5, r2, r1
 80042b8:	d15c      	bne.n	8004374 <HAL_UART_IRQHandler+0x210>
        HAL_UART_ErrorCallback(huart);
 80042ba:	4620      	mov	r0, r4
 80042bc:	f7ff fe2c 	bl	8003f18 <HAL_UART_ErrorCallback>
        huart->ErrorCode = HAL_UART_ERROR_NONE;
 80042c0:	6465      	str	r5, [r4, #68]	@ 0x44
 80042c2:	e76b      	b.n	800419c <HAL_UART_IRQHandler+0x38>
  if (huart->RxState == HAL_UART_STATE_BUSY_RX)
 80042c4:	f890 3042 	ldrb.w	r3, [r0, #66]	@ 0x42
 80042c8:	2b22      	cmp	r3, #34	@ 0x22
 80042ca:	f47f af67 	bne.w	800419c <HAL_UART_IRQHandler+0x38>
}
 80042ce:	b003      	add	sp, #12
 80042d0:	e8bd 4030 	ldmia.w	sp!, {r4, r5, lr}
 80042d4:	f7ff bee6 	b.w	80040a4 <UART_Receive_IT.part.0.isra.0>
  if (huart->gState == HAL_UART_STATE_BUSY_TX)
 80042d8:	f894 2041 	ldrb.w	r2, [r4, #65]	@ 0x41
 80042dc:	2a21      	cmp	r2, #33	@ 0x21
 80042de:	f47f af5d 	bne.w	800419c <HAL_UART_IRQHandler+0x38>
    if ((huart->Init.WordLength == UART_WORDLENGTH_9B) && (huart->Init.Parity == UART_PARITY_NONE))
 80042e2:	68a1      	ldr	r1, [r4, #8]
      tmp = (const uint16_t *) huart->pTxBuffPtr;
 80042e4:	6a22      	ldr	r2, [r4, #32]
    if ((huart->Init.WordLength == UART_WORDLENGTH_9B) && (huart->Init.Parity == UART_PARITY_NONE))
 80042e6:	f5b1 5f80 	cmp.w	r1, #4096	@ 0x1000
 80042ea:	f000 80d9 	beq.w	80044a0 <HAL_UART_IRQHandler+0x33c>
      huart->Instance->DR = (uint8_t)(*huart->pTxBuffPtr++ & (uint8_t)0x00FF);
 80042ee:	1c51      	adds	r1, r2, #1
 80042f0:	6221      	str	r1, [r4, #32]
 80042f2:	7812      	ldrb	r2, [r2, #0]
 80042f4:	605a      	str	r2, [r3, #4]
    if (--huart->TxXferCount == 0U)
 80042f6:	8ce2      	ldrh	r2, [r4, #38]	@ 0x26
 80042f8:	3a01      	subs	r2, #1
 80042fa:	b292      	uxth	r2, r2
 80042fc:	84e2      	strh	r2, [r4, #38]	@ 0x26
 80042fe:	2a00      	cmp	r2, #0
 8004300:	f47f af4c 	bne.w	800419c <HAL_UART_IRQHandler+0x38>
      __HAL_UART_DISABLE_IT(huart, UART_IT_TXE);
 8004304:	68da      	ldr	r2, [r3, #12]
 8004306:	f022 0280 	bic.w	r2, r2, #128	@ 0x80
 800430a:	60da      	str	r2, [r3, #12]
      __HAL_UART_ENABLE_IT(huart, UART_IT_TC);
 800430c:	68da      	ldr	r2, [r3, #12]
 800430e:	f042 0240 	orr.w	r2, r2, #64	@ 0x40
 8004312:	60da      	str	r2, [r3, #12]
 8004314:	e742      	b.n	800419c <HAL_UART_IRQHandler+0x38>
  __HAL_UART_DISABLE_IT(huart, UART_IT_TC);
 8004316:	68da      	ldr	r2, [r3, #12]
  huart->gState = HAL_UART_STATE_READY;
 8004318:	2120      	movs	r1, #32
  __HAL_UART_DISABLE_IT(huart, UART_IT_TC);
 800431a:	f022 0240 	bic.w	r2, r2, #64	@ 0x40
 800431e:	60da      	str	r2, [r3, #12]
  HAL_UART_TxCpltCallback(huart);
 8004320:	4620      	mov	r0, r4
  huart->gState = HAL_UART_STATE_READY;
 8004322:	f884 1041 	strb.w	r1, [r4, #65]	@ 0x41
  HAL_UART_TxCpltCallback(huart);
 8004326:	f7ff fdf3 	bl	8003f10 <HAL_UART_TxCpltCallback>
    return;
 800432a:	e737      	b.n	800419c <HAL_UART_IRQHandler+0x38>
    if (((isrflags & USART_SR_PE) != RESET) && ((cr1its & USART_CR1_PEIE) != RESET))
 800432c:	05e8      	lsls	r0, r5, #23
 800432e:	d49f      	bmi.n	8004270 <HAL_UART_IRQHandler+0x10c>
    if (((isrflags & USART_SR_NE) != RESET) && ((cr3its & USART_CR3_EIE) != RESET))
 8004330:	0750      	lsls	r0, r2, #29
 8004332:	d412      	bmi.n	800435a <HAL_UART_IRQHandler+0x1f6>
    if (((isrflags & USART_SR_FE) != RESET) && ((cr3its & USART_CR3_EIE) != RESET))
 8004334:	0790      	lsls	r0, r2, #30
 8004336:	d516      	bpl.n	8004366 <HAL_UART_IRQHandler+0x202>
 8004338:	2900      	cmp	r1, #0
 800433a:	d0a3      	beq.n	8004284 <HAL_UART_IRQHandler+0x120>
      huart->ErrorCode |= HAL_UART_ERROR_FE;
 800433c:	6c61      	ldr	r1, [r4, #68]	@ 0x44
 800433e:	f041 0104 	orr.w	r1, r1, #4
 8004342:	6461      	str	r1, [r4, #68]	@ 0x44
    if (((isrflags & USART_SR_ORE) != RESET) && (((cr1its & USART_CR1_RXNEIE) != RESET)
 8004344:	0711      	lsls	r1, r2, #28
 8004346:	d5a0      	bpl.n	800428a <HAL_UART_IRQHandler+0x126>
      huart->ErrorCode |= HAL_UART_ERROR_ORE;
 8004348:	6c61      	ldr	r1, [r4, #68]	@ 0x44
 800434a:	f041 0108 	orr.w	r1, r1, #8
 800434e:	6461      	str	r1, [r4, #68]	@ 0x44
 8004350:	e79b      	b.n	800428a <HAL_UART_IRQHandler+0x126>
    if (((isrflags & USART_SR_PE) != RESET) && ((cr1its & USART_CR1_PEIE) != RESET))
 8004352:	07d0      	lsls	r0, r2, #31
 8004354:	d4ea      	bmi.n	800432c <HAL_UART_IRQHandler+0x1c8>
    if (((isrflags & USART_SR_NE) != RESET) && ((cr3its & USART_CR3_EIE) != RESET))
 8004356:	0750      	lsls	r0, r2, #29
 8004358:	d55b      	bpl.n	8004412 <HAL_UART_IRQHandler+0x2ae>
      huart->ErrorCode |= HAL_UART_ERROR_NE;
 800435a:	6c60      	ldr	r0, [r4, #68]	@ 0x44
 800435c:	f040 0002 	orr.w	r0, r0, #2
 8004360:	6460      	str	r0, [r4, #68]	@ 0x44
    if (((isrflags & USART_SR_FE) != RESET) && ((cr3its & USART_CR3_EIE) != RESET))
 8004362:	0790      	lsls	r0, r2, #30
 8004364:	d4ea      	bmi.n	800433c <HAL_UART_IRQHandler+0x1d8>
    if (((isrflags & USART_SR_ORE) != RESET) && (((cr1its & USART_CR1_RXNEIE) != RESET)
 8004366:	0710      	lsls	r0, r2, #28
 8004368:	d58f      	bpl.n	800428a <HAL_UART_IRQHandler+0x126>
 800436a:	f005 0020 	and.w	r0, r5, #32
 800436e:	4308      	orrs	r0, r1
 8004370:	d08b      	beq.n	800428a <HAL_UART_IRQHandler+0x126>
 8004372:	e7e9      	b.n	8004348 <HAL_UART_IRQHandler+0x1e4>
   __ASM volatile ("ldrex %0, %1" : "=r" (result) : "Q" (*addr) );
 8004374:	f103 020c 	add.w	r2, r3, #12
 8004378:	e852 2f00 	ldrex	r2, [r2]
  ATOMIC_CLEAR_BIT(huart->Instance->CR1, (USART_CR1_RXNEIE | USART_CR1_PEIE));
 800437c:	f422 7290 	bic.w	r2, r2, #288	@ 0x120
   __ASM volatile ("strex %0, %2, %1" : "=&r" (result), "=Q" (*addr) : "r" (value) );
 8004380:	f103 000c 	add.w	r0, r3, #12
 8004384:	e840 2100 	strex	r1, r2, [r0]
 8004388:	2900      	cmp	r1, #0
 800438a:	d1f3      	bne.n	8004374 <HAL_UART_IRQHandler+0x210>
   __ASM volatile ("ldrex %0, %1" : "=r" (result) : "Q" (*addr) );
 800438c:	f103 0214 	add.w	r2, r3, #20
 8004390:	e852 2f00 	ldrex	r2, [r2]
  ATOMIC_CLEAR_BIT(huart->Instance->CR3, USART_CR3_EIE);
 8004394:	f022 0201 	bic.w	r2, r2, #1
   __ASM volatile ("strex %0, %2, %1" : "=&r" (result), "=Q" (*addr) : "r" (value) );
 8004398:	f103 0014 	add.w	r0, r3, #20
 800439c:	e840 2100 	strex	r1, r2, [r0]
 80043a0:	2900      	cmp	r1, #0
 80043a2:	d1f3      	bne.n	800438c <HAL_UART_IRQHandler+0x228>
  if (huart->ReceptionType == HAL_UART_RECEPTION_TOIDLE)
 80043a4:	6b22      	ldr	r2, [r4, #48]	@ 0x30
 80043a6:	2a01      	cmp	r2, #1
 80043a8:	d022      	beq.n	80043f0 <HAL_UART_IRQHandler+0x28c>
  huart->ReceptionType = HAL_UART_RECEPTION_STANDARD;
 80043aa:	2200      	movs	r2, #0
  huart->RxState = HAL_UART_STATE_READY;
 80043ac:	2120      	movs	r1, #32
 80043ae:	f884 1042 	strb.w	r1, [r4, #66]	@ 0x42
  huart->ReceptionType = HAL_UART_RECEPTION_STANDARD;
 80043b2:	6322      	str	r2, [r4, #48]	@ 0x30
        if (HAL_IS_BIT_SET(huart->Instance->CR3, USART_CR3_DMAR))
 80043b4:	695a      	ldr	r2, [r3, #20]
 80043b6:	0655      	lsls	r5, r2, #25
 80043b8:	d527      	bpl.n	800440a <HAL_UART_IRQHandler+0x2a6>
   __ASM volatile ("ldrex %0, %1" : "=r" (result) : "Q" (*addr) );
 80043ba:	f103 0214 	add.w	r2, r3, #20
 80043be:	e852 2f00 	ldrex	r2, [r2]
          ATOMIC_CLEAR_BIT(huart->Instance->CR3, USART_CR3_DMAR);
 80043c2:	f022 0240 	bic.w	r2, r2, #64	@ 0x40
   __ASM volatile ("strex %0, %2, %1" : "=&r" (result), "=Q" (*addr) : "r" (value) );
 80043c6:	f103 0014 	add.w	r0, r3, #20
 80043ca:	e840 2100 	strex	r1, r2, [r0]
 80043ce:	2900      	cmp	r1, #0
 80043d0:	d1f3      	bne.n	80043ba <HAL_UART_IRQHandler+0x256>
          if (huart->hdmarx != NULL)
 80043d2:	6be0      	ldr	r0, [r4, #60]	@ 0x3c
 80043d4:	b1c8      	cbz	r0, 800440a <HAL_UART_IRQHandler+0x2a6>
            huart->hdmarx->XferAbortCallback = UART_DMAAbortOnError;
 80043d6:	4b38      	ldr	r3, [pc, #224]	@ (80044b8 <HAL_UART_IRQHandler+0x354>)
 80043d8:	6503      	str	r3, [r0, #80]	@ 0x50
            if (HAL_DMA_Abort_IT(huart->hdmarx) != HAL_OK)
 80043da:	f7fe f9f1 	bl	80027c0 <HAL_DMA_Abort_IT>
 80043de:	2800      	cmp	r0, #0
 80043e0:	f43f aedc 	beq.w	800419c <HAL_UART_IRQHandler+0x38>
              huart->hdmarx->XferAbortCallback(huart->hdmarx);
 80043e4:	6be0      	ldr	r0, [r4, #60]	@ 0x3c
 80043e6:	6d03      	ldr	r3, [r0, #80]	@ 0x50
}
 80043e8:	b003      	add	sp, #12
 80043ea:	e8bd 4030 	ldmia.w	sp!, {r4, r5, lr}
              huart->hdmarx->XferAbortCallback(huart->hdmarx);
 80043ee:	4718      	bx	r3
   __ASM volatile ("ldrex %0, %1" : "=r" (result) : "Q" (*addr) );
 80043f0:	f103 020c 	add.w	r2, r3, #12
 80043f4:	e852 2f00 	ldrex	r2, [r2]
    ATOMIC_CLEAR_BIT(huart->Instance->CR1, USART_CR1_IDLEIE);
 80043f8:	f022 0210 	bic.w	r2, r2, #16
   __ASM volatile ("strex %0, %2, %1" : "=&r" (result), "=Q" (*addr) : "r" (value) );
 80043fc:	f103 000c 	add.w	r0, r3, #12
 8004400:	e840 2100 	strex	r1, r2, [r0]
 8004404:	2900      	cmp	r1, #0
 8004406:	d1f3      	bne.n	80043f0 <HAL_UART_IRQHandler+0x28c>
 8004408:	e7cf      	b.n	80043aa <HAL_UART_IRQHandler+0x246>
            HAL_UART_ErrorCallback(huart);
 800440a:	4620      	mov	r0, r4
 800440c:	f7ff fd84 	bl	8003f18 <HAL_UART_ErrorCallback>
 8004410:	e6c4      	b.n	800419c <HAL_UART_IRQHandler+0x38>
    if (((isrflags & USART_SR_FE) != RESET) && ((cr3its & USART_CR3_EIE) != RESET))
 8004412:	0791      	lsls	r1, r2, #30
 8004414:	d492      	bmi.n	800433c <HAL_UART_IRQHandler+0x1d8>
    if (((isrflags & USART_SR_ORE) != RESET) && (((cr1its & USART_CR1_RXNEIE) != RESET)
 8004416:	0711      	lsls	r1, r2, #28
 8004418:	d496      	bmi.n	8004348 <HAL_UART_IRQHandler+0x1e4>
 800441a:	e736      	b.n	800428a <HAL_UART_IRQHandler+0x126>
 800441c:	06a9      	lsls	r1, r5, #26
 800441e:	d493      	bmi.n	8004348 <HAL_UART_IRQHandler+0x1e4>
 8004420:	e733      	b.n	800428a <HAL_UART_IRQHandler+0x126>
    if (((isrflags & USART_SR_NE) != RESET) && ((cr3its & USART_CR3_EIE) != RESET))
 8004422:	0750      	lsls	r0, r2, #29
 8004424:	f53f af2c 	bmi.w	8004280 <HAL_UART_IRQHandler+0x11c>
 8004428:	e784      	b.n	8004334 <HAL_UART_IRQHandler+0x1d0>
      uint16_t nb_rx_data = huart->RxXferSize - huart->RxXferCount;
 800442a:	8de1      	ldrh	r1, [r4, #46]	@ 0x2e
      if ((huart->RxXferCount > 0U)
 800442c:	8de2      	ldrh	r2, [r4, #46]	@ 0x2e
      uint16_t nb_rx_data = huart->RxXferSize - huart->RxXferCount;
 800442e:	8da0      	ldrh	r0, [r4, #44]	@ 0x2c
      if ((huart->RxXferCount > 0U)
 8004430:	b292      	uxth	r2, r2
      uint16_t nb_rx_data = huart->RxXferSize - huart->RxXferCount;
 8004432:	b289      	uxth	r1, r1
      if ((huart->RxXferCount > 0U)
 8004434:	2a00      	cmp	r2, #0
 8004436:	f43f aeb1 	beq.w	800419c <HAL_UART_IRQHandler+0x38>
      uint16_t nb_rx_data = huart->RxXferSize - huart->RxXferCount;
 800443a:	1a41      	subs	r1, r0, r1
 800443c:	b289      	uxth	r1, r1
          && (nb_rx_data > 0U))
 800443e:	2900      	cmp	r1, #0
 8004440:	f43f aeac 	beq.w	800419c <HAL_UART_IRQHandler+0x38>
   __ASM volatile ("ldrex %0, %1" : "=r" (result) : "Q" (*addr) );
 8004444:	f103 020c 	add.w	r2, r3, #12
 8004448:	e852 2f00 	ldrex	r2, [r2]
        ATOMIC_CLEAR_BIT(huart->Instance->CR1, (USART_CR1_RXNEIE | USART_CR1_PEIE));
 800444c:	f422 7290 	bic.w	r2, r2, #288	@ 0x120
   __ASM volatile ("strex %0, %2, %1" : "=&r" (result), "=Q" (*addr) : "r" (value) );
 8004450:	f103 050c 	add.w	r5, r3, #12
 8004454:	e845 2000 	strex	r0, r2, [r5]
 8004458:	2800      	cmp	r0, #0
 800445a:	d1f3      	bne.n	8004444 <HAL_UART_IRQHandler+0x2e0>
   __ASM volatile ("ldrex %0, %1" : "=r" (result) : "Q" (*addr) );
 800445c:	f103 0214 	add.w	r2, r3, #20
 8004460:	e852 2f00 	ldrex	r2, [r2]
        ATOMIC_CLEAR_BIT(huart->Instance->CR3, USART_CR3_EIE);
 8004464:	f022 0201 	bic.w	r2, r2, #1
   __ASM volatile ("strex %0, %2, %1" : "=&r" (result), "=Q" (*addr) : "r" (value) );
 8004468:	f103 0514 	add.w	r5, r3, #20
 800446c:	e845 2000 	strex	r0, r2, [r5]
 8004470:	2800      	cmp	r0, #0
 8004472:	d1f3      	bne.n	800445c <HAL_UART_IRQHandler+0x2f8>
        huart->RxState = HAL_UART_STATE_READY;
 8004474:	2220      	movs	r2, #32
 8004476:	f884 2042 	strb.w	r2, [r4, #66]	@ 0x42
        huart->ReceptionType = HAL_UART_RECEPTION_STANDARD;
 800447a:	6320      	str	r0, [r4, #48]	@ 0x30
   __ASM volatile ("ldrex %0, %1" : "=r" (result) : "Q" (*addr) );
 800447c:	f103 020c 	add.w	r2, r3, #12
 8004480:	e852 2f00 	ldrex	r2, [r2]
        ATOMIC_CLEAR_BIT(huart->Instance->CR1, USART_CR1_IDLEIE);
 8004484:	f022 0210 	bic.w	r2, r2, #16
   __ASM volatile ("strex %0, %2, %1" : "=&r" (result), "=Q" (*addr) : "r" (value) );
 8004488:	f103 050c 	add.w	r5, r3, #12
 800448c:	e845 2000 	strex	r0, r2, [r5]
 8004490:	2800      	cmp	r0, #0
 8004492:	d1f3      	bne.n	800447c <HAL_UART_IRQHandler+0x318>
        huart->RxEventType = HAL_UART_RXEVENT_IDLE;
 8004494:	2302      	movs	r3, #2
 8004496:	6363      	str	r3, [r4, #52]	@ 0x34
        HAL_UARTEx_RxEventCallback(huart, nb_rx_data);
 8004498:	4620      	mov	r0, r4
 800449a:	f7ff fda5 	bl	8003fe8 <HAL_UARTEx_RxEventCallback>
 800449e:	e67d      	b.n	800419c <HAL_UART_IRQHandler+0x38>
    if ((huart->Init.WordLength == UART_WORDLENGTH_9B) && (huart->Init.Parity == UART_PARITY_NONE))
 80044a0:	6921      	ldr	r1, [r4, #16]
 80044a2:	2900      	cmp	r1, #0
 80044a4:	f47f af23 	bne.w	80042ee <HAL_UART_IRQHandler+0x18a>
      huart->Instance->DR = (uint16_t)(*tmp & (uint16_t)0x01FF);
 80044a8:	f832 1b02 	ldrh.w	r1, [r2], #2
 80044ac:	f3c1 0108 	ubfx	r1, r1, #0, #9
 80044b0:	6059      	str	r1, [r3, #4]
      huart->pTxBuffPtr += 2U;
 80044b2:	6222      	str	r2, [r4, #32]
 80044b4:	e71f      	b.n	80042f6 <HAL_UART_IRQHandler+0x192>
 80044b6:	bf00      	nop
 80044b8:	08003fd9 	.word	0x08003fd9

080044bc <UART_Start_Receive_DMA>:
{
 80044bc:	b570      	push	{r4, r5, r6, lr}
 80044be:	4613      	mov	r3, r2
  huart->ErrorCode = HAL_UART_ERROR_NONE;
 80044c0:	2500      	movs	r5, #0
  huart->RxState = HAL_UART_STATE_BUSY_RX;
 80044c2:	2222      	movs	r2, #34	@ 0x22
{
 80044c4:	4604      	mov	r4, r0
  huart->ErrorCode = HAL_UART_ERROR_NONE;
 80044c6:	6445      	str	r5, [r0, #68]	@ 0x44
  huart->pRxBuffPtr = pData;
 80044c8:	6281      	str	r1, [r0, #40]	@ 0x28
  huart->RxState = HAL_UART_STATE_BUSY_RX;
 80044ca:	f880 2042 	strb.w	r2, [r0, #66]	@ 0x42
  huart->RxXferSize = Size;
 80044ce:	8583      	strh	r3, [r0, #44]	@ 0x2c
  huart->hdmarx->XferCpltCallback = UART_DMAReceiveCplt;
 80044d0:	6bc0      	ldr	r0, [r0, #60]	@ 0x3c
 80044d2:	4e1e      	ldr	r6, [pc, #120]	@ (800454c <UART_Start_Receive_DMA+0x90>)
  huart->hdmarx->XferAbortCallback = NULL;
 80044d4:	6505      	str	r5, [r0, #80]	@ 0x50
  HAL_DMA_Start_IT(huart->hdmarx, (uint32_t)&huart->Instance->DR, *(uint32_t *)tmp, Size);
 80044d6:	460a      	mov	r2, r1
 80044d8:	6821      	ldr	r1, [r4, #0]
  huart->hdmarx->XferCpltCallback = UART_DMAReceiveCplt;
 80044da:	63c6      	str	r6, [r0, #60]	@ 0x3c
  huart->hdmarx->XferHalfCpltCallback = UART_DMARxHalfCplt;
 80044dc:	4e1c      	ldr	r6, [pc, #112]	@ (8004550 <UART_Start_Receive_DMA+0x94>)
 80044de:	6406      	str	r6, [r0, #64]	@ 0x40
  huart->hdmarx->XferErrorCallback = UART_DMAError;
 80044e0:	4e1c      	ldr	r6, [pc, #112]	@ (8004554 <UART_Start_Receive_DMA+0x98>)
 80044e2:	64c6      	str	r6, [r0, #76]	@ 0x4c
{
 80044e4:	b082      	sub	sp, #8
  HAL_DMA_Start_IT(huart->hdmarx, (uint32_t)&huart->Instance->DR, *(uint32_t *)tmp, Size);
 80044e6:	3104      	adds	r1, #4
 80044e8:	f7fe f8e4 	bl	80026b4 <HAL_DMA_Start_IT>
  __HAL_UART_CLEAR_OREFLAG(huart);
 80044ec:	6823      	ldr	r3, [r4, #0]
 80044ee:	9501      	str	r5, [sp, #4]
 80044f0:	681a      	ldr	r2, [r3, #0]
 80044f2:	9201      	str	r2, [sp, #4]
 80044f4:	6859      	ldr	r1, [r3, #4]
  if (huart->Init.Parity != UART_PARITY_NONE)
 80044f6:	6922      	ldr	r2, [r4, #16]
  __HAL_UART_CLEAR_OREFLAG(huart);
 80044f8:	9101      	str	r1, [sp, #4]
 80044fa:	9901      	ldr	r1, [sp, #4]
  if (huart->Init.Parity != UART_PARITY_NONE)
 80044fc:	b15a      	cbz	r2, 8004516 <UART_Start_Receive_DMA+0x5a>
   __ASM volatile ("ldrex %0, %1" : "=r" (result) : "Q" (*addr) );
 80044fe:	f103 020c 	add.w	r2, r3, #12
 8004502:	e852 2f00 	ldrex	r2, [r2]
    ATOMIC_SET_BIT(huart->Instance->CR1, USART_CR1_PEIE);
 8004506:	f442 7280 	orr.w	r2, r2, #256	@ 0x100
   __ASM volatile ("strex %0, %2, %1" : "=&r" (result), "=Q" (*addr) : "r" (value) );
 800450a:	f103 000c 	add.w	r0, r3, #12
 800450e:	e840 2100 	strex	r1, r2, [r0]
 8004512:	2900      	cmp	r1, #0
 8004514:	d1f3      	bne.n	80044fe <UART_Start_Receive_DMA+0x42>
   __ASM volatile ("ldrex %0, %1" : "=r" (result) : "Q" (*addr) );
 8004516:	f103 0214 	add.w	r2, r3, #20
 800451a:	e852 2f00 	ldrex	r2, [r2]
  ATOMIC_SET_BIT(huart->Instance->CR3, USART_CR3_EIE);
 800451e:	f042 0201 	orr.w	r2, r2, #1
   __ASM volatile ("strex %0, %2, %1" : "=&r" (result), "=Q" (*addr) : "r" (value) );
 8004522:	f103 0014 	add.w	r0, r3, #20
 8004526:	e840 2100 	strex	r1, r2, [r0]
 800452a:	2900      	cmp	r1, #0
 800452c:	d1f3      	bne.n	8004516 <UART_Start_Receive_DMA+0x5a>
   __ASM volatile ("ldrex %0, %1" : "=r" (result) : "Q" (*addr) );
 800452e:	f103 0214 	add.w	r2, r3, #20
 8004532:	e852 2f00 	ldrex	r2, [r2]
  ATOMIC_SET_BIT(huart->Instance->CR3, USART_CR3_DMAR);
 8004536:	f042 0240 	orr.w	r2, r2, #64	@ 0x40
   __ASM volatile ("strex %0, %2, %1" : "=&r" (result), "=Q" (*addr) : "r" (value) );
 800453a:	f103 0114 	add.w	r1, r3, #20
 800453e:	e841 2000 	strex	r0, r2, [r1]
 8004542:	2800      	cmp	r0, #0
 8004544:	d1f3      	bne.n	800452e <UART_Start_Receive_DMA+0x72>
}
 8004546:	b002      	add	sp, #8
 8004548:	bd70      	pop	{r4, r5, r6, pc}
 800454a:	bf00      	nop
 800454c:	0800400d 	.word	0x0800400d
 8004550:	08003fed 	.word	0x08003fed
 8004554:	08003f1d 	.word	0x08003f1d

08004558 <HAL_UART_Receive_DMA>:
  if (huart->RxState == HAL_UART_STATE_READY)
 8004558:	f890 c042 	ldrb.w	ip, [r0, #66]	@ 0x42
 800455c:	f1bc 0f20 	cmp.w	ip, #32
 8004560:	d105      	bne.n	800456e <HAL_UART_Receive_DMA+0x16>
{
 8004562:	b430      	push	{r4, r5}
    if ((pData == NULL) || (Size == 0U))
 8004564:	b101      	cbz	r1, 8004568 <HAL_UART_Receive_DMA+0x10>
 8004566:	b922      	cbnz	r2, 8004572 <HAL_UART_Receive_DMA+0x1a>
      return HAL_ERROR;
 8004568:	2001      	movs	r0, #1
}
 800456a:	bc30      	pop	{r4, r5}
 800456c:	4770      	bx	lr
    return HAL_BUSY;
 800456e:	2002      	movs	r0, #2
}
 8004570:	4770      	bx	lr
    huart->ReceptionType = HAL_UART_RECEPTION_STANDARD;
 8004572:	2400      	movs	r4, #0
 8004574:	6304      	str	r4, [r0, #48]	@ 0x30
}
 8004576:	bc30      	pop	{r4, r5}
    return (UART_Start_Receive_DMA(huart, pData, Size));
 8004578:	f7ff bfa0 	b.w	80044bc <UART_Start_Receive_DMA>

0800457c <I2C_LCD_EnPulse>:
    uint8_t TxData = (DATA) | I2C_LCD_InfoParam_g[I2C_LCD_InstanceIndex].BacklightVal;
    HAL_I2C_Master_Transmit(I2C_LCD_CfgParam[I2C_LCD_InstanceIndex].I2C_Handle, (I2C_LCD_CfgParam[I2C_LCD_InstanceIndex].I2C_LCD_Address<<1), &TxData, sizeof(TxData), 100);
}

static void I2C_LCD_EnPulse(uint8_t I2C_LCD_InstanceIndex, uint8_t DATA)
{
 800457c:	e92d 47f0 	stmdb	sp!, {r4, r5, r6, r7, r8, r9, sl, lr}
    uint8_t TxData = (DATA) | I2C_LCD_InfoParam_g[I2C_LCD_InstanceIndex].BacklightVal;
 8004580:	4e2a      	ldr	r6, [pc, #168]	@ (800462c <I2C_LCD_EnPulse+0xb0>)
    HAL_I2C_Master_Transmit(I2C_LCD_CfgParam[I2C_LCD_InstanceIndex].I2C_Handle, (I2C_LCD_CfgParam[I2C_LCD_InstanceIndex].I2C_LCD_Address<<1), &TxData, sizeof(TxData), 100);
 8004582:	4a2b      	ldr	r2, [pc, #172]	@ (8004630 <I2C_LCD_EnPulse+0xb4>)
	I2C_LCD_ExpanderWrite(I2C_LCD_InstanceIndex, (DATA | EN)); // En high
	DELAY_US(2); // enable pulse must be >450ns
 8004584:	4f2b      	ldr	r7, [pc, #172]	@ (8004634 <I2C_LCD_EnPulse+0xb8>)
    uint8_t TxData = (DATA) | I2C_LCD_InfoParam_g[I2C_LCD_InstanceIndex].BacklightVal;
 8004586:	eb06 0340 	add.w	r3, r6, r0, lsl #1
{
 800458a:	b084      	sub	sp, #16
    uint8_t TxData = (DATA) | I2C_LCD_InfoParam_g[I2C_LCD_InstanceIndex].BacklightVal;
 800458c:	785b      	ldrb	r3, [r3, #1]
 800458e:	430b      	orrs	r3, r1
 8004590:	f043 0304 	orr.w	r3, r3, #4
 8004594:	ea4f 0940 	mov.w	r9, r0, lsl #1
    HAL_I2C_Master_Transmit(I2C_LCD_CfgParam[I2C_LCD_InstanceIndex].I2C_Handle, (I2C_LCD_CfgParam[I2C_LCD_InstanceIndex].I2C_LCD_Address<<1), &TxData, sizeof(TxData), 100);
 8004598:	eb00 0040 	add.w	r0, r0, r0, lsl #1
    uint8_t TxData = (DATA) | I2C_LCD_InfoParam_g[I2C_LCD_InstanceIndex].BacklightVal;
 800459c:	f88d 300f 	strb.w	r3, [sp, #15]
    HAL_I2C_Master_Transmit(I2C_LCD_CfgParam[I2C_LCD_InstanceIndex].I2C_Handle, (I2C_LCD_CfgParam[I2C_LCD_InstanceIndex].I2C_LCD_Address<<1), &TxData, sizeof(TxData), 100);
 80045a0:	eb02 0380 	add.w	r3, r2, r0, lsl #2
{
 80045a4:	460d      	mov	r5, r1
    HAL_I2C_Master_Transmit(I2C_LCD_CfgParam[I2C_LCD_InstanceIndex].I2C_Handle, (I2C_LCD_CfgParam[I2C_LCD_InstanceIndex].I2C_LCD_Address<<1), &TxData, sizeof(TxData), 100);
 80045a6:	f893 a008 	ldrb.w	sl, [r3, #8]
 80045aa:	f8d3 8004 	ldr.w	r8, [r3, #4]
 80045ae:	ea4f 0a4a 	mov.w	sl, sl, lsl #1
 80045b2:	2364      	movs	r3, #100	@ 0x64
 80045b4:	9300      	str	r3, [sp, #0]
 80045b6:	f10d 020f 	add.w	r2, sp, #15
 80045ba:	2301      	movs	r3, #1
 80045bc:	4651      	mov	r1, sl
 80045be:	4640      	mov	r0, r8
 80045c0:	f7fe fc30 	bl	8002e24 <HAL_I2C_Master_Transmit>
	DELAY_US(2); // enable pulse must be >450ns
 80045c4:	4b1c      	ldr	r3, [pc, #112]	@ (8004638 <I2C_LCD_EnPulse+0xbc>)
 80045c6:	683a      	ldr	r2, [r7, #0]
 80045c8:	f04f 24e0 	mov.w	r4, #3758153728	@ 0xe000e000
 80045cc:	fba3 3202 	umull	r3, r2, r3, r2
 80045d0:	0c93      	lsrs	r3, r2, #18
 80045d2:	69a1      	ldr	r1, [r4, #24]
 80045d4:	0cd2      	lsrs	r2, r2, #19
 80045d6:	ebc2 0243 	rsb	r2, r2, r3, lsl #1
 80045da:	69a3      	ldr	r3, [r4, #24]
 80045dc:	1acb      	subs	r3, r1, r3
 80045de:	4293      	cmp	r3, r2
 80045e0:	d3fb      	bcc.n	80045da <I2C_LCD_EnPulse+0x5e>
    uint8_t TxData = (DATA) | I2C_LCD_InfoParam_g[I2C_LCD_InstanceIndex].BacklightVal;
 80045e2:	444e      	add	r6, r9

    I2C_LCD_ExpanderWrite(I2C_LCD_InstanceIndex, (DATA & ~EN)); // En low
 80045e4:	f025 0504 	bic.w	r5, r5, #4
    uint8_t TxData = (DATA) | I2C_LCD_InfoParam_g[I2C_LCD_InstanceIndex].BacklightVal;
 80045e8:	7873      	ldrb	r3, [r6, #1]
 80045ea:	431d      	orrs	r5, r3
    HAL_I2C_Master_Transmit(I2C_LCD_CfgParam[I2C_LCD_InstanceIndex].I2C_Handle, (I2C_LCD_CfgParam[I2C_LCD_InstanceIndex].I2C_LCD_Address<<1), &TxData, sizeof(TxData), 100);
 80045ec:	2364      	movs	r3, #100	@ 0x64
 80045ee:	f10d 020f 	add.w	r2, sp, #15
 80045f2:	4651      	mov	r1, sl
 80045f4:	9300      	str	r3, [sp, #0]
 80045f6:	4640      	mov	r0, r8
 80045f8:	2301      	movs	r3, #1
    uint8_t TxData = (DATA) | I2C_LCD_InfoParam_g[I2C_LCD_InstanceIndex].BacklightVal;
 80045fa:	f88d 500f 	strb.w	r5, [sp, #15]
    HAL_I2C_Master_Transmit(I2C_LCD_CfgParam[I2C_LCD_InstanceIndex].I2C_Handle, (I2C_LCD_CfgParam[I2C_LCD_InstanceIndex].I2C_LCD_Address<<1), &TxData, sizeof(TxData), 100);
 80045fe:	f7fe fc11 	bl	8002e24 <HAL_I2C_Master_Transmit>
    DELAY_US(50); // commands need > 37us to settle
 8004602:	4a0d      	ldr	r2, [pc, #52]	@ (8004638 <I2C_LCD_EnPulse+0xbc>)
 8004604:	683b      	ldr	r3, [r7, #0]
 8004606:	69a0      	ldr	r0, [r4, #24]
 8004608:	fba2 2303 	umull	r2, r3, r2, r3
 800460c:	2132      	movs	r1, #50	@ 0x32
 800460e:	0c9a      	lsrs	r2, r3, #18
 8004610:	fb01 f202 	mul.w	r2, r1, r2
 8004614:	eba2 42d3 	sub.w	r2, r2, r3, lsr #19
 8004618:	f04f 21e0 	mov.w	r1, #3758153728	@ 0xe000e000
 800461c:	698b      	ldr	r3, [r1, #24]
 800461e:	1ac3      	subs	r3, r0, r3
 8004620:	4293      	cmp	r3, r2
 8004622:	d3fb      	bcc.n	800461c <I2C_LCD_EnPulse+0xa0>
}
 8004624:	b004      	add	sp, #16
 8004626:	e8bd 87f0 	ldmia.w	sp!, {r4, r5, r6, r7, r8, r9, sl, pc}
 800462a:	bf00      	nop
 800462c:	20001d24 	.word	0x20001d24
 8004630:	08007178 	.word	0x08007178
 8004634:	20000010 	.word	0x20000010
 8004638:	431bde83 	.word	0x431bde83

0800463c <I2C_LCD_Send.constprop.2>:
{
	I2C_LCD_ExpanderWrite(I2C_LCD_InstanceIndex, Val);
	I2C_LCD_EnPulse(I2C_LCD_InstanceIndex, Val);
}

static void I2C_LCD_Send(uint8_t I2C_LCD_InstanceIndex, uint8_t Val, uint8_t Mode)
 800463c:	e92d 47f0 	stmdb	sp!, {r4, r5, r6, r7, r8, r9, sl, lr}
    HAL_I2C_Master_Transmit(I2C_LCD_CfgParam[I2C_LCD_InstanceIndex].I2C_Handle, (I2C_LCD_CfgParam[I2C_LCD_InstanceIndex].I2C_LCD_Address<<1), &TxData, sizeof(TxData), 100);
 8004640:	4b1c      	ldr	r3, [pc, #112]	@ (80046b4 <I2C_LCD_Send.constprop.2+0x78>)
    uint8_t TxData = (DATA) | I2C_LCD_InfoParam_g[I2C_LCD_InstanceIndex].BacklightVal;
 8004642:	4f1d      	ldr	r7, [pc, #116]	@ (80046b8 <I2C_LCD_Send.constprop.2+0x7c>)
    HAL_I2C_Master_Transmit(I2C_LCD_CfgParam[I2C_LCD_InstanceIndex].I2C_Handle, (I2C_LCD_CfgParam[I2C_LCD_InstanceIndex].I2C_LCD_Address<<1), &TxData, sizeof(TxData), 100);
 8004644:	eb00 0240 	add.w	r2, r0, r0, lsl #1
 8004648:	eb03 0382 	add.w	r3, r3, r2, lsl #2
    uint8_t TxData = (DATA) | I2C_LCD_InfoParam_g[I2C_LCD_InstanceIndex].BacklightVal;
 800464c:	eb07 0740 	add.w	r7, r7, r0, lsl #1
    HAL_I2C_Master_Transmit(I2C_LCD_CfgParam[I2C_LCD_InstanceIndex].I2C_Handle, (I2C_LCD_CfgParam[I2C_LCD_InstanceIndex].I2C_LCD_Address<<1), &TxData, sizeof(TxData), 100);
 8004650:	f8d3 8004 	ldr.w	r8, [r3, #4]
 8004654:	7a1e      	ldrb	r6, [r3, #8]
    uint8_t TxData = (DATA) | I2C_LCD_InfoParam_g[I2C_LCD_InstanceIndex].BacklightVal;
 8004656:	787b      	ldrb	r3, [r7, #1]
static void I2C_LCD_Send(uint8_t I2C_LCD_InstanceIndex, uint8_t Val, uint8_t Mode)
 8004658:	b084      	sub	sp, #16
{
    uint8_t HighNib = Val & 0xF0;
 800465a:	f001 09f0 	and.w	r9, r1, #240	@ 0xf0
    HAL_I2C_Master_Transmit(I2C_LCD_CfgParam[I2C_LCD_InstanceIndex].I2C_Handle, (I2C_LCD_CfgParam[I2C_LCD_InstanceIndex].I2C_LCD_Address<<1), &TxData, sizeof(TxData), 100);
 800465e:	0076      	lsls	r6, r6, #1
    uint8_t TxData = (DATA) | I2C_LCD_InfoParam_g[I2C_LCD_InstanceIndex].BacklightVal;
 8004660:	ea49 0303 	orr.w	r3, r9, r3
    HAL_I2C_Master_Transmit(I2C_LCD_CfgParam[I2C_LCD_InstanceIndex].I2C_Handle, (I2C_LCD_CfgParam[I2C_LCD_InstanceIndex].I2C_LCD_Address<<1), &TxData, sizeof(TxData), 100);
 8004664:	f04f 0a64 	mov.w	sl, #100	@ 0x64
    uint8_t LowNib = (Val << 4) & 0xF0;
 8004668:	0109      	lsls	r1, r1, #4
static void I2C_LCD_Send(uint8_t I2C_LCD_InstanceIndex, uint8_t Val, uint8_t Mode)
 800466a:	4605      	mov	r5, r0
    uint8_t LowNib = (Val << 4) & 0xF0;
 800466c:	b2cc      	uxtb	r4, r1
    HAL_I2C_Master_Transmit(I2C_LCD_CfgParam[I2C_LCD_InstanceIndex].I2C_Handle, (I2C_LCD_CfgParam[I2C_LCD_InstanceIndex].I2C_LCD_Address<<1), &TxData, sizeof(TxData), 100);
 800466e:	f10d 020f 	add.w	r2, sp, #15
    uint8_t TxData = (DATA) | I2C_LCD_InfoParam_g[I2C_LCD_InstanceIndex].BacklightVal;
 8004672:	f88d 300f 	strb.w	r3, [sp, #15]
    HAL_I2C_Master_Transmit(I2C_LCD_CfgParam[I2C_LCD_InstanceIndex].I2C_Handle, (I2C_LCD_CfgParam[I2C_LCD_InstanceIndex].I2C_LCD_Address<<1), &TxData, sizeof(TxData), 100);
 8004676:	4631      	mov	r1, r6
 8004678:	2301      	movs	r3, #1
 800467a:	f8cd a000 	str.w	sl, [sp]
 800467e:	4640      	mov	r0, r8
 8004680:	f7fe fbd0 	bl	8002e24 <HAL_I2C_Master_Transmit>
	I2C_LCD_EnPulse(I2C_LCD_InstanceIndex, Val);
 8004684:	4649      	mov	r1, r9
 8004686:	4628      	mov	r0, r5
 8004688:	f7ff ff78 	bl	800457c <I2C_LCD_EnPulse>
    HAL_I2C_Master_Transmit(I2C_LCD_CfgParam[I2C_LCD_InstanceIndex].I2C_Handle, (I2C_LCD_CfgParam[I2C_LCD_InstanceIndex].I2C_LCD_Address<<1), &TxData, sizeof(TxData), 100);
 800468c:	f8cd a000 	str.w	sl, [sp]
    uint8_t TxData = (DATA) | I2C_LCD_InfoParam_g[I2C_LCD_InstanceIndex].BacklightVal;
 8004690:	787b      	ldrb	r3, [r7, #1]
 8004692:	4323      	orrs	r3, r4
 8004694:	f88d 300f 	strb.w	r3, [sp, #15]
    HAL_I2C_Master_Transmit(I2C_LCD_CfgParam[I2C_LCD_InstanceIndex].I2C_Handle, (I2C_LCD_CfgParam[I2C_LCD_InstanceIndex].I2C_LCD_Address<<1), &TxData, sizeof(TxData), 100);
 8004698:	4631      	mov	r1, r6
 800469a:	f10d 020f 	add.w	r2, sp, #15
 800469e:	4640      	mov	r0, r8
 80046a0:	2301      	movs	r3, #1
 80046a2:	f7fe fbbf 	bl	8002e24 <HAL_I2C_Master_Transmit>
	I2C_LCD_EnPulse(I2C_LCD_InstanceIndex, Val);
 80046a6:	4621      	mov	r1, r4
 80046a8:	4628      	mov	r0, r5
    I2C_LCD_Write4Bits(I2C_LCD_InstanceIndex, (HighNib) | Mode);
    I2C_LCD_Write4Bits(I2C_LCD_InstanceIndex, (LowNib) | Mode);
}
 80046aa:	b004      	add	sp, #16
 80046ac:	e8bd 47f0 	ldmia.w	sp!, {r4, r5, r6, r7, r8, r9, sl, lr}
	I2C_LCD_EnPulse(I2C_LCD_InstanceIndex, Val);
 80046b0:	f7ff bf64 	b.w	800457c <I2C_LCD_EnPulse>
 80046b4:	08007178 	.word	0x08007178
 80046b8:	20001d24 	.word	0x20001d24

080046bc <I2C_LCD_Init>:
//=========================================================================================================================

/*-----------------------[USER EXTERNAL FUNCTIONS]-----------------------*/

void I2C_LCD_Init(uint8_t I2C_LCD_InstanceIndex)
{
 80046bc:	e92d 4ff0 	stmdb	sp!, {r4, r5, r6, r7, r8, r9, sl, fp, lr}
 80046c0:	4604      	mov	r4, r0
 80046c2:	b085      	sub	sp, #20
	// According To Datasheet, We Must Wait At Least 40ms After Power Up Before Interacting With The LCD Module
	while(HAL_GetTick() < 50);
 80046c4:	f7fd fc8e 	bl	8001fe4 <HAL_GetTick>
 80046c8:	2831      	cmp	r0, #49	@ 0x31
 80046ca:	d9fb      	bls.n	80046c4 <I2C_LCD_Init+0x8>
    uint8_t TxData = (DATA) | I2C_LCD_InfoParam_g[I2C_LCD_InstanceIndex].BacklightVal;
 80046cc:	f8df 91ec 	ldr.w	r9, [pc, #492]	@ 80048bc <I2C_LCD_Init+0x200>
 80046d0:	eb09 0544 	add.w	r5, r9, r4, lsl #1
    HAL_I2C_Master_Transmit(I2C_LCD_CfgParam[I2C_LCD_InstanceIndex].I2C_Handle, (I2C_LCD_CfgParam[I2C_LCD_InstanceIndex].I2C_LCD_Address<<1), &TxData, sizeof(TxData), 100);
 80046d4:	eb04 0244 	add.w	r2, r4, r4, lsl #1
    uint8_t TxData = (DATA) | I2C_LCD_InfoParam_g[I2C_LCD_InstanceIndex].BacklightVal;
 80046d8:	786b      	ldrb	r3, [r5, #1]
 80046da:	f043 0330 	orr.w	r3, r3, #48	@ 0x30
 80046de:	f88d 300f 	strb.w	r3, [sp, #15]
    HAL_I2C_Master_Transmit(I2C_LCD_CfgParam[I2C_LCD_InstanceIndex].I2C_Handle, (I2C_LCD_CfgParam[I2C_LCD_InstanceIndex].I2C_LCD_Address<<1), &TxData, sizeof(TxData), 100);
 80046e2:	4b74      	ldr	r3, [pc, #464]	@ (80048b4 <I2C_LCD_Init+0x1f8>)
 80046e4:	eb03 0382 	add.w	r3, r3, r2, lsl #2
 80046e8:	f04f 0864 	mov.w	r8, #100	@ 0x64
 80046ec:	7a1e      	ldrb	r6, [r3, #8]
 80046ee:	685f      	ldr	r7, [r3, #4]
 80046f0:	f8cd 8000 	str.w	r8, [sp]
 80046f4:	0076      	lsls	r6, r6, #1
 80046f6:	2301      	movs	r3, #1
 80046f8:	f10d 020f 	add.w	r2, sp, #15
 80046fc:	4631      	mov	r1, r6
 80046fe:	4638      	mov	r0, r7
 8004700:	f7fe fb90 	bl	8002e24 <HAL_I2C_Master_Transmit>
	I2C_LCD_EnPulse(I2C_LCD_InstanceIndex, Val);
 8004704:	2130      	movs	r1, #48	@ 0x30
 8004706:	4620      	mov	r0, r4
 8004708:	f7ff ff38 	bl	800457c <I2C_LCD_EnPulse>
    HAL_I2C_Master_Transmit(I2C_LCD_CfgParam[I2C_LCD_InstanceIndex].I2C_Handle, (I2C_LCD_CfgParam[I2C_LCD_InstanceIndex].I2C_LCD_Address<<1), &TxData, sizeof(TxData), 100);
 800470c:	f8cd 8000 	str.w	r8, [sp]
    uint8_t TxData = (DATA) | I2C_LCD_InfoParam_g[I2C_LCD_InstanceIndex].BacklightVal;
 8004710:	786b      	ldrb	r3, [r5, #1]
 8004712:	f88d 300f 	strb.w	r3, [sp, #15]
    HAL_I2C_Master_Transmit(I2C_LCD_CfgParam[I2C_LCD_InstanceIndex].I2C_Handle, (I2C_LCD_CfgParam[I2C_LCD_InstanceIndex].I2C_LCD_Address<<1), &TxData, sizeof(TxData), 100);
 8004716:	f10d 020f 	add.w	r2, sp, #15
 800471a:	2301      	movs	r3, #1
 800471c:	4631      	mov	r1, r6
    I2C_LCD_Cmd(I2C_LCD_InstanceIndex, 0x30);
    DELAY_MS(5);  // Delay > 4.1ms
 800471e:	f8df 81a0 	ldr.w	r8, [pc, #416]	@ 80048c0 <I2C_LCD_Init+0x204>
    HAL_I2C_Master_Transmit(I2C_LCD_CfgParam[I2C_LCD_InstanceIndex].I2C_Handle, (I2C_LCD_CfgParam[I2C_LCD_InstanceIndex].I2C_LCD_Address<<1), &TxData, sizeof(TxData), 100);
 8004722:	4638      	mov	r0, r7
 8004724:	f7fe fb7e 	bl	8002e24 <HAL_I2C_Master_Transmit>
	I2C_LCD_EnPulse(I2C_LCD_InstanceIndex, Val);
 8004728:	2100      	movs	r1, #0
 800472a:	4620      	mov	r0, r4
 800472c:	f7ff ff26 	bl	800457c <I2C_LCD_EnPulse>
    DELAY_MS(5);  // Delay > 4.1ms
 8004730:	4a61      	ldr	r2, [pc, #388]	@ (80048b8 <I2C_LCD_Init+0x1fc>)
 8004732:	f8d8 3000 	ldr.w	r3, [r8]
 8004736:	fba2 2303 	umull	r2, r3, r2, r3
 800473a:	0c99      	lsrs	r1, r3, #18
 800473c:	f44f 727a 	mov.w	r2, #1000	@ 0x3e8
 8004740:	fb02 f101 	mul.w	r1, r2, r1
    uint8_t TxData = (DATA) | I2C_LCD_InfoParam_g[I2C_LCD_InstanceIndex].BacklightVal;
 8004744:	ea4f 0b44 	mov.w	fp, r4, lsl #1
    DELAY_MS(5);  // Delay > 4.1ms
 8004748:	eba1 41d3 	sub.w	r1, r1, r3, lsr #19
 800474c:	2505      	movs	r5, #5
 800474e:	f04f 22e0 	mov.w	r2, #3758153728	@ 0xe000e000
 8004752:	6990      	ldr	r0, [r2, #24]
 8004754:	6993      	ldr	r3, [r2, #24]
 8004756:	1ac3      	subs	r3, r0, r3
 8004758:	428b      	cmp	r3, r1
 800475a:	d3fb      	bcc.n	8004754 <I2C_LCD_Init+0x98>
 800475c:	3d01      	subs	r5, #1
 800475e:	d1f8      	bne.n	8004752 <I2C_LCD_Init+0x96>
    uint8_t TxData = (DATA) | I2C_LCD_InfoParam_g[I2C_LCD_InstanceIndex].BacklightVal;
 8004760:	eb09 0a0b 	add.w	sl, r9, fp
    HAL_I2C_Master_Transmit(I2C_LCD_CfgParam[I2C_LCD_InstanceIndex].I2C_Handle, (I2C_LCD_CfgParam[I2C_LCD_InstanceIndex].I2C_LCD_Address<<1), &TxData, sizeof(TxData), 100);
 8004764:	2364      	movs	r3, #100	@ 0x64
 8004766:	9300      	str	r3, [sp, #0]
    uint8_t TxData = (DATA) | I2C_LCD_InfoParam_g[I2C_LCD_InstanceIndex].BacklightVal;
 8004768:	f89a 3001 	ldrb.w	r3, [sl, #1]
 800476c:	f043 0330 	orr.w	r3, r3, #48	@ 0x30
    HAL_I2C_Master_Transmit(I2C_LCD_CfgParam[I2C_LCD_InstanceIndex].I2C_Handle, (I2C_LCD_CfgParam[I2C_LCD_InstanceIndex].I2C_LCD_Address<<1), &TxData, sizeof(TxData), 100);
 8004770:	f10d 020f 	add.w	r2, sp, #15
    uint8_t TxData = (DATA) | I2C_LCD_InfoParam_g[I2C_LCD_InstanceIndex].BacklightVal;
 8004774:	f88d 300f 	strb.w	r3, [sp, #15]
    HAL_I2C_Master_Transmit(I2C_LCD_CfgParam[I2C_LCD_InstanceIndex].I2C_Handle, (I2C_LCD_CfgParam[I2C_LCD_InstanceIndex].I2C_LCD_Address<<1), &TxData, sizeof(TxData), 100);
 8004778:	4631      	mov	r1, r6
 800477a:	2301      	movs	r3, #1
 800477c:	4638      	mov	r0, r7
 800477e:	f7fe fb51 	bl	8002e24 <HAL_I2C_Master_Transmit>
	I2C_LCD_EnPulse(I2C_LCD_InstanceIndex, Val);
 8004782:	2130      	movs	r1, #48	@ 0x30
 8004784:	4620      	mov	r0, r4
 8004786:	f7ff fef9 	bl	800457c <I2C_LCD_EnPulse>
    HAL_I2C_Master_Transmit(I2C_LCD_CfgParam[I2C_LCD_InstanceIndex].I2C_Handle, (I2C_LCD_CfgParam[I2C_LCD_InstanceIndex].I2C_LCD_Address<<1), &TxData, sizeof(TxData), 100);
 800478a:	2364      	movs	r3, #100	@ 0x64
 800478c:	9300      	str	r3, [sp, #0]
    uint8_t TxData = (DATA) | I2C_LCD_InfoParam_g[I2C_LCD_InstanceIndex].BacklightVal;
 800478e:	f89a 3001 	ldrb.w	r3, [sl, #1]
 8004792:	f88d 300f 	strb.w	r3, [sp, #15]
    HAL_I2C_Master_Transmit(I2C_LCD_CfgParam[I2C_LCD_InstanceIndex].I2C_Handle, (I2C_LCD_CfgParam[I2C_LCD_InstanceIndex].I2C_LCD_Address<<1), &TxData, sizeof(TxData), 100);
 8004796:	f10d 020f 	add.w	r2, sp, #15
 800479a:	2301      	movs	r3, #1
 800479c:	4631      	mov	r1, r6
 800479e:	4638      	mov	r0, r7
 80047a0:	f7fe fb40 	bl	8002e24 <HAL_I2C_Master_Transmit>
	I2C_LCD_EnPulse(I2C_LCD_InstanceIndex, Val);
 80047a4:	4629      	mov	r1, r5
 80047a6:	4620      	mov	r0, r4
 80047a8:	f7ff fee8 	bl	800457c <I2C_LCD_EnPulse>
    I2C_LCD_Cmd(I2C_LCD_InstanceIndex, 0x30);
    DELAY_MS(5);  // Delay > 4.1ms
 80047ac:	4a42      	ldr	r2, [pc, #264]	@ (80048b8 <I2C_LCD_Init+0x1fc>)
 80047ae:	f8d8 3000 	ldr.w	r3, [r8]
 80047b2:	fba2 2303 	umull	r2, r3, r2, r3
 80047b6:	0c9a      	lsrs	r2, r3, #18
 80047b8:	f44f 717a 	mov.w	r1, #1000	@ 0x3e8
 80047bc:	fb01 f202 	mul.w	r2, r1, r2
 80047c0:	eba2 42d3 	sub.w	r2, r2, r3, lsr #19
 80047c4:	f04f 0a05 	mov.w	sl, #5
 80047c8:	f04f 25e0 	mov.w	r5, #3758153728	@ 0xe000e000
 80047cc:	69a9      	ldr	r1, [r5, #24]
 80047ce:	69ab      	ldr	r3, [r5, #24]
 80047d0:	1acb      	subs	r3, r1, r3
 80047d2:	4293      	cmp	r3, r2
 80047d4:	d3fb      	bcc.n	80047ce <I2C_LCD_Init+0x112>
 80047d6:	f1ba 0a01 	subs.w	sl, sl, #1
 80047da:	d1f7      	bne.n	80047cc <I2C_LCD_Init+0x110>
    uint8_t TxData = (DATA) | I2C_LCD_InfoParam_g[I2C_LCD_InstanceIndex].BacklightVal;
 80047dc:	44cb      	add	fp, r9
    HAL_I2C_Master_Transmit(I2C_LCD_CfgParam[I2C_LCD_InstanceIndex].I2C_Handle, (I2C_LCD_CfgParam[I2C_LCD_InstanceIndex].I2C_LCD_Address<<1), &TxData, sizeof(TxData), 100);
 80047de:	2364      	movs	r3, #100	@ 0x64
 80047e0:	9300      	str	r3, [sp, #0]
    uint8_t TxData = (DATA) | I2C_LCD_InfoParam_g[I2C_LCD_InstanceIndex].BacklightVal;
 80047e2:	f89b 3001 	ldrb.w	r3, [fp, #1]
 80047e6:	f043 0330 	orr.w	r3, r3, #48	@ 0x30
    HAL_I2C_Master_Transmit(I2C_LCD_CfgParam[I2C_LCD_InstanceIndex].I2C_Handle, (I2C_LCD_CfgParam[I2C_LCD_InstanceIndex].I2C_LCD_Address<<1), &TxData, sizeof(TxData), 100);
 80047ea:	f10d 020f 	add.w	r2, sp, #15
    uint8_t TxData = (DATA) | I2C_LCD_InfoParam_g[I2C_LCD_InstanceIndex].BacklightVal;
 80047ee:	f88d 300f 	strb.w	r3, [sp, #15]
    HAL_I2C_Master_Transmit(I2C_LCD_CfgParam[I2C_LCD_InstanceIndex].I2C_Handle, (I2C_LCD_CfgParam[I2C_LCD_InstanceIndex].I2C_LCD_Address<<1), &TxData, sizeof(TxData), 100);
 80047f2:	4631      	mov	r1, r6
 80047f4:	2301      	movs	r3, #1
 80047f6:	4638      	mov	r0, r7
 80047f8:	f7fe fb14 	bl	8002e24 <HAL_I2C_Master_Transmit>
	I2C_LCD_EnPulse(I2C_LCD_InstanceIndex, Val);
 80047fc:	2130      	movs	r1, #48	@ 0x30
 80047fe:	4620      	mov	r0, r4
 8004800:	f7ff febc 	bl	800457c <I2C_LCD_EnPulse>
    HAL_I2C_Master_Transmit(I2C_LCD_CfgParam[I2C_LCD_InstanceIndex].I2C_Handle, (I2C_LCD_CfgParam[I2C_LCD_InstanceIndex].I2C_LCD_Address<<1), &TxData, sizeof(TxData), 100);
 8004804:	2364      	movs	r3, #100	@ 0x64
 8004806:	9300      	str	r3, [sp, #0]
    uint8_t TxData = (DATA) | I2C_LCD_InfoParam_g[I2C_LCD_InstanceIndex].BacklightVal;
 8004808:	f89b 3001 	ldrb.w	r3, [fp, #1]
 800480c:	f88d 300f 	strb.w	r3, [sp, #15]
    HAL_I2C_Master_Transmit(I2C_LCD_CfgParam[I2C_LCD_InstanceIndex].I2C_Handle, (I2C_LCD_CfgParam[I2C_LCD_InstanceIndex].I2C_LCD_Address<<1), &TxData, sizeof(TxData), 100);
 8004810:	f10d 020f 	add.w	r2, sp, #15
 8004814:	2301      	movs	r3, #1
 8004816:	4631      	mov	r1, r6
 8004818:	4638      	mov	r0, r7
 800481a:	f7fe fb03 	bl	8002e24 <HAL_I2C_Master_Transmit>
	I2C_LCD_EnPulse(I2C_LCD_InstanceIndex, Val);
 800481e:	4651      	mov	r1, sl
 8004820:	4620      	mov	r0, r4
 8004822:	f7ff feab 	bl	800457c <I2C_LCD_EnPulse>
    I2C_LCD_Cmd(I2C_LCD_InstanceIndex, 0x30);
    DELAY_US(150);  // Delay > 100s
 8004826:	4a24      	ldr	r2, [pc, #144]	@ (80048b8 <I2C_LCD_Init+0x1fc>)
 8004828:	f8d8 3000 	ldr.w	r3, [r8]
 800482c:	69a9      	ldr	r1, [r5, #24]
 800482e:	fba2 2303 	umull	r2, r3, r2, r3
 8004832:	0c9a      	lsrs	r2, r3, #18
 8004834:	2096      	movs	r0, #150	@ 0x96
 8004836:	fb00 f202 	mul.w	r2, r0, r2
 800483a:	eba2 42d3 	sub.w	r2, r2, r3, lsr #19
 800483e:	f04f 25e0 	mov.w	r5, #3758153728	@ 0xe000e000
 8004842:	69ab      	ldr	r3, [r5, #24]
 8004844:	1acb      	subs	r3, r1, r3
 8004846:	4293      	cmp	r3, r2
 8004848:	d3fb      	bcc.n	8004842 <I2C_LCD_Init+0x186>
	I2C_LCD_Send(I2C_LCD_InstanceIndex, CMD, 0);
 800484a:	2102      	movs	r1, #2
 800484c:	4620      	mov	r0, r4
 800484e:	f7ff fef5 	bl	800463c <I2C_LCD_Send.constprop.2>
 8004852:	2128      	movs	r1, #40	@ 0x28
 8004854:	4620      	mov	r0, r4
 8004856:	f7ff fef1 	bl	800463c <I2C_LCD_Send.constprop.2>
 800485a:	210c      	movs	r1, #12
 800485c:	4620      	mov	r0, r4
 800485e:	f7ff feed 	bl	800463c <I2C_LCD_Send.constprop.2>
 8004862:	2106      	movs	r1, #6
 8004864:	4620      	mov	r0, r4
 8004866:	f7ff fee9 	bl	800463c <I2C_LCD_Send.constprop.2>
    I2C_LCD_Cmd(I2C_LCD_InstanceIndex, 0x02);
    // Configure the LCD
    I2C_LCD_Cmd(I2C_LCD_InstanceIndex, LCD_FUNCTIONSET | LCD_4BITMODE | LCD_2LINE | LCD_5x8DOTS);
    I2C_LCD_Cmd(I2C_LCD_InstanceIndex, LCD_DISPLAYCONTROL | LCD_DISPLAYON | LCD_CURSOROFF | LCD_BLINKOFF);
    I2C_LCD_Cmd(I2C_LCD_InstanceIndex, LCD_ENTRYMODESET | LCD_ENTRYLEFT | LCD_ENTRYSHIFTDECREMENT);
    I2C_LCD_InfoParam_g[I2C_LCD_InstanceIndex].DisplayCtrl = LCD_DISPLAYON | LCD_CURSOROFF | LCD_BLINKOFF;
 800486a:	f640 0304 	movw	r3, #2052	@ 0x804
 800486e:	f829 3014 	strh.w	r3, [r9, r4, lsl #1]
	I2C_LCD_Send(I2C_LCD_InstanceIndex, CMD, 0);
 8004872:	2101      	movs	r1, #1
 8004874:	4620      	mov	r0, r4
 8004876:	f7ff fee1 	bl	800463c <I2C_LCD_Send.constprop.2>
}

void I2C_LCD_Clear(uint8_t I2C_LCD_InstanceIndex)
{
    I2C_LCD_Cmd(I2C_LCD_InstanceIndex, LCD_CLEARDISPLAY);
    DELAY_MS(2);
 800487a:	4a0f      	ldr	r2, [pc, #60]	@ (80048b8 <I2C_LCD_Init+0x1fc>)
 800487c:	f8d8 3000 	ldr.w	r3, [r8]
 8004880:	69a8      	ldr	r0, [r5, #24]
 8004882:	fba2 2303 	umull	r2, r3, r2, r3
 8004886:	f44f 717a 	mov.w	r1, #1000	@ 0x3e8
 800488a:	0c9a      	lsrs	r2, r3, #18
 800488c:	fb01 f202 	mul.w	r2, r1, r2
 8004890:	eba2 42d3 	sub.w	r2, r2, r3, lsr #19
 8004894:	f04f 21e0 	mov.w	r1, #3758153728	@ 0xe000e000
 8004898:	698b      	ldr	r3, [r1, #24]
 800489a:	1ac3      	subs	r3, r0, r3
 800489c:	429a      	cmp	r2, r3
 800489e:	d8fb      	bhi.n	8004898 <I2C_LCD_Init+0x1dc>
 80048a0:	6988      	ldr	r0, [r1, #24]
 80048a2:	f04f 21e0 	mov.w	r1, #3758153728	@ 0xe000e000
 80048a6:	698b      	ldr	r3, [r1, #24]
 80048a8:	1ac3      	subs	r3, r0, r3
 80048aa:	429a      	cmp	r2, r3
 80048ac:	d8fb      	bhi.n	80048a6 <I2C_LCD_Init+0x1ea>
}
 80048ae:	b005      	add	sp, #20
 80048b0:	e8bd 8ff0 	ldmia.w	sp!, {r4, r5, r6, r7, r8, r9, sl, fp, pc}
 80048b4:	08007178 	.word	0x08007178
 80048b8:	431bde83 	.word	0x431bde83
 80048bc:	20001d24 	.word	0x20001d24
 80048c0:	20000010 	.word	0x20000010

080048c4 <I2C_LCD_Clear>:
{
 80048c4:	e92d 41f0 	stmdb	sp!, {r4, r5, r6, r7, r8, lr}
    HAL_I2C_Master_Transmit(I2C_LCD_CfgParam[I2C_LCD_InstanceIndex].I2C_Handle, (I2C_LCD_CfgParam[I2C_LCD_InstanceIndex].I2C_LCD_Address<<1), &TxData, sizeof(TxData), 100);
 80048c8:	4b26      	ldr	r3, [pc, #152]	@ (8004964 <I2C_LCD_Clear+0xa0>)
    uint8_t TxData = (DATA) | I2C_LCD_InfoParam_g[I2C_LCD_InstanceIndex].BacklightVal;
 80048ca:	4e27      	ldr	r6, [pc, #156]	@ (8004968 <I2C_LCD_Clear+0xa4>)
    HAL_I2C_Master_Transmit(I2C_LCD_CfgParam[I2C_LCD_InstanceIndex].I2C_Handle, (I2C_LCD_CfgParam[I2C_LCD_InstanceIndex].I2C_LCD_Address<<1), &TxData, sizeof(TxData), 100);
 80048cc:	eb00 0240 	add.w	r2, r0, r0, lsl #1
 80048d0:	eb03 0382 	add.w	r3, r3, r2, lsl #2
    uint8_t TxData = (DATA) | I2C_LCD_InfoParam_g[I2C_LCD_InstanceIndex].BacklightVal;
 80048d4:	eb06 0640 	add.w	r6, r6, r0, lsl #1
    HAL_I2C_Master_Transmit(I2C_LCD_CfgParam[I2C_LCD_InstanceIndex].I2C_Handle, (I2C_LCD_CfgParam[I2C_LCD_InstanceIndex].I2C_LCD_Address<<1), &TxData, sizeof(TxData), 100);
 80048d8:	7a1d      	ldrb	r5, [r3, #8]
 80048da:	685f      	ldr	r7, [r3, #4]
    uint8_t TxData = (DATA) | I2C_LCD_InfoParam_g[I2C_LCD_InstanceIndex].BacklightVal;
 80048dc:	7872      	ldrb	r2, [r6, #1]
{
 80048de:	b084      	sub	sp, #16
    HAL_I2C_Master_Transmit(I2C_LCD_CfgParam[I2C_LCD_InstanceIndex].I2C_Handle, (I2C_LCD_CfgParam[I2C_LCD_InstanceIndex].I2C_LCD_Address<<1), &TxData, sizeof(TxData), 100);
 80048e0:	006d      	lsls	r5, r5, #1
 80048e2:	f04f 0864 	mov.w	r8, #100	@ 0x64
{
 80048e6:	4604      	mov	r4, r0
    HAL_I2C_Master_Transmit(I2C_LCD_CfgParam[I2C_LCD_InstanceIndex].I2C_Handle, (I2C_LCD_CfgParam[I2C_LCD_InstanceIndex].I2C_LCD_Address<<1), &TxData, sizeof(TxData), 100);
 80048e8:	2301      	movs	r3, #1
    uint8_t TxData = (DATA) | I2C_LCD_InfoParam_g[I2C_LCD_InstanceIndex].BacklightVal;
 80048ea:	f88d 200f 	strb.w	r2, [sp, #15]
    HAL_I2C_Master_Transmit(I2C_LCD_CfgParam[I2C_LCD_InstanceIndex].I2C_Handle, (I2C_LCD_CfgParam[I2C_LCD_InstanceIndex].I2C_LCD_Address<<1), &TxData, sizeof(TxData), 100);
 80048ee:	4629      	mov	r1, r5
 80048f0:	f10d 020f 	add.w	r2, sp, #15
 80048f4:	f8cd 8000 	str.w	r8, [sp]
 80048f8:	4638      	mov	r0, r7
 80048fa:	f7fe fa93 	bl	8002e24 <HAL_I2C_Master_Transmit>
	I2C_LCD_EnPulse(I2C_LCD_InstanceIndex, Val);
 80048fe:	2100      	movs	r1, #0
 8004900:	4620      	mov	r0, r4
 8004902:	f7ff fe3b 	bl	800457c <I2C_LCD_EnPulse>
    HAL_I2C_Master_Transmit(I2C_LCD_CfgParam[I2C_LCD_InstanceIndex].I2C_Handle, (I2C_LCD_CfgParam[I2C_LCD_InstanceIndex].I2C_LCD_Address<<1), &TxData, sizeof(TxData), 100);
 8004906:	f8cd 8000 	str.w	r8, [sp]
    uint8_t TxData = (DATA) | I2C_LCD_InfoParam_g[I2C_LCD_InstanceIndex].BacklightVal;
 800490a:	7873      	ldrb	r3, [r6, #1]
 800490c:	f043 0310 	orr.w	r3, r3, #16
    HAL_I2C_Master_Transmit(I2C_LCD_CfgParam[I2C_LCD_InstanceIndex].I2C_Handle, (I2C_LCD_CfgParam[I2C_LCD_InstanceIndex].I2C_LCD_Address<<1), &TxData, sizeof(TxData), 100);
 8004910:	f10d 020f 	add.w	r2, sp, #15
    uint8_t TxData = (DATA) | I2C_LCD_InfoParam_g[I2C_LCD_InstanceIndex].BacklightVal;
 8004914:	f88d 300f 	strb.w	r3, [sp, #15]
    HAL_I2C_Master_Transmit(I2C_LCD_CfgParam[I2C_LCD_InstanceIndex].I2C_Handle, (I2C_LCD_CfgParam[I2C_LCD_InstanceIndex].I2C_LCD_Address<<1), &TxData, sizeof(TxData), 100);
 8004918:	4629      	mov	r1, r5
 800491a:	2301      	movs	r3, #1
 800491c:	4638      	mov	r0, r7
 800491e:	f7fe fa81 	bl	8002e24 <HAL_I2C_Master_Transmit>
	I2C_LCD_EnPulse(I2C_LCD_InstanceIndex, Val);
 8004922:	2110      	movs	r1, #16
 8004924:	4620      	mov	r0, r4
 8004926:	f7ff fe29 	bl	800457c <I2C_LCD_EnPulse>
    DELAY_MS(2);
 800492a:	4b10      	ldr	r3, [pc, #64]	@ (800496c <I2C_LCD_Clear+0xa8>)
 800492c:	4a10      	ldr	r2, [pc, #64]	@ (8004970 <I2C_LCD_Clear+0xac>)
 800492e:	681b      	ldr	r3, [r3, #0]
 8004930:	f04f 21e0 	mov.w	r1, #3758153728	@ 0xe000e000
 8004934:	fba2 2303 	umull	r2, r3, r2, r3
 8004938:	f44f 707a 	mov.w	r0, #1000	@ 0x3e8
 800493c:	0c9a      	lsrs	r2, r3, #18
 800493e:	fb00 f202 	mul.w	r2, r0, r2
 8004942:	6988      	ldr	r0, [r1, #24]
 8004944:	eba2 42d3 	sub.w	r2, r2, r3, lsr #19
 8004948:	698b      	ldr	r3, [r1, #24]
 800494a:	1ac3      	subs	r3, r0, r3
 800494c:	429a      	cmp	r2, r3
 800494e:	d8fb      	bhi.n	8004948 <I2C_LCD_Clear+0x84>
 8004950:	6988      	ldr	r0, [r1, #24]
 8004952:	f04f 21e0 	mov.w	r1, #3758153728	@ 0xe000e000
 8004956:	698b      	ldr	r3, [r1, #24]
 8004958:	1ac3      	subs	r3, r0, r3
 800495a:	429a      	cmp	r2, r3
 800495c:	d8fb      	bhi.n	8004956 <I2C_LCD_Clear+0x92>
}
 800495e:	b004      	add	sp, #16
 8004960:	e8bd 81f0 	ldmia.w	sp!, {r4, r5, r6, r7, r8, pc}
 8004964:	08007178 	.word	0x08007178
 8004968:	20001d24 	.word	0x20001d24
 800496c:	20000010 	.word	0x20000010
 8004970:	431bde83 	.word	0x431bde83

08004974 <I2C_LCD_SetCursor>:
    I2C_LCD_Cmd(I2C_LCD_InstanceIndex, LCD_RETURNHOME);
    DELAY_MS(2);
}

void I2C_LCD_SetCursor(uint8_t I2C_LCD_InstanceIndex, uint8_t Col, uint8_t Row)
{
 8004974:	b570      	push	{r4, r5, r6, lr}
 8004976:	4696      	mov	lr, r2
    int Row_Offsets[] = {0x00, 0x40, 0x14, 0x54};
    if (Row > I2C_LCD_CfgParam[I2C_LCD_InstanceIndex].I2C_LCD_nRow)
 8004978:	4a11      	ldr	r2, [pc, #68]	@ (80049c0 <I2C_LCD_SetCursor+0x4c>)
    int Row_Offsets[] = {0x00, 0x40, 0x14, 0x54};
 800497a:	4b12      	ldr	r3, [pc, #72]	@ (80049c4 <I2C_LCD_SetCursor+0x50>)
{
 800497c:	468c      	mov	ip, r1
    if (Row > I2C_LCD_CfgParam[I2C_LCD_InstanceIndex].I2C_LCD_nRow)
 800497e:	eb00 0140 	add.w	r1, r0, r0, lsl #1
 8004982:	eb02 0281 	add.w	r2, r2, r1, lsl #2
{
 8004986:	4604      	mov	r4, r0
    if (Row > I2C_LCD_CfgParam[I2C_LCD_InstanceIndex].I2C_LCD_nRow)
 8004988:	7a95      	ldrb	r5, [r2, #10]
    int Row_Offsets[] = {0x00, 0x40, 0x14, 0x54};
 800498a:	cb0f      	ldmia	r3, {r0, r1, r2, r3}
{
 800498c:	b084      	sub	sp, #16
    int Row_Offsets[] = {0x00, 0x40, 0x14, 0x54};
 800498e:	ae04      	add	r6, sp, #16
 8004990:	e906 000f 	stmdb	r6, {r0, r1, r2, r3}
    if (Row > I2C_LCD_CfgParam[I2C_LCD_InstanceIndex].I2C_LCD_nRow)
 8004994:	4575      	cmp	r5, lr
    {
    	Row = I2C_LCD_CfgParam[I2C_LCD_InstanceIndex].I2C_LCD_nRow - 1;
 8004996:	bf3c      	itt	cc
 8004998:	f105 35ff 	addcc.w	r5, r5, #4294967295
 800499c:	fa5f fe85 	uxtbcc.w	lr, r5
    }
    I2C_LCD_Cmd(I2C_LCD_InstanceIndex, LCD_SETDDRAMADDR | (Col + Row_Offsets[Row]));
 80049a0:	ab04      	add	r3, sp, #16
 80049a2:	eb03 0e8e 	add.w	lr, r3, lr, lsl #2
	I2C_LCD_Send(I2C_LCD_InstanceIndex, CMD, 0);
 80049a6:	4620      	mov	r0, r4
    I2C_LCD_Cmd(I2C_LCD_InstanceIndex, LCD_SETDDRAMADDR | (Col + Row_Offsets[Row]));
 80049a8:	f85e 1c10 	ldr.w	r1, [lr, #-16]
 80049ac:	4461      	add	r1, ip
	I2C_LCD_Send(I2C_LCD_InstanceIndex, CMD, 0);
 80049ae:	f061 017f 	orn	r1, r1, #127	@ 0x7f
 80049b2:	b2c9      	uxtb	r1, r1
}
 80049b4:	b004      	add	sp, #16
 80049b6:	e8bd 4070 	ldmia.w	sp!, {r4, r5, r6, lr}
	I2C_LCD_Send(I2C_LCD_InstanceIndex, CMD, 0);
 80049ba:	f7ff be3f 	b.w	800463c <I2C_LCD_Send.constprop.2>
 80049be:	bf00      	nop
 80049c0:	08007178 	.word	0x08007178
 80049c4:	08005128 	.word	0x08005128

080049c8 <I2C_LCD_WriteString>:
{
    I2C_LCD_Data(I2C_LCD_InstanceIndex, Ch);
}

void I2C_LCD_WriteString(uint8_t I2C_LCD_InstanceIndex, char *Str)
{
 80049c8:	e92d 4ff0 	stmdb	sp!, {r4, r5, r6, r7, r8, r9, sl, fp, lr}
    while (*Str)
 80049cc:	780d      	ldrb	r5, [r1, #0]
{
 80049ce:	b087      	sub	sp, #28
    while (*Str)
 80049d0:	2d00      	cmp	r5, #0
 80049d2:	f000 80b5 	beq.w	8004b40 <I2C_LCD_WriteString+0x178>
    HAL_I2C_Master_Transmit(I2C_LCD_CfgParam[I2C_LCD_InstanceIndex].I2C_Handle, (I2C_LCD_CfgParam[I2C_LCD_InstanceIndex].I2C_LCD_Address<<1), &TxData, sizeof(TxData), 100);
 80049d6:	4b5c      	ldr	r3, [pc, #368]	@ (8004b48 <I2C_LCD_WriteString+0x180>)
 80049d8:	4f5c      	ldr	r7, [pc, #368]	@ (8004b4c <I2C_LCD_WriteString+0x184>)
 80049da:	f8df b178 	ldr.w	fp, [pc, #376]	@ 8004b54 <I2C_LCD_WriteString+0x18c>
 80049de:	9102      	str	r1, [sp, #8]
 80049e0:	eb00 0240 	add.w	r2, r0, r0, lsl #1
 80049e4:	eb03 0382 	add.w	r3, r3, r2, lsl #2
    uint8_t TxData = (DATA) | I2C_LCD_InfoParam_g[I2C_LCD_InstanceIndex].BacklightVal;
 80049e8:	eb07 0740 	add.w	r7, r7, r0, lsl #1
    HAL_I2C_Master_Transmit(I2C_LCD_CfgParam[I2C_LCD_InstanceIndex].I2C_Handle, (I2C_LCD_CfgParam[I2C_LCD_InstanceIndex].I2C_LCD_Address<<1), &TxData, sizeof(TxData), 100);
 80049ec:	685a      	ldr	r2, [r3, #4]
 80049ee:	f893 8008 	ldrb.w	r8, [r3, #8]
 80049f2:	f04f 0964 	mov.w	r9, #100	@ 0x64
 80049f6:	ea4f 0848 	mov.w	r8, r8, lsl #1
	DELAY_US(2); // enable pulse must be >450ns
 80049fa:	f04f 24e0 	mov.w	r4, #3758153728	@ 0xe000e000
    DELAY_US(50); // commands need > 37us to settle
 80049fe:	4692      	mov	sl, r2
    uint8_t HighNib = Val & 0xF0;
 8004a00:	f005 06f0 	and.w	r6, r5, #240	@ 0xf0
    uint8_t LowNib = (Val << 4) & 0xF0;
 8004a04:	012d      	lsls	r5, r5, #4
 8004a06:	b2eb      	uxtb	r3, r5
    HAL_I2C_Master_Transmit(I2C_LCD_CfgParam[I2C_LCD_InstanceIndex].I2C_Handle, (I2C_LCD_CfgParam[I2C_LCD_InstanceIndex].I2C_LCD_Address<<1), &TxData, sizeof(TxData), 100);
 8004a08:	f8cd 9000 	str.w	r9, [sp]
    uint8_t LowNib = (Val << 4) & 0xF0;
 8004a0c:	9303      	str	r3, [sp, #12]
    uint8_t TxData = (DATA) | I2C_LCD_InfoParam_g[I2C_LCD_InstanceIndex].BacklightVal;
 8004a0e:	787b      	ldrb	r3, [r7, #1]
    I2C_LCD_Write4Bits(I2C_LCD_InstanceIndex, (HighNib) | Mode);
 8004a10:	f046 0501 	orr.w	r5, r6, #1
    uint8_t TxData = (DATA) | I2C_LCD_InfoParam_g[I2C_LCD_InstanceIndex].BacklightVal;
 8004a14:	432b      	orrs	r3, r5
 8004a16:	f88d 3017 	strb.w	r3, [sp, #23]
    HAL_I2C_Master_Transmit(I2C_LCD_CfgParam[I2C_LCD_InstanceIndex].I2C_Handle, (I2C_LCD_CfgParam[I2C_LCD_InstanceIndex].I2C_LCD_Address<<1), &TxData, sizeof(TxData), 100);
 8004a1a:	f10d 0217 	add.w	r2, sp, #23
 8004a1e:	2301      	movs	r3, #1
 8004a20:	4641      	mov	r1, r8
 8004a22:	4650      	mov	r0, sl
 8004a24:	f7fe f9fe 	bl	8002e24 <HAL_I2C_Master_Transmit>
 8004a28:	f8cd 9000 	str.w	r9, [sp]
    uint8_t TxData = (DATA) | I2C_LCD_InfoParam_g[I2C_LCD_InstanceIndex].BacklightVal;
 8004a2c:	787b      	ldrb	r3, [r7, #1]
 8004a2e:	431e      	orrs	r6, r3
    HAL_I2C_Master_Transmit(I2C_LCD_CfgParam[I2C_LCD_InstanceIndex].I2C_Handle, (I2C_LCD_CfgParam[I2C_LCD_InstanceIndex].I2C_LCD_Address<<1), &TxData, sizeof(TxData), 100);
 8004a30:	f10d 0217 	add.w	r2, sp, #23
 8004a34:	2301      	movs	r3, #1
 8004a36:	4641      	mov	r1, r8
    uint8_t TxData = (DATA) | I2C_LCD_InfoParam_g[I2C_LCD_InstanceIndex].BacklightVal;
 8004a38:	f046 0605 	orr.w	r6, r6, #5
    HAL_I2C_Master_Transmit(I2C_LCD_CfgParam[I2C_LCD_InstanceIndex].I2C_Handle, (I2C_LCD_CfgParam[I2C_LCD_InstanceIndex].I2C_LCD_Address<<1), &TxData, sizeof(TxData), 100);
 8004a3c:	4650      	mov	r0, sl
    uint8_t TxData = (DATA) | I2C_LCD_InfoParam_g[I2C_LCD_InstanceIndex].BacklightVal;
 8004a3e:	f88d 6017 	strb.w	r6, [sp, #23]
    HAL_I2C_Master_Transmit(I2C_LCD_CfgParam[I2C_LCD_InstanceIndex].I2C_Handle, (I2C_LCD_CfgParam[I2C_LCD_InstanceIndex].I2C_LCD_Address<<1), &TxData, sizeof(TxData), 100);
 8004a42:	f7fe f9ef 	bl	8002e24 <HAL_I2C_Master_Transmit>
	DELAY_US(2); // enable pulse must be >450ns
 8004a46:	4b42      	ldr	r3, [pc, #264]	@ (8004b50 <I2C_LCD_WriteString+0x188>)
 8004a48:	f8db 2000 	ldr.w	r2, [fp]
 8004a4c:	69a1      	ldr	r1, [r4, #24]
 8004a4e:	fba3 3202 	umull	r3, r2, r3, r2
 8004a52:	0c93      	lsrs	r3, r2, #18
 8004a54:	0cd2      	lsrs	r2, r2, #19
 8004a56:	ebc2 0243 	rsb	r2, r2, r3, lsl #1
 8004a5a:	69a3      	ldr	r3, [r4, #24]
 8004a5c:	1acb      	subs	r3, r1, r3
 8004a5e:	429a      	cmp	r2, r3
 8004a60:	d8fb      	bhi.n	8004a5a <I2C_LCD_WriteString+0x92>
    uint8_t TxData = (DATA) | I2C_LCD_InfoParam_g[I2C_LCD_InstanceIndex].BacklightVal;
 8004a62:	787b      	ldrb	r3, [r7, #1]
    HAL_I2C_Master_Transmit(I2C_LCD_CfgParam[I2C_LCD_InstanceIndex].I2C_Handle, (I2C_LCD_CfgParam[I2C_LCD_InstanceIndex].I2C_LCD_Address<<1), &TxData, sizeof(TxData), 100);
 8004a64:	f8cd 9000 	str.w	r9, [sp]
    uint8_t TxData = (DATA) | I2C_LCD_InfoParam_g[I2C_LCD_InstanceIndex].BacklightVal;
 8004a68:	431d      	orrs	r5, r3
    HAL_I2C_Master_Transmit(I2C_LCD_CfgParam[I2C_LCD_InstanceIndex].I2C_Handle, (I2C_LCD_CfgParam[I2C_LCD_InstanceIndex].I2C_LCD_Address<<1), &TxData, sizeof(TxData), 100);
 8004a6a:	f10d 0217 	add.w	r2, sp, #23
 8004a6e:	2301      	movs	r3, #1
 8004a70:	4641      	mov	r1, r8
 8004a72:	4650      	mov	r0, sl
    uint8_t TxData = (DATA) | I2C_LCD_InfoParam_g[I2C_LCD_InstanceIndex].BacklightVal;
 8004a74:	f88d 5017 	strb.w	r5, [sp, #23]
    HAL_I2C_Master_Transmit(I2C_LCD_CfgParam[I2C_LCD_InstanceIndex].I2C_Handle, (I2C_LCD_CfgParam[I2C_LCD_InstanceIndex].I2C_LCD_Address<<1), &TxData, sizeof(TxData), 100);
 8004a78:	f7fe f9d4 	bl	8002e24 <HAL_I2C_Master_Transmit>
    DELAY_US(50); // commands need > 37us to settle
 8004a7c:	4a34      	ldr	r2, [pc, #208]	@ (8004b50 <I2C_LCD_WriteString+0x188>)
 8004a7e:	f8db 3000 	ldr.w	r3, [fp]
 8004a82:	69a1      	ldr	r1, [r4, #24]
 8004a84:	fba2 2303 	umull	r2, r3, r2, r3
 8004a88:	0c9a      	lsrs	r2, r3, #18
 8004a8a:	2032      	movs	r0, #50	@ 0x32
 8004a8c:	fb00 f202 	mul.w	r2, r0, r2
 8004a90:	eba2 42d3 	sub.w	r2, r2, r3, lsr #19
 8004a94:	69a3      	ldr	r3, [r4, #24]
 8004a96:	1acb      	subs	r3, r1, r3
 8004a98:	429a      	cmp	r2, r3
 8004a9a:	d8fb      	bhi.n	8004a94 <I2C_LCD_WriteString+0xcc>
    I2C_LCD_Write4Bits(I2C_LCD_InstanceIndex, (LowNib) | Mode);
 8004a9c:	9e03      	ldr	r6, [sp, #12]
    uint8_t TxData = (DATA) | I2C_LCD_InfoParam_g[I2C_LCD_InstanceIndex].BacklightVal;
 8004a9e:	787b      	ldrb	r3, [r7, #1]
    HAL_I2C_Master_Transmit(I2C_LCD_CfgParam[I2C_LCD_InstanceIndex].I2C_Handle, (I2C_LCD_CfgParam[I2C_LCD_InstanceIndex].I2C_LCD_Address<<1), &TxData, sizeof(TxData), 100);
 8004aa0:	f8cd 9000 	str.w	r9, [sp]
    I2C_LCD_Write4Bits(I2C_LCD_InstanceIndex, (LowNib) | Mode);
 8004aa4:	f046 0501 	orr.w	r5, r6, #1
    uint8_t TxData = (DATA) | I2C_LCD_InfoParam_g[I2C_LCD_InstanceIndex].BacklightVal;
 8004aa8:	432b      	orrs	r3, r5
 8004aaa:	f88d 3017 	strb.w	r3, [sp, #23]
    HAL_I2C_Master_Transmit(I2C_LCD_CfgParam[I2C_LCD_InstanceIndex].I2C_Handle, (I2C_LCD_CfgParam[I2C_LCD_InstanceIndex].I2C_LCD_Address<<1), &TxData, sizeof(TxData), 100);
 8004aae:	f10d 0217 	add.w	r2, sp, #23
 8004ab2:	2301      	movs	r3, #1
 8004ab4:	4641      	mov	r1, r8
 8004ab6:	4650      	mov	r0, sl
 8004ab8:	f7fe f9b4 	bl	8002e24 <HAL_I2C_Master_Transmit>
    uint8_t TxData = (DATA) | I2C_LCD_InfoParam_g[I2C_LCD_InstanceIndex].BacklightVal;
 8004abc:	787b      	ldrb	r3, [r7, #1]
    HAL_I2C_Master_Transmit(I2C_LCD_CfgParam[I2C_LCD_InstanceIndex].I2C_Handle, (I2C_LCD_CfgParam[I2C_LCD_InstanceIndex].I2C_LCD_Address<<1), &TxData, sizeof(TxData), 100);
 8004abe:	f8cd 9000 	str.w	r9, [sp]
    uint8_t TxData = (DATA) | I2C_LCD_InfoParam_g[I2C_LCD_InstanceIndex].BacklightVal;
 8004ac2:	ea46 0203 	orr.w	r2, r6, r3
 8004ac6:	f042 0205 	orr.w	r2, r2, #5
    HAL_I2C_Master_Transmit(I2C_LCD_CfgParam[I2C_LCD_InstanceIndex].I2C_Handle, (I2C_LCD_CfgParam[I2C_LCD_InstanceIndex].I2C_LCD_Address<<1), &TxData, sizeof(TxData), 100);
 8004aca:	2301      	movs	r3, #1
    uint8_t TxData = (DATA) | I2C_LCD_InfoParam_g[I2C_LCD_InstanceIndex].BacklightVal;
 8004acc:	f88d 2017 	strb.w	r2, [sp, #23]
    HAL_I2C_Master_Transmit(I2C_LCD_CfgParam[I2C_LCD_InstanceIndex].I2C_Handle, (I2C_LCD_CfgParam[I2C_LCD_InstanceIndex].I2C_LCD_Address<<1), &TxData, sizeof(TxData), 100);
 8004ad0:	4641      	mov	r1, r8
 8004ad2:	f10d 0217 	add.w	r2, sp, #23
 8004ad6:	4650      	mov	r0, sl
 8004ad8:	f7fe f9a4 	bl	8002e24 <HAL_I2C_Master_Transmit>
	DELAY_US(2); // enable pulse must be >450ns
 8004adc:	4b1c      	ldr	r3, [pc, #112]	@ (8004b50 <I2C_LCD_WriteString+0x188>)
 8004ade:	f8db 2000 	ldr.w	r2, [fp]
 8004ae2:	69a1      	ldr	r1, [r4, #24]
 8004ae4:	fba3 3202 	umull	r3, r2, r3, r2
 8004ae8:	0c93      	lsrs	r3, r2, #18
 8004aea:	0cd2      	lsrs	r2, r2, #19
 8004aec:	ebc2 0243 	rsb	r2, r2, r3, lsl #1
 8004af0:	69a3      	ldr	r3, [r4, #24]
 8004af2:	1acb      	subs	r3, r1, r3
 8004af4:	429a      	cmp	r2, r3
 8004af6:	d8fb      	bhi.n	8004af0 <I2C_LCD_WriteString+0x128>
    uint8_t TxData = (DATA) | I2C_LCD_InfoParam_g[I2C_LCD_InstanceIndex].BacklightVal;
 8004af8:	787b      	ldrb	r3, [r7, #1]
    HAL_I2C_Master_Transmit(I2C_LCD_CfgParam[I2C_LCD_InstanceIndex].I2C_Handle, (I2C_LCD_CfgParam[I2C_LCD_InstanceIndex].I2C_LCD_Address<<1), &TxData, sizeof(TxData), 100);
 8004afa:	f8cd 9000 	str.w	r9, [sp]
    uint8_t TxData = (DATA) | I2C_LCD_InfoParam_g[I2C_LCD_InstanceIndex].BacklightVal;
 8004afe:	431d      	orrs	r5, r3
    HAL_I2C_Master_Transmit(I2C_LCD_CfgParam[I2C_LCD_InstanceIndex].I2C_Handle, (I2C_LCD_CfgParam[I2C_LCD_InstanceIndex].I2C_LCD_Address<<1), &TxData, sizeof(TxData), 100);
 8004b00:	f10d 0217 	add.w	r2, sp, #23
 8004b04:	2301      	movs	r3, #1
 8004b06:	4641      	mov	r1, r8
 8004b08:	4650      	mov	r0, sl
    uint8_t TxData = (DATA) | I2C_LCD_InfoParam_g[I2C_LCD_InstanceIndex].BacklightVal;
 8004b0a:	f88d 5017 	strb.w	r5, [sp, #23]
    HAL_I2C_Master_Transmit(I2C_LCD_CfgParam[I2C_LCD_InstanceIndex].I2C_Handle, (I2C_LCD_CfgParam[I2C_LCD_InstanceIndex].I2C_LCD_Address<<1), &TxData, sizeof(TxData), 100);
 8004b0e:	f7fe f989 	bl	8002e24 <HAL_I2C_Master_Transmit>
    DELAY_US(50); // commands need > 37us to settle
 8004b12:	4a0f      	ldr	r2, [pc, #60]	@ (8004b50 <I2C_LCD_WriteString+0x188>)
 8004b14:	f8db 3000 	ldr.w	r3, [fp]
 8004b18:	69a1      	ldr	r1, [r4, #24]
 8004b1a:	fba2 2303 	umull	r2, r3, r2, r3
 8004b1e:	0c9a      	lsrs	r2, r3, #18
 8004b20:	2032      	movs	r0, #50	@ 0x32
 8004b22:	fb00 f202 	mul.w	r2, r0, r2
 8004b26:	eba2 42d3 	sub.w	r2, r2, r3, lsr #19
 8004b2a:	69a3      	ldr	r3, [r4, #24]
 8004b2c:	1acb      	subs	r3, r1, r3
 8004b2e:	429a      	cmp	r2, r3
 8004b30:	d8fb      	bhi.n	8004b2a <I2C_LCD_WriteString+0x162>
    while (*Str)
 8004b32:	9b02      	ldr	r3, [sp, #8]
 8004b34:	f813 5f01 	ldrb.w	r5, [r3, #1]!
 8004b38:	9302      	str	r3, [sp, #8]
 8004b3a:	2d00      	cmp	r5, #0
 8004b3c:	f47f af60 	bne.w	8004a00 <I2C_LCD_WriteString+0x38>
    {
        I2C_LCD_Data(I2C_LCD_InstanceIndex, *Str++);
    }
}
 8004b40:	b007      	add	sp, #28
 8004b42:	e8bd 8ff0 	ldmia.w	sp!, {r4, r5, r6, r7, r8, r9, sl, fp, pc}
 8004b46:	bf00      	nop
 8004b48:	08007178 	.word	0x08007178
 8004b4c:	20001d24 	.word	0x20001d24
 8004b50:	431bde83 	.word	0x431bde83
 8004b54:	20000010 	.word	0x20000010

08004b58 <__itoa>:
 8004b58:	1e93      	subs	r3, r2, #2
 8004b5a:	2b22      	cmp	r3, #34	@ 0x22
 8004b5c:	b510      	push	{r4, lr}
 8004b5e:	460c      	mov	r4, r1
 8004b60:	d904      	bls.n	8004b6c <__itoa+0x14>
 8004b62:	2300      	movs	r3, #0
 8004b64:	700b      	strb	r3, [r1, #0]
 8004b66:	461c      	mov	r4, r3
 8004b68:	4620      	mov	r0, r4
 8004b6a:	bd10      	pop	{r4, pc}
 8004b6c:	2a0a      	cmp	r2, #10
 8004b6e:	d109      	bne.n	8004b84 <__itoa+0x2c>
 8004b70:	2800      	cmp	r0, #0
 8004b72:	da07      	bge.n	8004b84 <__itoa+0x2c>
 8004b74:	232d      	movs	r3, #45	@ 0x2d
 8004b76:	700b      	strb	r3, [r1, #0]
 8004b78:	4240      	negs	r0, r0
 8004b7a:	2101      	movs	r1, #1
 8004b7c:	4421      	add	r1, r4
 8004b7e:	f000 f805 	bl	8004b8c <__utoa>
 8004b82:	e7f1      	b.n	8004b68 <__itoa+0x10>
 8004b84:	2100      	movs	r1, #0
 8004b86:	e7f9      	b.n	8004b7c <__itoa+0x24>

08004b88 <itoa>:
 8004b88:	f7ff bfe6 	b.w	8004b58 <__itoa>

08004b8c <__utoa>:
 8004b8c:	b5f0      	push	{r4, r5, r6, r7, lr}
 8004b8e:	4c1f      	ldr	r4, [pc, #124]	@ (8004c0c <__utoa+0x80>)
 8004b90:	b08b      	sub	sp, #44	@ 0x2c
 8004b92:	4605      	mov	r5, r0
 8004b94:	460b      	mov	r3, r1
 8004b96:	466e      	mov	r6, sp
 8004b98:	f104 0c20 	add.w	ip, r4, #32
 8004b9c:	6820      	ldr	r0, [r4, #0]
 8004b9e:	6861      	ldr	r1, [r4, #4]
 8004ba0:	4637      	mov	r7, r6
 8004ba2:	c703      	stmia	r7!, {r0, r1}
 8004ba4:	3408      	adds	r4, #8
 8004ba6:	4564      	cmp	r4, ip
 8004ba8:	463e      	mov	r6, r7
 8004baa:	d1f7      	bne.n	8004b9c <__utoa+0x10>
 8004bac:	7921      	ldrb	r1, [r4, #4]
 8004bae:	7139      	strb	r1, [r7, #4]
 8004bb0:	1e91      	subs	r1, r2, #2
 8004bb2:	6820      	ldr	r0, [r4, #0]
 8004bb4:	6038      	str	r0, [r7, #0]
 8004bb6:	2922      	cmp	r1, #34	@ 0x22
 8004bb8:	f04f 0100 	mov.w	r1, #0
 8004bbc:	d904      	bls.n	8004bc8 <__utoa+0x3c>
 8004bbe:	7019      	strb	r1, [r3, #0]
 8004bc0:	460b      	mov	r3, r1
 8004bc2:	4618      	mov	r0, r3
 8004bc4:	b00b      	add	sp, #44	@ 0x2c
 8004bc6:	bdf0      	pop	{r4, r5, r6, r7, pc}
 8004bc8:	1e58      	subs	r0, r3, #1
 8004bca:	4684      	mov	ip, r0
 8004bcc:	fbb5 f7f2 	udiv	r7, r5, r2
 8004bd0:	fb02 5617 	mls	r6, r2, r7, r5
 8004bd4:	3628      	adds	r6, #40	@ 0x28
 8004bd6:	446e      	add	r6, sp
 8004bd8:	460c      	mov	r4, r1
 8004bda:	f816 6c28 	ldrb.w	r6, [r6, #-40]
 8004bde:	f80c 6f01 	strb.w	r6, [ip, #1]!
 8004be2:	462e      	mov	r6, r5
 8004be4:	42b2      	cmp	r2, r6
 8004be6:	f101 0101 	add.w	r1, r1, #1
 8004bea:	463d      	mov	r5, r7
 8004bec:	d9ee      	bls.n	8004bcc <__utoa+0x40>
 8004bee:	2200      	movs	r2, #0
 8004bf0:	545a      	strb	r2, [r3, r1]
 8004bf2:	1919      	adds	r1, r3, r4
 8004bf4:	1aa5      	subs	r5, r4, r2
 8004bf6:	42aa      	cmp	r2, r5
 8004bf8:	dae3      	bge.n	8004bc2 <__utoa+0x36>
 8004bfa:	f810 5f01 	ldrb.w	r5, [r0, #1]!
 8004bfe:	780e      	ldrb	r6, [r1, #0]
 8004c00:	7006      	strb	r6, [r0, #0]
 8004c02:	3201      	adds	r2, #1
 8004c04:	f801 5901 	strb.w	r5, [r1], #-1
 8004c08:	e7f4      	b.n	8004bf4 <__utoa+0x68>
 8004c0a:	bf00      	nop
 8004c0c:	08007184 	.word	0x08007184

08004c10 <__errno>:
 8004c10:	4b01      	ldr	r3, [pc, #4]	@ (8004c18 <__errno+0x8>)
 8004c12:	6818      	ldr	r0, [r3, #0]
 8004c14:	4770      	bx	lr
 8004c16:	bf00      	nop
 8004c18:	2000001c 	.word	0x2000001c

08004c1c <__libc_init_array>:
 8004c1c:	b570      	push	{r4, r5, r6, lr}
 8004c1e:	4d0d      	ldr	r5, [pc, #52]	@ (8004c54 <__libc_init_array+0x38>)
 8004c20:	4c0d      	ldr	r4, [pc, #52]	@ (8004c58 <__libc_init_array+0x3c>)
 8004c22:	1b64      	subs	r4, r4, r5
 8004c24:	10a4      	asrs	r4, r4, #2
 8004c26:	2600      	movs	r6, #0
 8004c28:	42a6      	cmp	r6, r4
 8004c2a:	d109      	bne.n	8004c40 <__libc_init_array+0x24>
 8004c2c:	4d0b      	ldr	r5, [pc, #44]	@ (8004c5c <__libc_init_array+0x40>)
 8004c2e:	4c0c      	ldr	r4, [pc, #48]	@ (8004c60 <__libc_init_array+0x44>)
 8004c30:	f000 fa6e 	bl	8005110 <_init>
 8004c34:	1b64      	subs	r4, r4, r5
 8004c36:	10a4      	asrs	r4, r4, #2
 8004c38:	2600      	movs	r6, #0
 8004c3a:	42a6      	cmp	r6, r4
 8004c3c:	d105      	bne.n	8004c4a <__libc_init_array+0x2e>
 8004c3e:	bd70      	pop	{r4, r5, r6, pc}
 8004c40:	f855 3b04 	ldr.w	r3, [r5], #4
 8004c44:	4798      	blx	r3
 8004c46:	3601      	adds	r6, #1
 8004c48:	e7ee      	b.n	8004c28 <__libc_init_array+0xc>
 8004c4a:	f855 3b04 	ldr.w	r3, [r5], #4
 8004c4e:	4798      	blx	r3
 8004c50:	3601      	adds	r6, #1
 8004c52:	e7f2      	b.n	8004c3a <__libc_init_array+0x1e>
 8004c54:	080071e8 	.word	0x080071e8
 8004c58:	080071e8 	.word	0x080071e8
 8004c5c:	080071e8 	.word	0x080071e8
 8004c60:	080071ec 	.word	0x080071ec
 8004c64:	00000000 	.word	0x00000000

08004c68 <exp>:
 8004c68:	b538      	push	{r3, r4, r5, lr}
 8004c6a:	ed2d 8b02 	vpush	{d8}
 8004c6e:	ec55 4b10 	vmov	r4, r5, d0
 8004c72:	f000 f895 	bl	8004da0 <__ieee754_exp>
 8004c76:	eeb0 8a40 	vmov.f32	s16, s0
 8004c7a:	eef0 8a60 	vmov.f32	s17, s1
 8004c7e:	ec45 4b10 	vmov	d0, r4, r5
 8004c82:	f000 f839 	bl	8004cf8 <finite>
 8004c86:	b168      	cbz	r0, 8004ca4 <exp+0x3c>
 8004c88:	a317      	add	r3, pc, #92	@ (adr r3, 8004ce8 <exp+0x80>)
 8004c8a:	e9d3 2300 	ldrd	r2, r3, [r3]
 8004c8e:	4620      	mov	r0, r4
 8004c90:	4629      	mov	r1, r5
 8004c92:	f7fb feed 	bl	8000a70 <__aeabi_dcmpgt>
 8004c96:	b160      	cbz	r0, 8004cb2 <exp+0x4a>
 8004c98:	f7ff ffba 	bl	8004c10 <__errno>
 8004c9c:	ed9f 8b0e 	vldr	d8, [pc, #56]	@ 8004cd8 <exp+0x70>
 8004ca0:	2322      	movs	r3, #34	@ 0x22
 8004ca2:	6003      	str	r3, [r0, #0]
 8004ca4:	eeb0 0a48 	vmov.f32	s0, s16
 8004ca8:	eef0 0a68 	vmov.f32	s1, s17
 8004cac:	ecbd 8b02 	vpop	{d8}
 8004cb0:	bd38      	pop	{r3, r4, r5, pc}
 8004cb2:	a30f      	add	r3, pc, #60	@ (adr r3, 8004cf0 <exp+0x88>)
 8004cb4:	e9d3 2300 	ldrd	r2, r3, [r3]
 8004cb8:	4620      	mov	r0, r4
 8004cba:	4629      	mov	r1, r5
 8004cbc:	f7fb feba 	bl	8000a34 <__aeabi_dcmplt>
 8004cc0:	2800      	cmp	r0, #0
 8004cc2:	d0ef      	beq.n	8004ca4 <exp+0x3c>
 8004cc4:	f7ff ffa4 	bl	8004c10 <__errno>
 8004cc8:	2322      	movs	r3, #34	@ 0x22
 8004cca:	ed9f 8b05 	vldr	d8, [pc, #20]	@ 8004ce0 <exp+0x78>
 8004cce:	6003      	str	r3, [r0, #0]
 8004cd0:	e7e8      	b.n	8004ca4 <exp+0x3c>
 8004cd2:	bf00      	nop
 8004cd4:	f3af 8000 	nop.w
 8004cd8:	00000000 	.word	0x00000000
 8004cdc:	7ff00000 	.word	0x7ff00000
	...
 8004ce8:	fefa39ef 	.word	0xfefa39ef
 8004cec:	40862e42 	.word	0x40862e42
 8004cf0:	d52d3051 	.word	0xd52d3051
 8004cf4:	c0874910 	.word	0xc0874910

08004cf8 <finite>:
 8004cf8:	b082      	sub	sp, #8
 8004cfa:	ed8d 0b00 	vstr	d0, [sp]
 8004cfe:	9801      	ldr	r0, [sp, #4]
 8004d00:	f040 4000 	orr.w	r0, r0, #2147483648	@ 0x80000000
 8004d04:	f500 1080 	add.w	r0, r0, #1048576	@ 0x100000
 8004d08:	0fc0      	lsrs	r0, r0, #31
 8004d0a:	b002      	add	sp, #8
 8004d0c:	4770      	bx	lr
	...

08004d10 <round>:
 8004d10:	ec51 0b10 	vmov	r0, r1, d0
 8004d14:	b570      	push	{r4, r5, r6, lr}
 8004d16:	f3c1 540a 	ubfx	r4, r1, #20, #11
 8004d1a:	f2a4 32ff 	subw	r2, r4, #1023	@ 0x3ff
 8004d1e:	2a13      	cmp	r2, #19
 8004d20:	460b      	mov	r3, r1
 8004d22:	4605      	mov	r5, r0
 8004d24:	dc1b      	bgt.n	8004d5e <round+0x4e>
 8004d26:	2a00      	cmp	r2, #0
 8004d28:	da0b      	bge.n	8004d42 <round+0x32>
 8004d2a:	f001 4300 	and.w	r3, r1, #2147483648	@ 0x80000000
 8004d2e:	3201      	adds	r2, #1
 8004d30:	bf04      	itt	eq
 8004d32:	f043 537f 	orreq.w	r3, r3, #1069547520	@ 0x3fc00000
 8004d36:	f443 1340 	orreq.w	r3, r3, #3145728	@ 0x300000
 8004d3a:	2200      	movs	r2, #0
 8004d3c:	4619      	mov	r1, r3
 8004d3e:	4610      	mov	r0, r2
 8004d40:	e015      	b.n	8004d6e <round+0x5e>
 8004d42:	4c15      	ldr	r4, [pc, #84]	@ (8004d98 <round+0x88>)
 8004d44:	4114      	asrs	r4, r2
 8004d46:	ea04 0601 	and.w	r6, r4, r1
 8004d4a:	4306      	orrs	r6, r0
 8004d4c:	d00f      	beq.n	8004d6e <round+0x5e>
 8004d4e:	f44f 2100 	mov.w	r1, #524288	@ 0x80000
 8004d52:	fa41 f202 	asr.w	r2, r1, r2
 8004d56:	4413      	add	r3, r2
 8004d58:	ea23 0304 	bic.w	r3, r3, r4
 8004d5c:	e7ed      	b.n	8004d3a <round+0x2a>
 8004d5e:	2a33      	cmp	r2, #51	@ 0x33
 8004d60:	dd08      	ble.n	8004d74 <round+0x64>
 8004d62:	f5b2 6f80 	cmp.w	r2, #1024	@ 0x400
 8004d66:	d102      	bne.n	8004d6e <round+0x5e>
 8004d68:	4602      	mov	r2, r0
 8004d6a:	f7fb fa3b 	bl	80001e4 <__adddf3>
 8004d6e:	ec41 0b10 	vmov	d0, r0, r1
 8004d72:	bd70      	pop	{r4, r5, r6, pc}
 8004d74:	f2a4 4613 	subw	r6, r4, #1043	@ 0x413
 8004d78:	f04f 34ff 	mov.w	r4, #4294967295
 8004d7c:	40f4      	lsrs	r4, r6
 8004d7e:	4204      	tst	r4, r0
 8004d80:	d0f5      	beq.n	8004d6e <round+0x5e>
 8004d82:	f1c2 0133 	rsb	r1, r2, #51	@ 0x33
 8004d86:	2201      	movs	r2, #1
 8004d88:	408a      	lsls	r2, r1
 8004d8a:	1952      	adds	r2, r2, r5
 8004d8c:	bf28      	it	cs
 8004d8e:	3301      	addcs	r3, #1
 8004d90:	ea22 0204 	bic.w	r2, r2, r4
 8004d94:	e7d2      	b.n	8004d3c <round+0x2c>
 8004d96:	bf00      	nop
 8004d98:	000fffff 	.word	0x000fffff
 8004d9c:	00000000 	.word	0x00000000

08004da0 <__ieee754_exp>:
 8004da0:	e92d 47ff 	stmdb	sp!, {r0, r1, r2, r3, r4, r5, r6, r7, r8, r9, sl, lr}
 8004da4:	ec55 4b10 	vmov	r4, r5, d0
 8004da8:	49b1      	ldr	r1, [pc, #708]	@ (8005070 <__ieee754_exp+0x2d0>)
 8004daa:	f025 4200 	bic.w	r2, r5, #2147483648	@ 0x80000000
 8004dae:	428a      	cmp	r2, r1
 8004db0:	ea4f 76d5 	mov.w	r6, r5, lsr #31
 8004db4:	d936      	bls.n	8004e24 <__ieee754_exp+0x84>
 8004db6:	49af      	ldr	r1, [pc, #700]	@ (8005074 <__ieee754_exp+0x2d4>)
 8004db8:	428a      	cmp	r2, r1
 8004dba:	d914      	bls.n	8004de6 <__ieee754_exp+0x46>
 8004dbc:	f3c5 0313 	ubfx	r3, r5, #0, #20
 8004dc0:	4323      	orrs	r3, r4
 8004dc2:	4622      	mov	r2, r4
 8004dc4:	d007      	beq.n	8004dd6 <__ieee754_exp+0x36>
 8004dc6:	462b      	mov	r3, r5
 8004dc8:	4620      	mov	r0, r4
 8004dca:	4629      	mov	r1, r5
 8004dcc:	f7fb fa0a 	bl	80001e4 <__adddf3>
 8004dd0:	4604      	mov	r4, r0
 8004dd2:	460d      	mov	r5, r1
 8004dd4:	e002      	b.n	8004ddc <__ieee754_exp+0x3c>
 8004dd6:	2e00      	cmp	r6, #0
 8004dd8:	f040 8118 	bne.w	800500c <__ieee754_exp+0x26c>
 8004ddc:	ec45 4b10 	vmov	d0, r4, r5
 8004de0:	b004      	add	sp, #16
 8004de2:	e8bd 87f0 	ldmia.w	sp!, {r4, r5, r6, r7, r8, r9, sl, pc}
 8004de6:	a38c      	add	r3, pc, #560	@ (adr r3, 8005018 <__ieee754_exp+0x278>)
 8004de8:	e9d3 2300 	ldrd	r2, r3, [r3]
 8004dec:	4620      	mov	r0, r4
 8004dee:	4629      	mov	r1, r5
 8004df0:	f7fb fe3e 	bl	8000a70 <__aeabi_dcmpgt>
 8004df4:	4607      	mov	r7, r0
 8004df6:	b128      	cbz	r0, 8004e04 <__ieee754_exp+0x64>
 8004df8:	2000      	movs	r0, #0
 8004dfa:	b004      	add	sp, #16
 8004dfc:	e8bd 47f0 	ldmia.w	sp!, {r4, r5, r6, r7, r8, r9, sl, lr}
 8004e00:	f000 b97e 	b.w	8005100 <__math_oflow>
 8004e04:	a386      	add	r3, pc, #536	@ (adr r3, 8005020 <__ieee754_exp+0x280>)
 8004e06:	e9d3 2300 	ldrd	r2, r3, [r3]
 8004e0a:	4620      	mov	r0, r4
 8004e0c:	4629      	mov	r1, r5
 8004e0e:	f7fb fe11 	bl	8000a34 <__aeabi_dcmplt>
 8004e12:	2800      	cmp	r0, #0
 8004e14:	f000 8087 	beq.w	8004f26 <__ieee754_exp+0x186>
 8004e18:	4638      	mov	r0, r7
 8004e1a:	b004      	add	sp, #16
 8004e1c:	e8bd 47f0 	ldmia.w	sp!, {r4, r5, r6, r7, r8, r9, sl, lr}
 8004e20:	f000 b966 	b.w	80050f0 <__math_uflow>
 8004e24:	4b94      	ldr	r3, [pc, #592]	@ (8005078 <__ieee754_exp+0x2d8>)
 8004e26:	429a      	cmp	r2, r3
 8004e28:	f240 80a9 	bls.w	8004f7e <__ieee754_exp+0x1de>
 8004e2c:	4b93      	ldr	r3, [pc, #588]	@ (800507c <__ieee754_exp+0x2dc>)
 8004e2e:	429a      	cmp	r2, r3
 8004e30:	d879      	bhi.n	8004f26 <__ieee754_exp+0x186>
 8004e32:	4b93      	ldr	r3, [pc, #588]	@ (8005080 <__ieee754_exp+0x2e0>)
 8004e34:	eb03 03c6 	add.w	r3, r3, r6, lsl #3
 8004e38:	e9d3 2300 	ldrd	r2, r3, [r3]
 8004e3c:	4620      	mov	r0, r4
 8004e3e:	4629      	mov	r1, r5
 8004e40:	f7fb f9ce 	bl	80001e0 <__aeabi_dsub>
 8004e44:	4b8f      	ldr	r3, [pc, #572]	@ (8005084 <__ieee754_exp+0x2e4>)
 8004e46:	00f7      	lsls	r7, r6, #3
 8004e48:	443b      	add	r3, r7
 8004e4a:	ed93 7b00 	vldr	d7, [r3]
 8004e4e:	ed8d 7b00 	vstr	d7, [sp]
 8004e52:	f1c6 0a01 	rsb	sl, r6, #1
 8004e56:	4680      	mov	r8, r0
 8004e58:	4689      	mov	r9, r1
 8004e5a:	ebaa 0a06 	sub.w	sl, sl, r6
 8004e5e:	e9dd 2300 	ldrd	r2, r3, [sp]
 8004e62:	4640      	mov	r0, r8
 8004e64:	4649      	mov	r1, r9
 8004e66:	f7fb f9bb 	bl	80001e0 <__aeabi_dsub>
 8004e6a:	4604      	mov	r4, r0
 8004e6c:	460d      	mov	r5, r1
 8004e6e:	4622      	mov	r2, r4
 8004e70:	462b      	mov	r3, r5
 8004e72:	4620      	mov	r0, r4
 8004e74:	4629      	mov	r1, r5
 8004e76:	f7fb fb6b 	bl	8000550 <__aeabi_dmul>
 8004e7a:	a36b      	add	r3, pc, #428	@ (adr r3, 8005028 <__ieee754_exp+0x288>)
 8004e7c:	e9d3 2300 	ldrd	r2, r3, [r3]
 8004e80:	4606      	mov	r6, r0
 8004e82:	460f      	mov	r7, r1
 8004e84:	f7fb fb64 	bl	8000550 <__aeabi_dmul>
 8004e88:	a369      	add	r3, pc, #420	@ (adr r3, 8005030 <__ieee754_exp+0x290>)
 8004e8a:	e9d3 2300 	ldrd	r2, r3, [r3]
 8004e8e:	f7fb f9a7 	bl	80001e0 <__aeabi_dsub>
 8004e92:	4632      	mov	r2, r6
 8004e94:	463b      	mov	r3, r7
 8004e96:	f7fb fb5b 	bl	8000550 <__aeabi_dmul>
 8004e9a:	a367      	add	r3, pc, #412	@ (adr r3, 8005038 <__ieee754_exp+0x298>)
 8004e9c:	e9d3 2300 	ldrd	r2, r3, [r3]
 8004ea0:	f7fb f9a0 	bl	80001e4 <__adddf3>
 8004ea4:	4632      	mov	r2, r6
 8004ea6:	463b      	mov	r3, r7
 8004ea8:	f7fb fb52 	bl	8000550 <__aeabi_dmul>
 8004eac:	a364      	add	r3, pc, #400	@ (adr r3, 8005040 <__ieee754_exp+0x2a0>)
 8004eae:	e9d3 2300 	ldrd	r2, r3, [r3]
 8004eb2:	f7fb f995 	bl	80001e0 <__aeabi_dsub>
 8004eb6:	4632      	mov	r2, r6
 8004eb8:	463b      	mov	r3, r7
 8004eba:	f7fb fb49 	bl	8000550 <__aeabi_dmul>
 8004ebe:	a362      	add	r3, pc, #392	@ (adr r3, 8005048 <__ieee754_exp+0x2a8>)
 8004ec0:	e9d3 2300 	ldrd	r2, r3, [r3]
 8004ec4:	f7fb f98e 	bl	80001e4 <__adddf3>
 8004ec8:	4632      	mov	r2, r6
 8004eca:	463b      	mov	r3, r7
 8004ecc:	f7fb fb40 	bl	8000550 <__aeabi_dmul>
 8004ed0:	4602      	mov	r2, r0
 8004ed2:	460b      	mov	r3, r1
 8004ed4:	4620      	mov	r0, r4
 8004ed6:	4629      	mov	r1, r5
 8004ed8:	f7fb f982 	bl	80001e0 <__aeabi_dsub>
 8004edc:	4602      	mov	r2, r0
 8004ede:	460b      	mov	r3, r1
 8004ee0:	4606      	mov	r6, r0
 8004ee2:	460f      	mov	r7, r1
 8004ee4:	4620      	mov	r0, r4
 8004ee6:	4629      	mov	r1, r5
 8004ee8:	f7fb fb32 	bl	8000550 <__aeabi_dmul>
 8004eec:	e9cd 0102 	strd	r0, r1, [sp, #8]
 8004ef0:	f1ba 0f00 	cmp.w	sl, #0
 8004ef4:	d15c      	bne.n	8004fb0 <__ieee754_exp+0x210>
 8004ef6:	2200      	movs	r2, #0
 8004ef8:	f04f 4380 	mov.w	r3, #1073741824	@ 0x40000000
 8004efc:	4630      	mov	r0, r6
 8004efe:	4639      	mov	r1, r7
 8004f00:	f7fb f96e 	bl	80001e0 <__aeabi_dsub>
 8004f04:	4602      	mov	r2, r0
 8004f06:	460b      	mov	r3, r1
 8004f08:	e9dd 0102 	ldrd	r0, r1, [sp, #8]
 8004f0c:	f7fb fc4a 	bl	80007a4 <__aeabi_ddiv>
 8004f10:	4622      	mov	r2, r4
 8004f12:	462b      	mov	r3, r5
 8004f14:	f7fb f964 	bl	80001e0 <__aeabi_dsub>
 8004f18:	4602      	mov	r2, r0
 8004f1a:	460b      	mov	r3, r1
 8004f1c:	2000      	movs	r0, #0
 8004f1e:	495a      	ldr	r1, [pc, #360]	@ (8005088 <__ieee754_exp+0x2e8>)
 8004f20:	f7fb f95e 	bl	80001e0 <__aeabi_dsub>
 8004f24:	e754      	b.n	8004dd0 <__ieee754_exp+0x30>
 8004f26:	4b59      	ldr	r3, [pc, #356]	@ (800508c <__ieee754_exp+0x2ec>)
 8004f28:	4620      	mov	r0, r4
 8004f2a:	eb03 06c6 	add.w	r6, r3, r6, lsl #3
 8004f2e:	4629      	mov	r1, r5
 8004f30:	a347      	add	r3, pc, #284	@ (adr r3, 8005050 <__ieee754_exp+0x2b0>)
 8004f32:	e9d3 2300 	ldrd	r2, r3, [r3]
 8004f36:	f7fb fb0b 	bl	8000550 <__aeabi_dmul>
 8004f3a:	e9d6 2300 	ldrd	r2, r3, [r6]
 8004f3e:	f7fb f951 	bl	80001e4 <__adddf3>
 8004f42:	f7fb fd9f 	bl	8000a84 <__aeabi_d2iz>
 8004f46:	4682      	mov	sl, r0
 8004f48:	f7fb fa98 	bl	800047c <__aeabi_i2d>
 8004f4c:	a342      	add	r3, pc, #264	@ (adr r3, 8005058 <__ieee754_exp+0x2b8>)
 8004f4e:	e9d3 2300 	ldrd	r2, r3, [r3]
 8004f52:	4606      	mov	r6, r0
 8004f54:	460f      	mov	r7, r1
 8004f56:	f7fb fafb 	bl	8000550 <__aeabi_dmul>
 8004f5a:	4602      	mov	r2, r0
 8004f5c:	460b      	mov	r3, r1
 8004f5e:	4620      	mov	r0, r4
 8004f60:	4629      	mov	r1, r5
 8004f62:	f7fb f93d 	bl	80001e0 <__aeabi_dsub>
 8004f66:	a33e      	add	r3, pc, #248	@ (adr r3, 8005060 <__ieee754_exp+0x2c0>)
 8004f68:	e9d3 2300 	ldrd	r2, r3, [r3]
 8004f6c:	4680      	mov	r8, r0
 8004f6e:	4689      	mov	r9, r1
 8004f70:	4630      	mov	r0, r6
 8004f72:	4639      	mov	r1, r7
 8004f74:	f7fb faec 	bl	8000550 <__aeabi_dmul>
 8004f78:	e9cd 0100 	strd	r0, r1, [sp]
 8004f7c:	e76f      	b.n	8004e5e <__ieee754_exp+0xbe>
 8004f7e:	4b44      	ldr	r3, [pc, #272]	@ (8005090 <__ieee754_exp+0x2f0>)
 8004f80:	429a      	cmp	r2, r3
 8004f82:	d810      	bhi.n	8004fa6 <__ieee754_exp+0x206>
 8004f84:	a338      	add	r3, pc, #224	@ (adr r3, 8005068 <__ieee754_exp+0x2c8>)
 8004f86:	e9d3 2300 	ldrd	r2, r3, [r3]
 8004f8a:	4620      	mov	r0, r4
 8004f8c:	4629      	mov	r1, r5
 8004f8e:	f7fb f929 	bl	80001e4 <__adddf3>
 8004f92:	4b3d      	ldr	r3, [pc, #244]	@ (8005088 <__ieee754_exp+0x2e8>)
 8004f94:	2200      	movs	r2, #0
 8004f96:	f7fb fd6b 	bl	8000a70 <__aeabi_dcmpgt>
 8004f9a:	b138      	cbz	r0, 8004fac <__ieee754_exp+0x20c>
 8004f9c:	4b3a      	ldr	r3, [pc, #232]	@ (8005088 <__ieee754_exp+0x2e8>)
 8004f9e:	2200      	movs	r2, #0
 8004fa0:	4620      	mov	r0, r4
 8004fa2:	4629      	mov	r1, r5
 8004fa4:	e712      	b.n	8004dcc <__ieee754_exp+0x2c>
 8004fa6:	f04f 0a00 	mov.w	sl, #0
 8004faa:	e760      	b.n	8004e6e <__ieee754_exp+0xce>
 8004fac:	4682      	mov	sl, r0
 8004fae:	e75e      	b.n	8004e6e <__ieee754_exp+0xce>
 8004fb0:	4632      	mov	r2, r6
 8004fb2:	463b      	mov	r3, r7
 8004fb4:	2000      	movs	r0, #0
 8004fb6:	f04f 4180 	mov.w	r1, #1073741824	@ 0x40000000
 8004fba:	f7fb f911 	bl	80001e0 <__aeabi_dsub>
 8004fbe:	4602      	mov	r2, r0
 8004fc0:	460b      	mov	r3, r1
 8004fc2:	e9dd 0102 	ldrd	r0, r1, [sp, #8]
 8004fc6:	f7fb fbed 	bl	80007a4 <__aeabi_ddiv>
 8004fca:	4602      	mov	r2, r0
 8004fcc:	460b      	mov	r3, r1
 8004fce:	e9dd 0100 	ldrd	r0, r1, [sp]
 8004fd2:	f7fb f905 	bl	80001e0 <__aeabi_dsub>
 8004fd6:	4642      	mov	r2, r8
 8004fd8:	464b      	mov	r3, r9
 8004fda:	f7fb f901 	bl	80001e0 <__aeabi_dsub>
 8004fde:	4602      	mov	r2, r0
 8004fe0:	460b      	mov	r3, r1
 8004fe2:	2000      	movs	r0, #0
 8004fe4:	4928      	ldr	r1, [pc, #160]	@ (8005088 <__ieee754_exp+0x2e8>)
 8004fe6:	f7fb f8fb 	bl	80001e0 <__aeabi_dsub>
 8004fea:	f46f 727f 	mvn.w	r2, #1020	@ 0x3fc
 8004fee:	4592      	cmp	sl, r2
 8004ff0:	db02      	blt.n	8004ff8 <__ieee754_exp+0x258>
 8004ff2:	eb01 510a 	add.w	r1, r1, sl, lsl #20
 8004ff6:	e6eb      	b.n	8004dd0 <__ieee754_exp+0x30>
 8004ff8:	f50a 7a7a 	add.w	sl, sl, #1000	@ 0x3e8
 8004ffc:	eb01 510a 	add.w	r1, r1, sl, lsl #20
 8005000:	2200      	movs	r2, #0
 8005002:	f04f 73b8 	mov.w	r3, #24117248	@ 0x1700000
 8005006:	f7fb faa3 	bl	8000550 <__aeabi_dmul>
 800500a:	e6e1      	b.n	8004dd0 <__ieee754_exp+0x30>
 800500c:	2400      	movs	r4, #0
 800500e:	2500      	movs	r5, #0
 8005010:	e6e4      	b.n	8004ddc <__ieee754_exp+0x3c>
 8005012:	bf00      	nop
 8005014:	f3af 8000 	nop.w
 8005018:	fefa39ef 	.word	0xfefa39ef
 800501c:	40862e42 	.word	0x40862e42
 8005020:	d52d3051 	.word	0xd52d3051
 8005024:	c0874910 	.word	0xc0874910
 8005028:	72bea4d0 	.word	0x72bea4d0
 800502c:	3e663769 	.word	0x3e663769
 8005030:	c5d26bf1 	.word	0xc5d26bf1
 8005034:	3ebbbd41 	.word	0x3ebbbd41
 8005038:	af25de2c 	.word	0xaf25de2c
 800503c:	3f11566a 	.word	0x3f11566a
 8005040:	16bebd93 	.word	0x16bebd93
 8005044:	3f66c16c 	.word	0x3f66c16c
 8005048:	5555553e 	.word	0x5555553e
 800504c:	3fc55555 	.word	0x3fc55555
 8005050:	652b82fe 	.word	0x652b82fe
 8005054:	3ff71547 	.word	0x3ff71547
 8005058:	fee00000 	.word	0xfee00000
 800505c:	3fe62e42 	.word	0x3fe62e42
 8005060:	35793c76 	.word	0x35793c76
 8005064:	3dea39ef 	.word	0x3dea39ef
 8005068:	8800759c 	.word	0x8800759c
 800506c:	7e37e43c 	.word	0x7e37e43c
 8005070:	40862e41 	.word	0x40862e41
 8005074:	7fefffff 	.word	0x7fefffff
 8005078:	3fd62e42 	.word	0x3fd62e42
 800507c:	3ff0a2b1 	.word	0x3ff0a2b1
 8005080:	080071c0 	.word	0x080071c0
 8005084:	080071b0 	.word	0x080071b0
 8005088:	3ff00000 	.word	0x3ff00000
 800508c:	080071d0 	.word	0x080071d0
 8005090:	3defffff 	.word	0x3defffff

08005094 <with_errno>:
 8005094:	b510      	push	{r4, lr}
 8005096:	ed2d 8b02 	vpush	{d8}
 800509a:	eeb0 8a40 	vmov.f32	s16, s0
 800509e:	eef0 8a60 	vmov.f32	s17, s1
 80050a2:	4604      	mov	r4, r0
 80050a4:	f7ff fdb4 	bl	8004c10 <__errno>
 80050a8:	eeb0 0a48 	vmov.f32	s0, s16
 80050ac:	eef0 0a68 	vmov.f32	s1, s17
 80050b0:	ecbd 8b02 	vpop	{d8}
 80050b4:	6004      	str	r4, [r0, #0]
 80050b6:	bd10      	pop	{r4, pc}

080050b8 <xflow>:
 80050b8:	4603      	mov	r3, r0
 80050ba:	b507      	push	{r0, r1, r2, lr}
 80050bc:	ec51 0b10 	vmov	r0, r1, d0
 80050c0:	b183      	cbz	r3, 80050e4 <xflow+0x2c>
 80050c2:	4602      	mov	r2, r0
 80050c4:	f101 4300 	add.w	r3, r1, #2147483648	@ 0x80000000
 80050c8:	e9cd 2300 	strd	r2, r3, [sp]
 80050cc:	e9dd 2300 	ldrd	r2, r3, [sp]
 80050d0:	f7fb fa3e 	bl	8000550 <__aeabi_dmul>
 80050d4:	ec41 0b10 	vmov	d0, r0, r1
 80050d8:	2022      	movs	r0, #34	@ 0x22
 80050da:	b003      	add	sp, #12
 80050dc:	f85d eb04 	ldr.w	lr, [sp], #4
 80050e0:	f7ff bfd8 	b.w	8005094 <with_errno>
 80050e4:	4602      	mov	r2, r0
 80050e6:	460b      	mov	r3, r1
 80050e8:	e7ee      	b.n	80050c8 <xflow+0x10>
 80050ea:	0000      	movs	r0, r0
 80050ec:	0000      	movs	r0, r0
	...

080050f0 <__math_uflow>:
 80050f0:	ed9f 0b01 	vldr	d0, [pc, #4]	@ 80050f8 <__math_uflow+0x8>
 80050f4:	f7ff bfe0 	b.w	80050b8 <xflow>
 80050f8:	00000000 	.word	0x00000000
 80050fc:	10000000 	.word	0x10000000

08005100 <__math_oflow>:
 8005100:	ed9f 0b01 	vldr	d0, [pc, #4]	@ 8005108 <__math_oflow+0x8>
 8005104:	f7ff bfd8 	b.w	80050b8 <xflow>
 8005108:	00000000 	.word	0x00000000
 800510c:	70000000 	.word	0x70000000

08005110 <_init>:
 8005110:	b5f8      	push	{r3, r4, r5, r6, r7, lr}
 8005112:	bf00      	nop
 8005114:	bcf8      	pop	{r3, r4, r5, r6, r7}
 8005116:	bc08      	pop	{r3}
 8005118:	469e      	mov	lr, r3
 800511a:	4770      	bx	lr

0800511c <_fini>:
 800511c:	b5f8      	push	{r3, r4, r5, r6, r7, lr}
 800511e:	bf00      	nop
 8005120:	bcf8      	pop	{r3, r4, r5, r6, r7}
 8005122:	bc08      	pop	{r3}
 8005124:	469e      	mov	lr, r3
 8005126:	4770      	bx	lr
